
Dump of file C:\Program Files (x86)\National Instruments\NI-DAQ\DAQmx ANSI C Dev\lib\msvc\NIDAQmx.lib

File Type: LIBRARY

Archive member name at 8: /               
56BB4622 time/date Wed Feb 10 14:16:02 2016
         uid
         gid
       0 mode
   443B6 size
correct header end

    6657 public symbols

    887F6 __IMPORT_DESCRIPTOR_nicaiu
    88A1C __NULL_IMPORT_DESCRIPTOR
    88B52 nicaiu_NULL_THUNK_DATA
    B3010 _DAQmxGetSCXICalEnable@12
    B3010 __imp__DAQmxGetSCXICalEnable@12
    E99B6 _DAQmxSetSCXICalEnable@12
    E99B6 __imp__DAQmxSetSCXICalEnable@12
    AEECE _DAQmxGetMSeriesLegacyCompatibility@12
    AEECE __imp__DAQmxGetMSeriesLegacyCompatibility@12
    E8BDC _DAQmxSetMSeriesLegacyCompatibility@12
    E8BDC __imp__DAQmxSetMSeriesLegacyCompatibility@12
    D036A _DAQmxResetMSeriesLegacyCompatibility@8
    D036A __imp__DAQmxResetMSeriesLegacyCompatibility@8
    AA3F2 _DAQmxGetDevMSeriesLegacyCompatibility@8
    AA3F2 __imp__DAQmxGetDevMSeriesLegacyCompatibility@8
    E51D0 _DAQmxSetDevMSeriesLegacyCompatibility@8
    E51D0 __imp__DAQmxSetDevMSeriesLegacyCompatibility@8
    88CA2 ?DAQmxAdjust9246GainCal@nNICAI100@@YGJKQBDN@Z
    88CA2 __imp_?DAQmxAdjust9246GainCal@nNICAI100@@YGJKQBDN@Z
    88D2C ?DAQmxAdjust9246OffsetCal@nNICAI100@@YGJKQBD@Z
    88D2C __imp_?DAQmxAdjust9246OffsetCal@nNICAI100@@YGJKQBD@Z
    88DB6 ?DAQmxAdjust9247GainCal@nNICAI100@@YGJKQBDN@Z
    88DB6 __imp_?DAQmxAdjust9247GainCal@nNICAI100@@YGJKQBDN@Z
    88E40 ?DAQmxAdjust9247OffsetCal@nNICAI100@@YGJKQBD@Z
    88E40 __imp_?DAQmxAdjust9247OffsetCal@nNICAI100@@YGJKQBD@Z
    88ECA ?DAQmxGetTimingSyncPulseForce@nNICAI100@@YGJPAXPAK@Z
    88ECA __imp_?DAQmxGetTimingSyncPulseForce@nNICAI100@@YGJPAXPAK@Z
    8910A ?DAQmxSetTimingSyncPulseForce@nNICAI100@@YGJPAXK@Z
    8910A __imp_?DAQmxSetTimingSyncPulseForce@nNICAI100@@YGJPAXK@Z
    88FEA ?DAQmxResetTimingSyncPulseForce@nNICAI100@@YGJPAX@Z
    88FEA __imp_?DAQmxResetTimingSyncPulseForce@nNICAI100@@YGJPAX@Z
    88F5A ?DAQmxGetWriteNextWriteIsLast@nNICAI100@@YGJPAXPAK@Z
    88F5A __imp_?DAQmxGetWriteNextWriteIsLast@nNICAI100@@YGJPAXPAK@Z
    89198 ?DAQmxSetWriteNextWriteIsLast@nNICAI100@@YGJPAXK@Z
    89198 __imp_?DAQmxSetWriteNextWriteIsLast@nNICAI100@@YGJPAXK@Z
    8907A ?DAQmxResetWriteNextWriteIsLast@nNICAI100@@YGJPAX@Z
    8907A __imp_?DAQmxResetWriteNextWriteIsLast@nNICAI100@@YGJPAX@Z
    B9518 _DAQmxLoadTask@8
    B9518 __imp__DAQmxLoadTask@8
    8F4E6 _DAQmxCreateTask@8
    8F4E6 __imp__DAQmxCreateTask@8
    894D2 _DAQmxAddGlobalChansToTask@8
    894D2 __imp__DAQmxAddGlobalChansToTask@8
    ECC50 _DAQmxStartTask@4
    ECC50 __imp__DAQmxStartTask@4
    ECCBE _DAQmxStopTask@4
    ECCBE __imp__DAQmxStopTask@4
    8CC30 _DAQmxClearTask@4
    8CC30 __imp__DAQmxClearTask@4
    ED698 _DAQmxWaitUntilTaskDone@12
    ED698 __imp__DAQmxWaitUntilTaskDone@12
    B9438 _DAQmxIsTaskDone@8
    B9438 __imp__DAQmxIsTaskDone@8
    ED43C _DAQmxTaskControl@8
    ED43C __imp__DAQmxTaskControl@8
    AF044 _DAQmxGetNthTaskChannel@16
    AF044 __imp__DAQmxGetNthTaskChannel@16
    AF0BA _DAQmxGetNthTaskDevice@16
    AF0BA __imp__DAQmxGetNthTaskDevice@16
    B6440 _DAQmxGetTaskAttribute
    B6440 __imp__DAQmxGetTaskAttribute
    BA54A _DAQmxRegisterEveryNSamplesEvent@24
    BA54A __imp__DAQmxRegisterEveryNSamplesEvent@24
    BA45A _DAQmxRegisterDoneEvent@16
    BA45A __imp__DAQmxRegisterDoneEvent@16
    BA64E _DAQmxRegisterSignalEvent@20
    BA64E __imp__DAQmxRegisterSignalEvent@20
    8DDC2 _DAQmxCreateAIVoltageChan@40
    8DDC2 __imp__DAQmxCreateAIVoltageChan@40
    8D04E _DAQmxCreateAICurrentChan@52
    8D04E __imp__DAQmxCreateAICurrentChan@52
    8DEBC _DAQmxCreateAIVoltageRMSChan@40
    8DEBC __imp__DAQmxCreateAIVoltageRMSChan@40
    8D0C6 _DAQmxCreateAICurrentRMSChan@52
    8D0C6 __imp__DAQmxCreateAICurrentRMSChan@52
    8DA40 _DAQmxCreateAIThrmcplChan@52
    8DA40 __imp__DAQmxCreateAIThrmcplChan@52
    8D7D0 _DAQmxCreateAIRTDChan@60
    8D7D0 __imp__DAQmxCreateAIRTDChan@60
    8DAB8 _DAQmxCreateAIThrmstrChanIex@72
    8DAB8 __imp__DAQmxCreateAIThrmstrChanIex@72
    8DB34 _DAQmxCreateAIThrmstrChanVex@80
    8DB34 __imp__DAQmxCreateAIThrmstrChanVex@80
    8D3C8 _DAQmxCreateAIFreqVoltageChan@52
    8D3C8 __imp__DAQmxCreateAIFreqVoltageChan@52
    8D844 _DAQmxCreateAIResistanceChan@52
    8D844 __imp__DAQmxCreateAIResistanceChan@52
    8D942 _DAQmxCreateAIStrainGageChan@92
    8D942 __imp__DAQmxCreateAIStrainGageChan@92
    8D8C0 _DAQmxCreateAIRosetteStrainGageChan@96
    8D8C0 __imp__DAQmxCreateAIRosetteStrainGageChan@96
    8D2C6 _DAQmxCreateAIForceBridgeTwoPointLinChan@100
    8D2C6 __imp__DAQmxCreateAIForceBridgeTwoPointLinChan@100
    8D244 _DAQmxCreateAIForceBridgeTableChan@84
    8D244 __imp__DAQmxCreateAIForceBridgeTableChan@84
    8D1BE _DAQmxCreateAIForceBridgePolynomialChan@84
    8D1BE __imp__DAQmxCreateAIForceBridgePolynomialChan@84
    8D744 _DAQmxCreateAIPressureBridgeTwoPointLinChan@100
    8D744 __imp__DAQmxCreateAIPressureBridgeTwoPointLinChan@100
    8D6C0 _DAQmxCreateAIPressureBridgeTableChan@84
    8D6C0 __imp__DAQmxCreateAIPressureBridgeTableChan@84
    8D636 _DAQmxCreateAIPressureBridgePolynomialChan@84
    8D636 __imp__DAQmxCreateAIPressureBridgePolynomialChan@84
    8DCBA _DAQmxCreateAITorqueBridgeTwoPointLinChan@100
    8DCBA __imp__DAQmxCreateAITorqueBridgeTwoPointLinChan@100
    8DC38 _DAQmxCreateAITorqueBridgeTableChan@84
    8DC38 __imp__DAQmxCreateAITorqueBridgeTableChan@84
    8DBB0 _DAQmxCreateAITorqueBridgePolynomialChan@84
    8DBB0 __imp__DAQmxCreateAITorqueBridgePolynomialChan@84
    8CFD6 _DAQmxCreateAIBridgeChan@60
    8CFD6 __imp__DAQmxCreateAIBridgeChan@60
    8DE3A _DAQmxCreateAIVoltageChanWithExcit@60
    8DE3A __imp__DAQmxCreateAIVoltageChanWithExcit@60
    8D9BE _DAQmxCreateAITempBuiltInSensorChan@16
    8D9BE __imp__DAQmxCreateAITempBuiltInSensorChan@16
    8CF60 _DAQmxCreateAIAccelChan@64
    8CF60 __imp__DAQmxCreateAIAccelChan@64
    8DD44 _DAQmxCreateAIVelocityIEPEChan@64
    8DD44 __imp__DAQmxCreateAIVelocityIEPEChan@64
    8D34E _DAQmxCreateAIForceIEPEChan@64
    8D34E __imp__DAQmxCreateAIForceIEPEChan@64
    8D444 _DAQmxCreateAIMicrophoneChan@52
    8D444 __imp__DAQmxCreateAIMicrophoneChan@52
    8D546 _DAQmxCreateAIPosLVDTChan@72
    8D546 __imp__DAQmxCreateAIPosLVDTChan@72
    8D5BE _DAQmxCreateAIPosRVDTChan@72
    8D5BE __imp__DAQmxCreateAIPosRVDTChan@72
    8D4C0 _DAQmxCreateAIPosEddyCurrProxProbeChan@48
    8D4C0 __imp__DAQmxCreateAIPosEddyCurrProxProbeChan@48
    8D142 _DAQmxCreateAIDeviceTempChan@16
    8D142 __imp__DAQmxCreateAIDeviceTempChan@16
    8F36E _DAQmxCreateTEDSAIVoltageChan@40
    8F36E __imp__DAQmxCreateTEDSAIVoltageChan@40
    8EC82 _DAQmxCreateTEDSAICurrentChan@52
    8EC82 __imp__DAQmxCreateTEDSAICurrentChan@52
    8F170 _DAQmxCreateTEDSAIThrmcplChan@48
    8F170 __imp__DAQmxCreateTEDSAIThrmcplChan@48
    8EFF8 _DAQmxCreateTEDSAIRTDChan@48
    8EFF8 __imp__DAQmxCreateTEDSAIRTDChan@48
    8F1EC _DAQmxCreateTEDSAIThrmstrChanIex@48
    8F1EC __imp__DAQmxCreateTEDSAIThrmstrChanIex@48
    8F26C _DAQmxCreateTEDSAIThrmstrChanVex@56
    8F26C __imp__DAQmxCreateTEDSAIThrmstrChanVex@56
    8F070 _DAQmxCreateTEDSAIResistanceChan@52
    8F070 __imp__DAQmxCreateTEDSAIResistanceChan@52
    8F0F0 _DAQmxCreateTEDSAIStrainGageChan@64
    8F0F0 __imp__DAQmxCreateTEDSAIStrainGageChan@64
    8ECFE _DAQmxCreateTEDSAIForceBridgeChan@48
    8ECFE __imp__DAQmxCreateTEDSAIForceBridgeChan@48
    8EF74 _DAQmxCreateTEDSAIPressureBridgeChan@48
    8EF74 __imp__DAQmxCreateTEDSAIPressureBridgeChan@48
    8F2EC _DAQmxCreateTEDSAITorqueBridgeChan@48
    8F2EC __imp__DAQmxCreateTEDSAITorqueBridgeChan@48
    8EC06 _DAQmxCreateTEDSAIBridgeChan@48
    8EC06 __imp__DAQmxCreateTEDSAIBridgeChan@48
    8F3EA _DAQmxCreateTEDSAIVoltageChanWithExcit@52
    8F3EA __imp__DAQmxCreateTEDSAIVoltageChanWithExcit@52
    8EB8C _DAQmxCreateTEDSAIAccelChan@52
    8EB8C __imp__DAQmxCreateTEDSAIAccelChan@52
    8ED7E _DAQmxCreateTEDSAIForceIEPEChan@52
    8ED7E __imp__DAQmxCreateTEDSAIForceIEPEChan@52
    8EDFC _DAQmxCreateTEDSAIMicrophoneChan@44
    8EDFC __imp__DAQmxCreateTEDSAIMicrophoneChan@44
    8EE7C _DAQmxCreateTEDSAIPosLVDTChan@60
    8EE7C __imp__DAQmxCreateTEDSAIPosLVDTChan@60
    8EEF8 _DAQmxCreateTEDSAIPosRVDTChan@60
    8EEF8 __imp__DAQmxCreateTEDSAIPosRVDTChan@60
    8E028 _DAQmxCreateAOVoltageChan@36
    8E028 __imp__DAQmxCreateAOVoltageChan@36
    8DF38 _DAQmxCreateAOCurrentChan@36
    8DF38 __imp__DAQmxCreateAOCurrentChan@36
    8DFB0 _DAQmxCreateAOFuncGenChan@40
    8DFB0 __imp__DAQmxCreateAOFuncGenChan@40
    8E946 _DAQmxCreateDIChan@16
    8E946 __imp__DAQmxCreateDIChan@16
    8E9B8 _DAQmxCreateDOChan@16
    8E9B8 __imp__DAQmxCreateDOChan@16
    8E28E _DAQmxCreateCIFreqChan@56
    8E28E __imp__DAQmxCreateCIFreqChan@56
    8E47A _DAQmxCreateCIPeriodChan@56
    8E47A __imp__DAQmxCreateCIPeriodChan@56
    8E198 _DAQmxCreateCICountEdgesChan@24
    8E198 __imp__DAQmxCreateCICountEdgesChan@24
    8E214 _DAQmxCreateCIDutyCycleChan@36
    8E214 __imp__DAQmxCreateCIDutyCycleChan@36
    8E662 _DAQmxCreateCIPulseWidthChan@40
    8E662 __imp__DAQmxCreateCIPulseWidthChan@40
    8E6DE _DAQmxCreateCISemiPeriodChan@36
    8E6DE __imp__DAQmxCreateCISemiPeriodChan@36
    8E75A _DAQmxCreateCITwoEdgeSepChan@44
    8E75A __imp__DAQmxCreateCITwoEdgeSepChan@44
    8E4F2 _DAQmxCreateCIPulseChanFreq@32
    8E4F2 __imp__DAQmxCreateCIPulseChanFreq@32
    8E5E8 _DAQmxCreateCIPulseChanTime@32
    8E5E8 __imp__DAQmxCreateCIPulseChanTime@32
    8E56C _DAQmxCreateCIPulseChanTicks@32
    8E56C __imp__DAQmxCreateCIPulseChanTicks@32
    8E382 _DAQmxCreateCILinEncoderChan@56
    8E382 __imp__DAQmxCreateCILinEncoderChan@56
    8E0A0 _DAQmxCreateCIAngEncoderChan@52
    8E0A0 __imp__DAQmxCreateCIAngEncoderChan@52
    8E3FE _DAQmxCreateCILinVelocityChan@48
    8E3FE __imp__DAQmxCreateCILinVelocityChan@48
    8E11C _DAQmxCreateCIAngVelocityChan@44
    8E11C __imp__DAQmxCreateCIAngVelocityChan@44
    8E304 _DAQmxCreateCIGPSTimestampChan@24
    8E304 __imp__DAQmxCreateCIGPSTimestampChan@24
    8E7D6 _DAQmxCreateCOPulseChanFreq@44
    8E7D6 __imp__DAQmxCreateCOPulseChanFreq@44
    8E8CC _DAQmxCreateCOPulseChanTime@44
    8E8CC __imp__DAQmxCreateCOPulseChanTime@44
    8E850 _DAQmxCreateCOPulseChanTicks@32
    8E850 __imp__DAQmxCreateCOPulseChanTicks@32
    9277A _DAQmxGetAIChanCalCalDate@28
    9277A __imp__DAQmxGetAIChanCalCalDate@28
    D4052 _DAQmxSetAIChanCalCalDate@28
    D4052 __imp__DAQmxSetAIChanCalCalDate@28
    92960 _DAQmxGetAIChanCalExpDate@28
    92960 __imp__DAQmxGetAIChanCalExpDate@28
    D41BA _DAQmxSetAIChanCalExpDate@28
    D41BA __imp__DAQmxSetAIChanCalExpDate@28
    A6602 _DAQmxGetChanAttribute
    A6602 __imp__DAQmxGetChanAttribute
    E3E26 _DAQmxSetChanAttribute
    E3E26 __imp__DAQmxSetChanAttribute
    CB7DE _DAQmxResetChanAttribute@12
    CB7DE __imp__DAQmxResetChanAttribute@12
    8C8DE _DAQmxCfgSampClkTiming@32
    8C8DE __imp__DAQmxCfgSampClkTiming@32
    8C510 _DAQmxCfgHandshakingTiming@16
    8C510 __imp__DAQmxCfgHandshakingTiming@16
    8C09E _DAQmxCfgBurstHandshakingTimingImportClock@40
    8C09E __imp__DAQmxCfgBurstHandshakingTimingImportClock@40
    8BF86 _DAQmxCfgBurstHandshakingTimingExportClock@40
    8BF86 __imp__DAQmxCfgBurstHandshakingTimingExportClock@40
    8C1B6 _DAQmxCfgChangeDetectionTiming@24
    8C1B6 __imp__DAQmxCfgChangeDetectionTiming@24
    8C608 _DAQmxCfgImplicitTiming@16
    8C608 __imp__DAQmxCfgImplicitTiming@16
    8C7DE _DAQmxCfgPipelinedSampClkTiming@32
    8C7DE __imp__DAQmxCfgPipelinedSampClkTiming@32
    B67E0 _DAQmxGetTimingAttribute
    B67E0 __imp__DAQmxGetTimingAttribute
    EB444 _DAQmxSetTimingAttribute
    EB444 __imp__DAQmxSetTimingAttribute
    D202A _DAQmxResetTimingAttribute@8
    D202A __imp__DAQmxResetTimingAttribute@8
    B6854 _DAQmxGetTimingAttributeEx
    B6854 __imp__DAQmxGetTimingAttributeEx
    EB4B8 _DAQmxSetTimingAttributeEx
    EB4B8 __imp__DAQmxSetTimingAttributeEx
    D20A2 _DAQmxResetTimingAttributeEx@12
    D20A2 __imp__DAQmxResetTimingAttributeEx@12
    8FB62 _DAQmxDisableStartTrig@4
    8FB62 __imp__DAQmxDisableStartTrig@4
    8C3A2 _DAQmxCfgDigEdgeStartTrig@12
    8C3A2 __imp__DAQmxCfgDigEdgeStartTrig@12
    8BE16 _DAQmxCfgAnlgEdgeStartTrig@20
    8BE16 __imp__DAQmxCfgAnlgEdgeStartTrig@20
    8BF0A _DAQmxCfgAnlgWindowStartTrig@28
    8BF0A __imp__DAQmxCfgAnlgWindowStartTrig@28
    8C494 _DAQmxCfgDigPatternStartTrig@16
    8C494 __imp__DAQmxCfgDigPatternStartTrig@16
    8FAF0 _DAQmxDisableRefTrig@4
    8FAF0 __imp__DAQmxDisableRefTrig@4
    8C32C _DAQmxCfgDigEdgeRefTrig@16
    8C32C __imp__DAQmxCfgDigEdgeRefTrig@16
    8BD9E _DAQmxCfgAnlgEdgeRefTrig@24
    8BD9E __imp__DAQmxCfgAnlgEdgeRefTrig@24
    8BE90 _DAQmxCfgAnlgWindowRefTrig@32
    8BE90 __imp__DAQmxCfgAnlgWindowRefTrig@32
    8C41A _DAQmxCfgDigPatternRefTrig@20
    8C41A __imp__DAQmxCfgDigPatternRefTrig@20
    8FA7E _DAQmxDisableAdvTrig@4
    8FA7E __imp__DAQmxDisableAdvTrig@4
    8C2B6 _DAQmxCfgDigEdgeAdvTrig@12
    8C2B6 __imp__DAQmxCfgDigEdgeAdvTrig@12
    B68CA _DAQmxGetTrigAttribute
    B68CA __imp__DAQmxGetTrigAttribute
    EB52E _DAQmxSetTrigAttribute
    EB52E __imp__DAQmxSetTrigAttribute
    D211E _DAQmxResetTrigAttribute@8
    D211E __imp__DAQmxResetTrigAttribute@8
    D2C68 _DAQmxSendSoftwareTrigger@8
    D2C68 __imp__DAQmxSendSoftwareTrigger@8
    B9974 _DAQmxReadAnalogF64@36
    B9974 __imp__DAQmxReadAnalogF64@36
    B99E6 _DAQmxReadAnalogScalarF64@20
    B99E6 __imp__DAQmxReadAnalogScalarF64@20
    B9A5E _DAQmxReadBinaryI16@36
    B9A5E __imp__DAQmxReadBinaryI16@36
    B9B42 _DAQmxReadBinaryU16@36
    B9B42 __imp__DAQmxReadBinaryU16@36
    B9AD0 _DAQmxReadBinaryI32@36
    B9AD0 __imp__DAQmxReadBinaryI32@36
    B9BB4 _DAQmxReadBinaryU32@36
    B9BB4 __imp__DAQmxReadBinaryU32@36
    BA37C _DAQmxReadDigitalU8@36
    BA37C __imp__DAQmxReadDigitalU8@36
    BA294 _DAQmxReadDigitalU16@36
    BA294 __imp__DAQmxReadDigitalU16@36
    BA308 _DAQmxReadDigitalU32@36
    BA308 __imp__DAQmxReadDigitalU32@36
    BA21A _DAQmxReadDigitalScalarU32@20
    BA21A __imp__DAQmxReadDigitalScalarU32@20
    BA1A4 _DAQmxReadDigitalLines@40
    BA1A4 __imp__DAQmxReadDigitalLines@40
    B9C26 _DAQmxReadCounterF64@32
    B9C26 __imp__DAQmxReadCounterF64@32
    B9E04 _DAQmxReadCounterU32@32
    B9E04 __imp__DAQmxReadCounterU32@32
    B9C9A _DAQmxReadCounterF64Ex@36
    B9C9A __imp__DAQmxReadCounterF64Ex@36
    B9E78 _DAQmxReadCounterU32Ex@36
    B9E78 __imp__DAQmxReadCounterU32Ex@36
    B9D10 _DAQmxReadCounterScalarF64@20
    B9D10 __imp__DAQmxReadCounterScalarF64@20
    B9D8A _DAQmxReadCounterScalarU32@20
    B9D8A __imp__DAQmxReadCounterScalarU32@20
    B9EEE _DAQmxReadCtrFreq@40
    B9EEE __imp__DAQmxReadCtrFreq@40
    BA0BE _DAQmxReadCtrTime@40
    BA0BE __imp__DAQmxReadCtrTime@40
    B9FD4 _DAQmxReadCtrTicks@40
    B9FD4 __imp__DAQmxReadCtrTicks@40
    B9F5E _DAQmxReadCtrFreqScalar@24
    B9F5E __imp__DAQmxReadCtrFreqScalar@24
    BA12E _DAQmxReadCtrTimeScalar@24
    BA12E __imp__DAQmxReadCtrTimeScalar@24
    BA046 _DAQmxReadCtrTicksScalar@24
    BA046 __imp__DAQmxReadCtrTicksScalar@24
    BA3EE _DAQmxReadRaw@36
    BA3EE __imp__DAQmxReadRaw@36
    AF130 _DAQmxGetNthTaskReadChannel@16
    AF130 __imp__DAQmxGetNthTaskReadChannel@16
    B100A _DAQmxGetReadAttribute
    B100A __imp__DAQmxGetReadAttribute
    E8F48 _DAQmxSetReadAttribute
    E8F48 __imp__DAQmxSetReadAttribute
    D066A _DAQmxResetReadAttribute@8
    D066A __imp__DAQmxResetReadAttribute@8
    8CD0E _DAQmxConfigureLogging@20
    8CD0E __imp__DAQmxConfigureLogging@20
    ECBE0 _DAQmxStartNewFile@8
    ECBE0 __imp__DAQmxStartNewFile@8
    ED70E _DAQmxWriteAnalogF64@36
    ED70E __imp__DAQmxWriteAnalogF64@36
    ED782 _DAQmxWriteAnalogScalarF64@28
    ED782 __imp__DAQmxWriteAnalogScalarF64@28
    ED7FC _DAQmxWriteBinaryI16@36
    ED7FC __imp__DAQmxWriteBinaryI16@36
    ED8E4 _DAQmxWriteBinaryU16@36
    ED8E4 __imp__DAQmxWriteBinaryU16@36
    ED870 _DAQmxWriteBinaryI32@36
    ED870 __imp__DAQmxWriteBinaryI32@36
    ED958 _DAQmxWriteBinaryU32@36
    ED958 __imp__DAQmxWriteBinaryU32@36
    EDE62 _DAQmxWriteDigitalU8@36
    EDE62 __imp__DAQmxWriteDigitalU8@36
    EDD7A _DAQmxWriteDigitalU16@36
    EDD7A __imp__DAQmxWriteDigitalU16@36
    EDDEE _DAQmxWriteDigitalU32@36
    EDDEE __imp__DAQmxWriteDigitalU32@36
    EDD00 _DAQmxWriteDigitalScalarU32@24
    EDD00 __imp__DAQmxWriteDigitalScalarU32@24
    EDC8A _DAQmxWriteDigitalLines@36
    EDC8A __imp__DAQmxWriteDigitalLines@36
    ED9CC _DAQmxWriteCtrFreq@40
    ED9CC __imp__DAQmxWriteCtrFreq@40
    EDA3E _DAQmxWriteCtrFreqScalar@36
    EDA3E __imp__DAQmxWriteCtrFreqScalar@36
    EDBA0 _DAQmxWriteCtrTime@40
    EDBA0 __imp__DAQmxWriteCtrTime@40
    EDC12 _DAQmxWriteCtrTimeScalar@36
    EDC12 __imp__DAQmxWriteCtrTimeScalar@36
    EDAB6 _DAQmxWriteCtrTicks@40
    EDAB6 __imp__DAQmxWriteCtrTicks@40
    EDB28 _DAQmxWriteCtrTicksScalar@28
    EDB28 __imp__DAQmxWriteCtrTicksScalar@28
    EDED6 _DAQmxWriteRaw@32
    EDED6 __imp__DAQmxWriteRaw@32
    B7046 _DAQmxGetWriteAttribute
    B7046 __imp__DAQmxGetWriteAttribute
    EB9FE _DAQmxSetWriteAttribute
    EB9FE __imp__DAQmxSetWriteAttribute
    D2606 _DAQmxResetWriteAttribute@8
    D2606 __imp__DAQmxResetWriteAttribute@8
    8FD42 _DAQmxExportSignal@12
    8FD42 __imp__DAQmxExportSignal@12
    AE194 _DAQmxGetExportedSignalAttribute
    AE194 __imp__DAQmxGetExportedSignalAttribute
    E8108 _DAQmxSetExportedSignalAttribute
    E8108 __imp__DAQmxSetExportedSignalAttribute
    CF974 _DAQmxResetExportedSignalAttribute@8
    CF974 __imp__DAQmxResetExportedSignalAttribute@8
    8EA2A _DAQmxCreateLinScale@28
    8EA2A __imp__DAQmxCreateLinScale@28
    8EA9E _DAQmxCreateMapScale@44
    8EA9E __imp__DAQmxCreateMapScale@44
    8EB12 _DAQmxCreatePolynomialScale@28
    8EB12 __imp__DAQmxCreatePolynomialScale@28
    8F470 _DAQmxCreateTableScale@28
    8F470 __imp__DAQmxCreateTableScale@28
    8BD20 _DAQmxCalculateReversePolyCoeff@36
    8BD20 __imp__DAQmxCalculateReversePolyCoeff@36
    B3E2C _DAQmxGetScaleAttribute
    B3E2C __imp__DAQmxGetScaleAttribute
    EA4E6 _DAQmxSetScaleAttribute
    EA4E6 __imp__DAQmxSetScaleAttribute
    8C6F8 _DAQmxCfgInputBuffer@8
    8C6F8 __imp__DAQmxCfgInputBuffer@8
    8C76A _DAQmxCfgOutputBuffer@8
    8C76A __imp__DAQmxCfgOutputBuffer@8
    9C14E _DAQmxGetBufferAttribute
    9C14E __imp__DAQmxGetBufferAttribute
    DBA94 _DAQmxSetBufferAttribute
    DBA94 __imp__DAQmxSetBufferAttribute
    C34B4 _DAQmxResetBufferAttribute@8
    C34B4 __imp__DAQmxResetBufferAttribute@8
    ECE88 _DAQmxSwitchCreateScanList@8
    ECE88 __imp__DAQmxSwitchCreateScanList@8
    ECDA0 _DAQmxSwitchConnect@12
    ECDA0 __imp__DAQmxSwitchConnect@12
    ECE12 _DAQmxSwitchConnectMulti@8
    ECE12 __imp__DAQmxSwitchConnectMulti@8
    ECF00 _DAQmxSwitchDisconnect@12
    ECF00 __imp__DAQmxSwitchDisconnect@12
    ECFEE _DAQmxSwitchDisconnectMulti@8
    ECFEE __imp__DAQmxSwitchDisconnectMulti@8
    ECF76 _DAQmxSwitchDisconnectAll@8
    ECF76 __imp__DAQmxSwitchDisconnectAll@8
    ED344 _DAQmxSwitchSetTopologyAndReset@8
    ED344 __imp__DAQmxSwitchSetTopologyAndReset@8
    ED068 _DAQmxSwitchFindPath@20
    ED068 __imp__DAQmxSwitchFindPath@20
    ED2D0 _DAQmxSwitchOpenRelays@8
    ED2D0 __imp__DAQmxSwitchOpenRelays@8
    ECD2A _DAQmxSwitchCloseRelays@8
    ECD2A __imp__DAQmxSwitchCloseRelays@8
    ED1D6 _DAQmxSwitchGetSingleRelayCount@8
    ED1D6 __imp__DAQmxSwitchGetSingleRelayCount@8
    ED0DC _DAQmxSwitchGetMultiRelayCount@16
    ED0DC __imp__DAQmxSwitchGetMultiRelayCount@16
    ED254 _DAQmxSwitchGetSingleRelayPos@8
    ED254 __imp__DAQmxSwitchGetSingleRelayPos@8
    ED15A _DAQmxSwitchGetMultiRelayPos@16
    ED15A __imp__DAQmxSwitchGetMultiRelayPos@16
    ED3C2 _DAQmxSwitchWaitForSettling@4
    ED3C2 __imp__DAQmxSwitchWaitForSettling@4
    B4B14 _DAQmxGetSwitchChanAttribute
    B4B14 __imp__DAQmxGetSwitchChanAttribute
    EADFA _DAQmxSetSwitchChanAttribute
    EADFA __imp__DAQmxSetSwitchChanAttribute
    B59E6 _DAQmxGetSwitchDeviceAttribute
    B59E6 __imp__DAQmxGetSwitchDeviceAttribute
    EB076 _DAQmxSetSwitchDeviceAttribute
    EB076 __imp__DAQmxSetSwitchDeviceAttribute
    B5A60 _DAQmxGetSwitchScanAttribute
    B5A60 __imp__DAQmxGetSwitchScanAttribute
    EB0F0 _DAQmxSetSwitchScanAttribute
    EB0F0 __imp__DAQmxSetSwitchScanAttribute
    D1CC8 _DAQmxResetSwitchScanAttribute@8
    D1CC8 __imp__DAQmxResetSwitchScanAttribute@8
    8CE76 _DAQmxConnectTerms@12
    8CE76 __imp__DAQmxConnectTerms@12
    8FC58 _DAQmxDisconnectTerms@8
    8FC58 __imp__DAQmxDisconnectTerms@8
    ED4AC _DAQmxTristateOutputTerm@4
    ED4AC __imp__DAQmxTristateOutputTerm@4
    CCBB4 _DAQmxResetDevice@4
    CCBB4 __imp__DAQmxResetDevice@4
    D2BF6 _DAQmxSelfTestDevice@4
    D2BF6 __imp__DAQmxSelfTestDevice@4
    AAB78 _DAQmxGetDeviceAttribute
    AAB78 __imp__DAQmxGetDeviceAttribute
    8F5CA _DAQmxCreateWatchdogTimerTask
    8F5CA __imp__DAQmxCreateWatchdogTimerTask
    8F644 _DAQmxCreateWatchdogTimerTaskEx@20
    8F644 __imp__DAQmxCreateWatchdogTimerTaskEx@20
    8CEE8 _DAQmxControlWatchdogTask@8
    8CEE8 __imp__DAQmxControlWatchdogTask@8
    8C9CE _DAQmxCfgWatchdogAOExpirStates@20
    8C9CE __imp__DAQmxCfgWatchdogAOExpirStates@20
    8CA4C _DAQmxCfgWatchdogCOExpirStates@16
    8CA4C __imp__DAQmxCfgWatchdogCOExpirStates@16
    8CACA _DAQmxCfgWatchdogDOExpirStates@16
    8CACA __imp__DAQmxCfgWatchdogDOExpirStates@16
    B6AAA _DAQmxGetWatchdogAttribute
    B6AAA __imp__DAQmxGetWatchdogAttribute
    EB70E _DAQmxSetWatchdogAttribute
    EB70E __imp__DAQmxSetWatchdogAttribute
    D2308 _DAQmxResetWatchdogAttribute@12
    D2308 __imp__DAQmxResetWatchdogAttribute@12
    D2B8A _DAQmxSelfCal@4
    D2B8A __imp__DAQmxSelfCal@4
    B95FA _DAQmxPerformBridgeOffsetNullingCal@8
    B95FA __imp__DAQmxPerformBridgeOffsetNullingCal@8
    B967C _DAQmxPerformBridgeOffsetNullingCalEx@12
    B967C __imp__DAQmxPerformBridgeOffsetNullingCalEx@12
    B98EC _DAQmxPerformThrmcplLeadOffsetNullingCal@12
    B98EC __imp__DAQmxPerformThrmcplLeadOffsetNullingCal@12
    B97F6 _DAQmxPerformStrainShuntCal@24
    B97F6 __imp__DAQmxPerformStrainShuntCal@24
    B9870 _DAQmxPerformStrainShuntCalEx@32
    B9870 __imp__DAQmxPerformStrainShuntCalEx@32
    B9700 _DAQmxPerformBridgeShuntCal@32
    B9700 __imp__DAQmxPerformBridgeShuntCal@32
    B977A _DAQmxPerformBridgeShuntCalEx@40
    B977A __imp__DAQmxPerformBridgeShuntCalEx@40
    B4542 _DAQmxGetSelfCalLastDateAndTime@24
    B4542 __imp__DAQmxGetSelfCalLastDateAndTime@24
    AE430 _DAQmxGetExtCalLastDateAndTime@24
    AE430 __imp__DAQmxGetExtCalLastDateAndTime@24
    D28D0 _DAQmxRestoreLastExtCalConst@4
    D28D0 __imp__DAQmxRestoreLastExtCalConst@4
    8FCCC _DAQmxESeriesCalAdjust@12
    8FCCC __imp__DAQmxESeriesCalAdjust@12
    B9584 _DAQmxMSeriesCalAdjust@12
    B9584 __imp__DAQmxMSeriesCalAdjust@12
    D29C4 _DAQmxSSeriesCalAdjust@12
    D29C4 __imp__DAQmxSSeriesCalAdjust@12
    D294A _DAQmxSCBaseboardCalAdjust@12
    D294A __imp__DAQmxSCBaseboardCalAdjust@12
    893E2 _DAQmxAOSeriesCalAdjust@12
    893E2 __imp__DAQmxAOSeriesCalAdjust@12
    EE036 _DAQmxXSeriesCalAdjust@12
    EE036 __imp__DAQmxXSeriesCalAdjust@12
    8F98E _DAQmxDeviceSupportsCal@8
    8F98E __imp__DAQmxDeviceSupportsCal@8
    A638E _DAQmxGetCalInfoAttribute
    A638E __imp__DAQmxGetCalInfoAttribute
    E3D36 _DAQmxSetCalInfoAttribute
    E3D36 __imp__DAQmxSetCalInfoAttribute
    B80D8 _DAQmxInitExtCal@12
    B80D8 __imp__DAQmxInitExtCal@12
    8CC9E _DAQmxCloseExtCal@8
    8CC9E __imp__DAQmxCloseExtCal@8
    8CB48 _DAQmxChangeExtCalPassword@12
    8CB48 __imp__DAQmxChangeExtCalPassword@12
    8F742 _DAQmxDSASetCalTemp@12
    8F742 __imp__DAQmxDSASetCalTemp@12
    8B844 _DAQmxAdjustDSAAICal@12
    8B844 __imp__DAQmxAdjustDSAAICal@12
    8B8B8 _DAQmxAdjustDSAAICalEx@16
    8B8B8 __imp__DAQmxAdjustDSAAICalEx@16
    8B92E _DAQmxAdjustDSAAICalWithGainAndCoupling@24
    8B92E __imp__DAQmxAdjustDSAAICalWithGainAndCoupling@24
    8B9B4 _DAQmxAdjustDSAAOCal@48
    8B9B4 __imp__DAQmxAdjustDSAAOCal@48
    8A408 _DAQmxAdjust4610Cal@24
    8A408 __imp__DAQmxAdjust4610Cal@24
    8BAA4 _DAQmxAdjustDSATimebaseCal@12
    8BAA4 __imp__DAQmxAdjustDSATimebaseCal@12
    8BA28 _DAQmxAdjustDSAAOTimebaseCal@16
    8BA28 __imp__DAQmxAdjustDSAAOTimebaseCal@16
    ECB66 _DAQmxSetupDSAAOTimebaseCal@8
    ECB66 __imp__DAQmxSetupDSAAOTimebaseCal@8
    9009C _DAQmxGet4463AdjustPoints@24
    9009C __imp__DAQmxGet4463AdjustPoints@24
    8A396 _DAQmxAdjust4463Cal@16
    8A396 __imp__DAQmxAdjust4463Cal@16
    EC6F2 _DAQmxSetup4463Cal@28
    EC6F2 __imp__DAQmxSetup4463Cal@28
    8BB1E _DAQmxAdjustTIOTimebaseCal@12
    8BB1E __imp__DAQmxAdjustTIOTimebaseCal@12
    89D5A _DAQmxAdjust4204Cal@28
    89D5A __imp__DAQmxAdjust4204Cal@28
    89DCC _DAQmxAdjust4220Cal@24
    89DCC __imp__DAQmxAdjust4220Cal@24
    89E3E _DAQmxAdjust4224Cal@24
    89E3E __imp__DAQmxAdjust4224Cal@24
    89EB0 _DAQmxAdjust4225Cal@24
    89EB0 __imp__DAQmxAdjust4225Cal@24
    EC680 _DAQmxSetup433xCal@16
    EC680 __imp__DAQmxSetup433xCal@16
    8A240 _DAQmxAdjust433xCal@24
    8A240 __imp__DAQmxAdjust433xCal@24
    EC60E _DAQmxSetup4339Cal@36
    EC60E __imp__DAQmxSetup4339Cal@36
    8A1CE _DAQmxAdjust4339Cal@12
    8A1CE __imp__DAQmxAdjust4339Cal@12
    90020 _DAQmxGet4339CalAdjustPoints@12
    90020 __imp__DAQmxGet4339CalAdjustPoints@12
    89F22 _DAQmxAdjust4300Cal@12
    89F22 __imp__DAQmxAdjust4300Cal@12
    EC3D4 _DAQmxSetup4302Cal@24
    EC3D4 __imp__DAQmxSetup4302Cal@24
    8FDB4 _DAQmxGet4302CalAdjustPoints@12
    8FDB4 __imp__DAQmxGet4302CalAdjustPoints@12
    89F94 _DAQmxAdjust4302Cal@12
    89F94 __imp__DAQmxAdjust4302Cal@12
    EC446 _DAQmxSetup4303Cal@24
    EC446 __imp__DAQmxSetup4303Cal@24
    8FE30 _DAQmxGet4303CalAdjustPoints@12
    8FE30 __imp__DAQmxGet4303CalAdjustPoints@12
    8A006 _DAQmxAdjust4303Cal@12
    8A006 __imp__DAQmxAdjust4303Cal@12
    EC4B8 _DAQmxSetup4304Cal@24
    EC4B8 __imp__DAQmxSetup4304Cal@24
    8FEAC _DAQmxGet4304CalAdjustPoints@12
    8FEAC __imp__DAQmxGet4304CalAdjustPoints@12
    8A078 _DAQmxAdjust4304Cal@12
    8A078 __imp__DAQmxAdjust4304Cal@12
    EC52A _DAQmxSetup4305Cal@24
    EC52A __imp__DAQmxSetup4305Cal@24
    8FF28 _DAQmxGet4305CalAdjustPoints@12
    8FF28 __imp__DAQmxGet4305CalAdjustPoints@12
    8A0EA _DAQmxAdjust4305Cal@12
    8A0EA __imp__DAQmxAdjust4305Cal@12
    8A2B2 _DAQmxAdjust4353Cal@16
    8A2B2 __imp__DAQmxAdjust4353Cal@16
    8A324 _DAQmxAdjust4357Cal@16
    8A324 __imp__DAQmxAdjust4357Cal@16
    EC59C _DAQmxSetup4322Cal@20
    EC59C __imp__DAQmxSetup4322Cal@20
    8A15C _DAQmxAdjust4322Cal@16
    8A15C __imp__DAQmxAdjust4322Cal@16
    8FFA4 _DAQmxGet4322CalAdjustPoints@16
    8FFA4 __imp__DAQmxGet4322CalAdjustPoints@16
    8CDF6 _DAQmxConnectSCExpressCalAccChans@12
    8CDF6 __imp__DAQmxConnectSCExpressCalAccChans@12
    8FBD6 _DAQmxDisconnectSCExpressCalAccChans@4
    8FBD6 __imp__DAQmxDisconnectSCExpressCalAccChans@4
    B0E60 _DAQmxGetPossibleSCExpressCalAccConnections@16
    B0E60 __imp__DAQmxGetPossibleSCExpressCalAccConnections@16
    E9932 _DAQmxSetSCExpressCalAccBridgeOutput@12
    E9932 __imp__DAQmxSetSCExpressCalAccBridgeOutput@12
    90114 _DAQmxGet9201CalAdjustPoints@12
    90114 __imp__DAQmxGet9201CalAdjustPoints@12
    8BCAA _DAQmxCSeriesSetCalTemp@12
    8BCAA __imp__DAQmxCSeriesSetCalTemp@12
    8A47A _DAQmxAdjust9201Cal@16
    8A47A __imp__DAQmxAdjust9201Cal@16
    90190 _DAQmxGet9203CalAdjustPoints@28
    90190 __imp__DAQmxGet9203CalAdjustPoints@28
    8A4EC _DAQmxAdjust9203GainCal@32
    8A4EC __imp__DAQmxAdjust9203GainCal@32
    8A562 _DAQmxAdjust9203OffsetCal@24
    8A562 __imp__DAQmxAdjust9203OffsetCal@24
    8A5DA _DAQmxAdjust9205Cal@12
    8A5DA __imp__DAQmxAdjust9205Cal@12
    8A64C _DAQmxAdjust9206Cal@12
    8A64C __imp__DAQmxAdjust9206Cal@12
    9020C _DAQmxGet9207CalAdjustPoints@16
    9020C __imp__DAQmxGet9207CalAdjustPoints@16
    8A6BE _DAQmxAdjust9207GainCal@16
    8A6BE __imp__DAQmxAdjust9207GainCal@16
    8A734 _DAQmxAdjust9207OffsetCal@8
    8A734 __imp__DAQmxAdjust9207OffsetCal@8
    90288 _DAQmxGet9208CalAdjustPoints@12
    90288 __imp__DAQmxGet9208CalAdjustPoints@12
    8A7AC _DAQmxAdjust9208GainCal@16
    8A7AC __imp__DAQmxAdjust9208GainCal@16
    8A822 _DAQmxAdjust9208OffsetCal@8
    8A822 __imp__DAQmxAdjust9208OffsetCal@8
    90304 _DAQmxGet9209CalAdjustPoints@12
    90304 __imp__DAQmxGet9209CalAdjustPoints@12
    8A89A _DAQmxAdjust9209GainCal@20
    8A89A __imp__DAQmxAdjust9209GainCal@20
    8A910 _DAQmxAdjust9209OffsetCal@8
    8A910 __imp__DAQmxAdjust9209OffsetCal@8
    8A988 _DAQmxAdjust9211Cal@16
    8A988 __imp__DAQmxAdjust9211Cal@16
    90380 _DAQmxGet9212CalAdjustPoints@16
    90380 __imp__DAQmxGet9212CalAdjustPoints@16
    8A9FA _DAQmxAdjust9212Cal@16
    8A9FA __imp__DAQmxAdjust9212Cal@16
    903FC _DAQmxGet9213CalAdjustPoints@28
    903FC __imp__DAQmxGet9213CalAdjustPoints@28
    8AA6C _DAQmxAdjust9213Cal@32
    8AA6C __imp__DAQmxAdjust9213Cal@32
    90478 _DAQmxGet9214CalAdjustPoints@16
    90478 __imp__DAQmxGet9214CalAdjustPoints@16
    8AADE _DAQmxAdjust9214Cal@16
    8AADE __imp__DAQmxAdjust9214Cal@16
    904F4 _DAQmxGet9215CalAdjustPoints@12
    904F4 __imp__DAQmxGet9215CalAdjustPoints@12
    8AB50 _DAQmxAdjust9215Cal@16
    8AB50 __imp__DAQmxAdjust9215Cal@16
    90570 _DAQmxGet9216CalAdjustPoints@12
    90570 __imp__DAQmxGet9216CalAdjustPoints@12
    8ABC2 _DAQmxAdjust9216Cal@16
    8ABC2 __imp__DAQmxAdjust9216Cal@16
    905EC _DAQmxGet9217CalAdjustPoints@12
    905EC __imp__DAQmxGet9217CalAdjustPoints@12
    8AC34 _DAQmxAdjust9217Cal@16
    8AC34 __imp__DAQmxAdjust9217Cal@16
    EC764 _DAQmxSetup9218Cal@28
    EC764 __imp__DAQmxSetup9218Cal@28
    90668 _DAQmxGet9218CalAdjustPoints@12
    90668 __imp__DAQmxGet9218CalAdjustPoints@12
    8ACA6 _DAQmxAdjust9218Cal@16
    8ACA6 __imp__DAQmxAdjust9218Cal@16
    EC7D6 _DAQmxSetup9219Cal@32
    EC7D6 __imp__DAQmxSetup9219Cal@32
    906E4 _DAQmxGet9219CalAdjustPoints@12
    906E4 __imp__DAQmxGet9219CalAdjustPoints@12
    8AD18 _DAQmxAdjust9219Cal@16
    8AD18 __imp__DAQmxAdjust9219Cal@16
    90760 _DAQmxGet9220CalAdjustPoints@12
    90760 __imp__DAQmxGet9220CalAdjustPoints@12
    8AD8A _DAQmxAdjust9220Cal@16
    8AD8A __imp__DAQmxAdjust9220Cal@16
    907DC _DAQmxGet9221CalAdjustPoints@12
    907DC __imp__DAQmxGet9221CalAdjustPoints@12
    8ADFC _DAQmxAdjust9221Cal@16
    8ADFC __imp__DAQmxAdjust9221Cal@16
    90858 _DAQmxGet9222CalAdjustPoints@12
    90858 __imp__DAQmxGet9222CalAdjustPoints@12
    8AE6E _DAQmxAdjust9222Cal@16
    8AE6E __imp__DAQmxAdjust9222Cal@16
    908D4 _DAQmxGet9223CalAdjustPoints@12
    908D4 __imp__DAQmxGet9223CalAdjustPoints@12
    8AEE0 _DAQmxAdjust9223Cal@16
    8AEE0 __imp__DAQmxAdjust9223Cal@16
    90950 _DAQmxGet9225CalAdjustPoints@12
    90950 __imp__DAQmxGet9225CalAdjustPoints@12
    8AF52 _DAQmxAdjust9225Cal@16
    8AF52 __imp__DAQmxAdjust9225Cal@16
    909CC _DAQmxGet9226CalAdjustPoints@12
    909CC __imp__DAQmxGet9226CalAdjustPoints@12
    8AFC4 _DAQmxAdjust9226Cal@16
    8AFC4 __imp__DAQmxAdjust9226Cal@16
    90A48 _DAQmxGet9227CalAdjustPoints@12
    90A48 __imp__DAQmxGet9227CalAdjustPoints@12
    8B036 _DAQmxAdjust9227Cal@16
    8B036 __imp__DAQmxAdjust9227Cal@16
    90AC4 _DAQmxGet9229CalAdjustPoints@12
    90AC4 __imp__DAQmxGet9229CalAdjustPoints@12
    8B0A8 _DAQmxAdjust9229Cal@16
    8B0A8 __imp__DAQmxAdjust9229Cal@16
    90B40 _DAQmxGet9230CalAdjustPoints@12
    90B40 __imp__DAQmxGet9230CalAdjustPoints@12
    8B11A _DAQmxAdjust9230Cal@16
    8B11A __imp__DAQmxAdjust9230Cal@16
    90BBC _DAQmxGet9232CalAdjustPoints@12
    90BBC __imp__DAQmxGet9232CalAdjustPoints@12
    8B18C _DAQmxAdjust9232Cal@16
    8B18C __imp__DAQmxAdjust9232Cal@16
    90C38 _DAQmxGet9234CalAdjustPoints@12
    90C38 __imp__DAQmxGet9234CalAdjustPoints@12
    8B1FE _DAQmxAdjust9234GainCal@16
    8B1FE __imp__DAQmxAdjust9234GainCal@16
    8B274 _DAQmxAdjust9234OffsetCal@8
    8B274 __imp__DAQmxAdjust9234OffsetCal@8
    90CB4 _DAQmxGet9238CalAdjustPoints@12
    90CB4 __imp__DAQmxGet9238CalAdjustPoints@12
    8B2EC _DAQmxAdjust9238Cal@16
    8B2EC __imp__DAQmxAdjust9238Cal@16
    90D30 _DAQmxGet9239CalAdjustPoints@12
    90D30 __imp__DAQmxGet9239CalAdjustPoints@12
    8B35E _DAQmxAdjust9239Cal@16
    8B35E __imp__DAQmxAdjust9239Cal@16
    90DAC _DAQmxGet9242CalAdjustPoints@12
    90DAC __imp__DAQmxGet9242CalAdjustPoints@12
    EC848 _DAQmxSetup9242Cal@16
    EC848 __imp__DAQmxSetup9242Cal@16
    8B3D0 _DAQmxAdjust9242Cal@16
    8B3D0 __imp__DAQmxAdjust9242Cal@16
    90E28 _DAQmxGet9244CalAdjustPoints@12
    90E28 __imp__DAQmxGet9244CalAdjustPoints@12
    EC8BA _DAQmxSetup9244Cal@16
    EC8BA __imp__DAQmxSetup9244Cal@16
    8B442 _DAQmxAdjust9244Cal@16
    8B442 __imp__DAQmxAdjust9244Cal@16
    90EA4 _DAQmxGet9246CalAdjustPoints@12
    90EA4 __imp__DAQmxGet9246CalAdjustPoints@12
    8B4B4 _DAQmxAdjust9246Cal@16
    8B4B4 __imp__DAQmxAdjust9246Cal@16
    90F20 _DAQmxGet9247CalAdjustPoints@12
    90F20 __imp__DAQmxGet9247CalAdjustPoints@12
    8B526 _DAQmxAdjust9247Cal@16
    8B526 __imp__DAQmxAdjust9247Cal@16
    90F9C _DAQmxGet9251CalAdjustPoints@12
    90F9C __imp__DAQmxGet9251CalAdjustPoints@12
    8B598 _DAQmxAdjust9251Cal@16
    8B598 __imp__DAQmxAdjust9251Cal@16
    91018 _DAQmxGet9260CalAdjustPoints@12
    91018 __imp__DAQmxGet9260CalAdjustPoints@12
    EC92C _DAQmxSetup9260Cal@12
    EC92C __imp__DAQmxSetup9260Cal@12
    8B60A _DAQmxAdjust9260Cal@16
    8B60A __imp__DAQmxAdjust9260Cal@16
    91094 _DAQmxGet9263CalAdjustPoints@12
    91094 __imp__DAQmxGet9263CalAdjustPoints@12
    EC99E _DAQmxSetup9263Cal@12
    EC99E __imp__DAQmxSetup9263Cal@12
    8B67C _DAQmxAdjust9263Cal@16
    8B67C __imp__DAQmxAdjust9263Cal@16
    91110 _DAQmxGet9264CalAdjustPoints@12
    91110 __imp__DAQmxGet9264CalAdjustPoints@12
    ECA10 _DAQmxSetup9264Cal@12
    ECA10 __imp__DAQmxSetup9264Cal@12
    8B6EE _DAQmxAdjust9264Cal@16
    8B6EE __imp__DAQmxAdjust9264Cal@16
    9118C _DAQmxGet9265CalAdjustPoints@12
    9118C __imp__DAQmxGet9265CalAdjustPoints@12
    ECA82 _DAQmxSetup9265Cal@12
    ECA82 __imp__DAQmxSetup9265Cal@12
    8B760 _DAQmxAdjust9265Cal@16
    8B760 __imp__DAQmxAdjust9265Cal@16
    91208 _DAQmxGet9269CalAdjustPoints@12
    91208 __imp__DAQmxGet9269CalAdjustPoints@12
    ECAF4 _DAQmxSetup9269Cal@12
    ECAF4 __imp__DAQmxSetup9269Cal@12
    8B7D2 _DAQmxAdjust9269Cal@16
    8B7D2 __imp__DAQmxAdjust9269Cal@16
    EBCBA _DAQmxSetup1102Cal@16
    EBCBA __imp__DAQmxSetup1102Cal@16
    895C0 _DAQmxAdjust1102Cal@20
    895C0 __imp__DAQmxAdjust1102Cal@20
    EBD2C _DAQmxSetup1104Cal@8
    EBD2C __imp__DAQmxSetup1104Cal@8
    89632 _DAQmxAdjust1104Cal@20
    89632 __imp__DAQmxAdjust1104Cal@20
    EBD9C _DAQmxSetup1112Cal@8
    EBD9C __imp__DAQmxSetup1112Cal@8
    896A4 _DAQmxAdjust1112Cal@20
    896A4 __imp__DAQmxAdjust1112Cal@20
    EBE0C _DAQmxSetup1122Cal@16
    EBE0C __imp__DAQmxSetup1122Cal@16
    89716 _DAQmxAdjust1122Cal@20
    89716 __imp__DAQmxAdjust1122Cal@20
    EBE7E _DAQmxSetup1124Cal@16
    EBE7E __imp__DAQmxSetup1124Cal@16
    89788 _DAQmxAdjust1124Cal@12
    89788 __imp__DAQmxAdjust1124Cal@12
    EBEF0 _DAQmxSetup1125Cal@16
    EBEF0 __imp__DAQmxSetup1125Cal@16
    897FA _DAQmxAdjust1125Cal@20
    897FA __imp__DAQmxAdjust1125Cal@20
    EBF62 _DAQmxSetup1126Cal@16
    EBF62 __imp__DAQmxSetup1126Cal@16
    8986C _DAQmxAdjust1126Cal@20
    8986C __imp__DAQmxAdjust1126Cal@20
    EBFD4 _DAQmxSetup1141Cal@16
    EBFD4 __imp__DAQmxSetup1141Cal@16
    898DE _DAQmxAdjust1141Cal@20
    898DE __imp__DAQmxAdjust1141Cal@20
    EC046 _DAQmxSetup1142Cal@16
    EC046 __imp__DAQmxSetup1142Cal@16
    89950 _DAQmxAdjust1142Cal@20
    89950 __imp__DAQmxAdjust1142Cal@20
    EC0B8 _DAQmxSetup1143Cal@16
    EC0B8 __imp__DAQmxSetup1143Cal@16
    899C2 _DAQmxAdjust1143Cal@20
    899C2 __imp__DAQmxAdjust1143Cal@20
    EC12A _DAQmxSetup1502Cal@16
    EC12A __imp__DAQmxSetup1502Cal@16
    89A34 _DAQmxAdjust1502Cal@20
    89A34 __imp__DAQmxAdjust1502Cal@20
    EC19C _DAQmxSetup1503Cal@16
    EC19C __imp__DAQmxSetup1503Cal@16
    89AA6 _DAQmxAdjust1503Cal@20
    89AA6 __imp__DAQmxAdjust1503Cal@20
    89B18 _DAQmxAdjust1503CurrentCal@16
    89B18 __imp__DAQmxAdjust1503CurrentCal@16
    EC20E _DAQmxSetup1520Cal@16
    EC20E __imp__DAQmxSetup1520Cal@16
    89B92 _DAQmxAdjust1520Cal@20
    89B92 __imp__DAQmxAdjust1520Cal@20
    EC280 _DAQmxSetup1521Cal@8
    EC280 __imp__DAQmxSetup1521Cal@8
    89C04 _DAQmxAdjust1521Cal@20
    89C04 __imp__DAQmxAdjust1521Cal@20
    EC2F0 _DAQmxSetup153xCal@16
    EC2F0 __imp__DAQmxSetup153xCal@16
    89C76 _DAQmxAdjust153xCal@20
    89C76 __imp__DAQmxAdjust153xCal@20
    EC362 _DAQmxSetup1540Cal@24
    EC362 __imp__DAQmxSetup1540Cal@24
    89CE8 _DAQmxAdjust1540Cal@24
    89CE8 __imp__DAQmxAdjust1540Cal@24
    8CD84 _DAQmxConfigureTEDS@8
    8CD84 __imp__DAQmxConfigureTEDS@8
    8CBC2 _DAQmxClearTEDS@4
    8CBC2 __imp__DAQmxClearTEDS@4
    EDF44 _DAQmxWriteToTEDSFromArray@16
    EDF44 __imp__DAQmxWriteToTEDSFromArray@16
    EDFBE _DAQmxWriteToTEDSFromFile@12
    EDFBE __imp__DAQmxWriteToTEDSFromFile@12
    B039E _DAQmxGetPhysicalChanAttribute
    B039E __imp__DAQmxGetPhysicalChanAttribute
    ED59C _DAQmxWaitForNextSampleClock@16
    ED59C __imp__DAQmxWaitForNextSampleClock@16
    B2746 _DAQmxGetRealTimeAttribute
    B2746 __imp__DAQmxGetRealTimeAttribute
    E936A _DAQmxSetRealTimeAttribute
    E936A __imp__DAQmxSetRealTimeAttribute
    D0A9E _DAQmxResetRealTimeAttribute@8
    D0A9E __imp__DAQmxResetRealTimeAttribute@8
    B93C2 _DAQmxIsReadOrWriteLate@4
    B93C2 __imp__DAQmxIsReadOrWriteLate@4
    D2B1C _DAQmxSaveTask@16
    D2B1C __imp__DAQmxSaveTask@16
    D2A3A _DAQmxSaveGlobalChan@20
    D2A3A __imp__DAQmxSaveGlobalChan@20
    D2AAE _DAQmxSaveScale@16
    D2AAE __imp__DAQmxSaveScale@16
    8F91A _DAQmxDeleteSavedTask@4
    8F91A __imp__DAQmxDeleteSavedTask@4
    8F82C _DAQmxDeleteSavedGlobalChan@4
    8F82C __imp__DAQmxDeleteSavedGlobalChan@4
    8F8A6 _DAQmxDeleteSavedScale@4
    8F8A6 __imp__DAQmxDeleteSavedScale@4
    AFC3C _DAQmxGetPersistedTaskAttribute
    AFC3C __imp__DAQmxGetPersistedTaskAttribute
    AF5D8 _DAQmxGetPersistedChanAttribute
    AF5D8 __imp__DAQmxGetPersistedChanAttribute
    AF90C _DAQmxGetPersistedScaleAttribute
    AF90C __imp__DAQmxGetPersistedScaleAttribute
    B6356 _DAQmxGetSystemInfoAttribute
    B6356 __imp__DAQmxGetSystemInfoAttribute
    E684A _DAQmxSetDigitalPowerUpStates
    E684A __imp__DAQmxSetDigitalPowerUpStates
    AC6B0 _DAQmxGetDigitalPowerUpStates
    AC6B0 __imp__DAQmxGetDigitalPowerUpStates
    E6944 _DAQmxSetDigitalPullUpPullDownStates
    E6944 __imp__DAQmxSetDigitalPullUpPullDownStates
    AC72A _DAQmxGetDigitalPullUpPullDownStates
    AC72A __imp__DAQmxGetDigitalPullUpPullDownStates
    D98B4 _DAQmxSetAnalogPowerUpStates
    D98B4 __imp__DAQmxSetAnalogPowerUpStates
    D992C _DAQmxSetAnalogPowerUpStatesWithOutputType
    D992C __imp__DAQmxSetAnalogPowerUpStatesWithOutputType
    99828 _DAQmxGetAnalogPowerUpStates
    99828 __imp__DAQmxGetAnalogPowerUpStates
    998A0 _DAQmxGetAnalogPowerUpStatesWithOutputType
    998A0 __imp__DAQmxGetAnalogPowerUpStatesWithOutputType
    E67C4 _DAQmxSetDigitalLogicFamilyPowerUpState@8
    E67C4 __imp__DAQmxSetDigitalLogicFamilyPowerUpState@8
    AC62A _DAQmxGetDigitalLogicFamilyPowerUpState@8
    AC62A __imp__DAQmxGetDigitalLogicFamilyPowerUpState@8
    8954A _DAQmxAddNetworkDevice@28
    8954A __imp__DAQmxAddNetworkDevice@28
    8F7B4 _DAQmxDeleteNetworkDevice@4
    8F7B4 __imp__DAQmxDeleteNetworkDevice@4
    BA7BE _DAQmxReserveNetworkDevice@8
    BA7BE __imp__DAQmxReserveNetworkDevice@8
    ED522 _DAQmxUnreserveNetworkDevice@4
    ED522 __imp__DAQmxUnreserveNetworkDevice@4
    8BC24 _DAQmxAutoConfigureCDAQSyncConnections@12
    8BC24 __imp__DAQmxAutoConfigureCDAQSyncConnections@12
    9BEE0 _DAQmxGetAutoConfiguredCDAQSyncConnections@8
    9BEE0 __imp__DAQmxGetAutoConfiguredCDAQSyncConnections@8
    8BB98 _DAQmxAreConfiguredCDAQSyncPortsDisconnected@16
    8BB98 __imp__DAQmxAreConfiguredCDAQSyncPortsDisconnected@16
    AC7AA _DAQmxGetDisconnectedCDAQSyncPorts@8
    AC7AA __imp__DAQmxGetDisconnectedCDAQSyncPorts@8
    89458 _DAQmxAddCDAQSyncConnection@4
    89458 __imp__DAQmxAddCDAQSyncConnection@4
    BA742 _DAQmxRemoveCDAQSyncConnection@4
    BA742 __imp__DAQmxRemoveCDAQSyncConnection@4
    AC82A _DAQmxGetErrorString@12
    AC82A __imp__DAQmxGetErrorString@12
    AE5A4 _DAQmxGetExtendedErrorInfo@8
    AE5A4 __imp__DAQmxGetExtendedErrorInfo@8
    9BF68 _DAQmxGetBufInputBufSize@8
    9BF68 __imp__DAQmxGetBufInputBufSize@8
    DB92A _DAQmxSetBufInputBufSize@8
    DB92A __imp__DAQmxSetBufInputBufSize@8
    C3344 _DAQmxResetBufInputBufSize@4
    C3344 __imp__DAQmxResetBufInputBufSize@4
    9BFDE _DAQmxGetBufInputOnbrdBufSize@8
    9BFDE __imp__DAQmxGetBufInputOnbrdBufSize@8
    9C05A _DAQmxGetBufOutputBufSize@8
    9C05A __imp__DAQmxGetBufOutputBufSize@8
    DB9A0 _DAQmxSetBufOutputBufSize@8
    DB9A0 __imp__DAQmxSetBufOutputBufSize@8
    C33BC _DAQmxResetBufOutputBufSize@4
    C33BC __imp__DAQmxResetBufOutputBufSize@4
    9C0D2 _DAQmxGetBufOutputOnbrdBufSize@8
    9C0D2 __imp__DAQmxGetBufOutputOnbrdBufSize@8
    DBA18 _DAQmxSetBufOutputOnbrdBufSize@8
    DBA18 __imp__DAQmxSetBufOutputOnbrdBufSize@8
    C3436 _DAQmxResetBufOutputOnbrdBufSize@4
    C3436 __imp__DAQmxResetBufOutputOnbrdBufSize@4
    B4636 _DAQmxGetSelfCalSupported@8
    B4636 __imp__DAQmxGetSelfCalSupported@8
    B45C0 _DAQmxGetSelfCalLastTemp@8
    B45C0 __imp__DAQmxGetSelfCalLastTemp@8
    AE524 _DAQmxGetExtCalRecommendedInterval@8
    AE524 __imp__DAQmxGetExtCalRecommendedInterval@8
    AE4AE _DAQmxGetExtCalLastTemp@8
    AE4AE __imp__DAQmxGetExtCalLastTemp@8
    A6490 _DAQmxGetCalUserDefinedInfo@12
    A6490 __imp__DAQmxGetCalUserDefinedInfo@12
    E3DAC _DAQmxSetCalUserDefinedInfo@8
    E3DAC __imp__DAQmxSetCalUserDefinedInfo@8
    A650A _DAQmxGetCalUserDefinedInfoMaxSize@8
    A650A __imp__DAQmxGetCalUserDefinedInfoMaxSize@8
    A631C _DAQmxGetCalDevTemp@8
    A631C __imp__DAQmxGetCalDevTemp@8
    A62A0 _DAQmxGetCalAccConnectionCount@8
    A62A0 __imp__DAQmxGetCalAccConnectionCount@8
    E3CBA _DAQmxSetCalAccConnectionCount@8
    E3CBA __imp__DAQmxSetCalAccConnectionCount@8
    A6404 _DAQmxGetCalRecommendedAccConnectionCountLimit@8
    A6404 __imp__DAQmxGetCalRecommendedAccConnectionCountLimit@8
    95C3A _DAQmxGetAIMax@12
    95C3A __imp__DAQmxGetAIMax@12
    D6BE0 _DAQmxSetAIMax@16
    D6BE0 __imp__DAQmxSetAIMax@16
    BE6C2 _DAQmxResetAIMax@8
    BE6C2 __imp__DAQmxResetAIMax@8
    95E8A _DAQmxGetAIMin@12
    95E8A __imp__DAQmxGetAIMin@12
    D6D44 _DAQmxSetAIMin@16
    D6D44 __imp__DAQmxSetAIMin@16
    BE828 _DAQmxResetAIMin@8
    BE828 __imp__DAQmxResetAIMin@8
    93CC0 _DAQmxGetAICustomScaleName@16
    93CC0 __imp__DAQmxGetAICustomScaleName@16
    D522E _DAQmxSetAICustomScaleName@12
    D522E __imp__DAQmxSetAICustomScaleName@12
    BCCDE _DAQmxResetAICustomScaleName@8
    BCCDE __imp__DAQmxResetAICustomScaleName@8
    95CA8 _DAQmxGetAIMeasType@12
    95CA8 __imp__DAQmxGetAIMeasType@12
    97C3C _DAQmxGetAIVoltageUnits@12
    97C3C __imp__DAQmxGetAIVoltageUnits@12
    D8412 _DAQmxSetAIVoltageUnits@12
    D8412 __imp__DAQmxSetAIVoltageUnits@12
    BFF22 _DAQmxResetAIVoltageUnits@8
    BFF22 __imp__DAQmxResetAIVoltageUnits@8
    97CB2 _DAQmxGetAIVoltagedBRef@12
    97CB2 __imp__DAQmxGetAIVoltagedBRef@12
    D8488 _DAQmxSetAIVoltagedBRef@16
    D8488 __imp__DAQmxSetAIVoltagedBRef@16
    BFF9A _DAQmxResetAIVoltagedBRef@8
    BFF9A __imp__DAQmxResetAIVoltagedBRef@8
    97BC0 _DAQmxGetAIVoltageACRMSUnits@12
    97BC0 __imp__DAQmxGetAIVoltageACRMSUnits@12
    D8396 _DAQmxSetAIVoltageACRMSUnits@12
    D8396 __imp__DAQmxSetAIVoltageACRMSUnits@12
    BFEA6 _DAQmxResetAIVoltageACRMSUnits@8
    BFEA6 __imp__DAQmxResetAIVoltageACRMSUnits@8
    972C0 _DAQmxGetAITempUnits@12
    972C0 __imp__DAQmxGetAITempUnits@12
    D7B86 _DAQmxSetAITempUnits@12
    D7B86 __imp__DAQmxSetAITempUnits@12
    BF688 _DAQmxResetAITempUnits@8
    BF688 __imp__DAQmxResetAITempUnits@8
    9760A _DAQmxGetAIThrmcplType@12
    9760A __imp__DAQmxGetAIThrmcplType@12
    D7DE0 _DAQmxSetAIThrmcplType@12
    D7DE0 __imp__DAQmxSetAIThrmcplType@12
    BF8E6 _DAQmxResetAIThrmcplType@8
    BF8E6 __imp__DAQmxResetAIThrmcplType@8
    97590 _DAQmxGetAIThrmcplScaleType@12
    97590 __imp__DAQmxGetAIThrmcplScaleType@12
    D7D66 _DAQmxSetAIThrmcplScaleType@12
    D7D66 __imp__DAQmxSetAIThrmcplScaleType@12
    BF86A _DAQmxResetAIThrmcplScaleType@8
    BF86A __imp__DAQmxResetAIThrmcplScaleType@8
    9741E _DAQmxGetAIThrmcplCJCSrc@12
    9741E __imp__DAQmxGetAIThrmcplCJCSrc@12
    97496 _DAQmxGetAIThrmcplCJCVal@12
    97496 __imp__DAQmxGetAIThrmcplCJCVal@12
    D7C6C _DAQmxSetAIThrmcplCJCVal@16
    D7C6C __imp__DAQmxSetAIThrmcplCJCVal@16
    BF76E _DAQmxResetAIThrmcplCJCVal@8
    BF76E __imp__DAQmxResetAIThrmcplCJCVal@8
    973A6 _DAQmxGetAIThrmcplCJCChan@16
    973A6 __imp__DAQmxGetAIThrmcplCJCChan@16
    963A6 _DAQmxGetAIRTDType@12
    963A6 __imp__DAQmxGetAIRTDType@12
    D7158 _DAQmxSetAIRTDType@12
    D7158 __imp__DAQmxSetAIRTDType@12
    BEC46 _DAQmxResetAIRTDType@8
    BEC46 __imp__DAQmxResetAIRTDType@8
    96336 _DAQmxGetAIRTDR0@12
    96336 __imp__DAQmxGetAIRTDR0@12
    D70E8 _DAQmxSetAIRTDR0@16
    D70E8 __imp__DAQmxSetAIRTDR0@16
    BEBD6 _DAQmxResetAIRTDR0@8
    BEBD6 __imp__DAQmxResetAIRTDR0@8
    961EC _DAQmxGetAIRTDA@12
    961EC __imp__DAQmxGetAIRTDA@12
    D6F9E _DAQmxSetAIRTDA@16
    D6F9E __imp__DAQmxSetAIRTDA@16
    BEA86 _DAQmxResetAIRTDA@8
    BEA86 __imp__DAQmxResetAIRTDA@8
    9625A _DAQmxGetAIRTDB@12
    9625A __imp__DAQmxGetAIRTDB@12
    D700C _DAQmxSetAIRTDB@16
    D700C __imp__DAQmxSetAIRTDB@16
    BEAF6 _DAQmxResetAIRTDB@8
    BEAF6 __imp__DAQmxResetAIRTDB@8
    962C8 _DAQmxGetAIRTDC@12
    962C8 __imp__DAQmxGetAIRTDC@12
    D707A _DAQmxSetAIRTDC@16
    D707A __imp__DAQmxSetAIRTDC@16
    BEB66 _DAQmxResetAIRTDC@8
    BEB66 __imp__DAQmxResetAIRTDC@8
    97680 _DAQmxGetAIThrmstrA@12
    97680 __imp__DAQmxGetAIThrmstrA@12
    D7E56 _DAQmxSetAIThrmstrA@16
    D7E56 __imp__DAQmxSetAIThrmstrA@16
    BF95C _DAQmxResetAIThrmstrA@8
    BF95C __imp__DAQmxResetAIThrmstrA@8
    976F2 _DAQmxGetAIThrmstrB@12
    976F2 __imp__DAQmxGetAIThrmstrB@12
    D7EC8 _DAQmxSetAIThrmstrB@16
    D7EC8 __imp__DAQmxSetAIThrmstrB@16
    BF9D0 _DAQmxResetAIThrmstrB@8
    BF9D0 __imp__DAQmxResetAIThrmstrB@8
    97764 _DAQmxGetAIThrmstrC@12
    97764 __imp__DAQmxGetAIThrmstrC@12
    D7F3A _DAQmxSetAIThrmstrC@16
    D7F3A __imp__DAQmxSetAIThrmstrC@16
    BFA44 _DAQmxResetAIThrmstrC@8
    BFA44 __imp__DAQmxResetAIThrmstrC@8
    977D6 _DAQmxGetAIThrmstrR1@12
    977D6 __imp__DAQmxGetAIThrmstrR1@12
    D7FAC _DAQmxSetAIThrmstrR1@16
    D7FAC __imp__DAQmxSetAIThrmstrR1@16
    BFAB8 _DAQmxResetAIThrmstrR1@8
    BFAB8 __imp__DAQmxResetAIThrmstrR1@8
    95140 _DAQmxGetAIForceReadFromChan@12
    95140 __imp__DAQmxGetAIForceReadFromChan@12
    D62C6 _DAQmxSetAIForceReadFromChan@12
    D62C6 __imp__DAQmxSetAIForceReadFromChan@12
    BDD98 _DAQmxResetAIForceReadFromChan@8
    BDD98 __imp__DAQmxResetAIForceReadFromChan@8
    93C4A _DAQmxGetAICurrentUnits@12
    93C4A __imp__DAQmxGetAICurrentUnits@12
    D51B8 _DAQmxSetAICurrentUnits@12
    D51B8 __imp__DAQmxSetAICurrentUnits@12
    BCC66 _DAQmxResetAICurrentUnits@8
    BCC66 __imp__DAQmxResetAICurrentUnits@8
    93AD4 _DAQmxGetAICurrentACRMSUnits@12
    93AD4 __imp__DAQmxGetAICurrentACRMSUnits@12
    D5042 _DAQmxSetAICurrentACRMSUnits@12
    D5042 __imp__DAQmxSetAICurrentACRMSUnits@12
    BCAEE _DAQmxResetAICurrentACRMSUnits@8
    BCAEE __imp__DAQmxResetAICurrentACRMSUnits@8
    971D6 _DAQmxGetAIStrainUnits@12
    971D6 __imp__DAQmxGetAIStrainUnits@12
    D7B10 _DAQmxSetAIStrainUnits@12
    D7B10 __imp__DAQmxSetAIStrainUnits@12
    BF612 _DAQmxResetAIStrainUnits@8
    BF612 __imp__DAQmxResetAIStrainUnits@8
    96FC8 _DAQmxGetAIStrainGageForceReadFromChan@12
    96FC8 __imp__DAQmxGetAIStrainGageForceReadFromChan@12
    D798C _DAQmxSetAIStrainGageForceReadFromChan@12
    D798C __imp__DAQmxSetAIStrainGageForceReadFromChan@12
    BF48A _DAQmxResetAIStrainGageForceReadFromChan@8
    BF48A __imp__DAQmxResetAIStrainGageForceReadFromChan@8
    970D8 _DAQmxGetAIStrainGageGageFactor@12
    970D8 __imp__DAQmxGetAIStrainGageGageFactor@12
    D7A12 _DAQmxSetAIStrainGageGageFactor@16
    D7A12 __imp__DAQmxSetAIStrainGageGageFactor@16
    BF510 _DAQmxResetAIStrainGageGageFactor@8
    BF510 __imp__DAQmxResetAIStrainGageGageFactor@8
    97156 _DAQmxGetAIStrainGagePoissonRatio@12
    97156 __imp__DAQmxGetAIStrainGagePoissonRatio@12
    D7A90 _DAQmxSetAIStrainGagePoissonRatio@16
    D7A90 __imp__DAQmxSetAIStrainGagePoissonRatio@16
    BF590 _DAQmxResetAIStrainGagePoissonRatio@8
    BF590 __imp__DAQmxResetAIStrainGagePoissonRatio@8
    96F50 _DAQmxGetAIStrainGageCfg@12
    96F50 __imp__DAQmxGetAIStrainGageCfg@12
    D7914 _DAQmxSetAIStrainGageCfg@12
    D7914 __imp__DAQmxSetAIStrainGageCfg@12
    BF412 _DAQmxResetAIStrainGageCfg@8
    BF412 __imp__DAQmxResetAIStrainGageCfg@8
    96BC6 _DAQmxGetAIRosetteStrainGageRosetteType@12
    96BC6 __imp__DAQmxGetAIRosetteStrainGageRosetteType@12
    96AB6 _DAQmxGetAIRosetteStrainGageOrientation@12
    96AB6 __imp__DAQmxGetAIRosetteStrainGageOrientation@12
    D7606 _DAQmxSetAIRosetteStrainGageOrientation@16
    D7606 __imp__DAQmxSetAIRosetteStrainGageOrientation@16
    BF0FA _DAQmxResetAIRosetteStrainGageOrientation@8
    BF0FA __imp__DAQmxResetAIRosetteStrainGageOrientation@8
    96C4C _DAQmxGetAIRosetteStrainGageStrainChans@16
    96C4C __imp__DAQmxGetAIRosetteStrainGageStrainChans@16
    96B3C _DAQmxGetAIRosetteStrainGageRosetteMeasType@12
    96B3C __imp__DAQmxGetAIRosetteStrainGageRosetteMeasType@12
    D768C _DAQmxSetAIRosetteStrainGageRosetteMeasType@12
    D768C __imp__DAQmxSetAIRosetteStrainGageRosetteMeasType@12
    BF182 _DAQmxResetAIRosetteStrainGageRosetteMeasType@8
    BF182 __imp__DAQmxResetAIRosetteStrainGageRosetteMeasType@8
    9686C _DAQmxGetAIResistanceUnits@12
    9686C __imp__DAQmxGetAIResistanceUnits@12
    D74AA _DAQmxSetAIResistanceUnits@12
    D74AA __imp__DAQmxSetAIResistanceUnits@12
    BEF9C _DAQmxResetAIResistanceUnits@8
    BEF9C __imp__DAQmxResetAIResistanceUnits@8
    9539E _DAQmxGetAIFreqUnits@12
    9539E __imp__DAQmxGetAIFreqUnits@12
    D64A4 _DAQmxSetAIFreqUnits@12
    D64A4 __imp__DAQmxSetAIFreqUnits@12
    BDF7A _DAQmxResetAIFreqUnits@8
    BDF7A __imp__DAQmxResetAIFreqUnits@8
    95322 _DAQmxGetAIFreqThreshVoltage@12
    95322 __imp__DAQmxGetAIFreqThreshVoltage@12
    D6428 _DAQmxSetAIFreqThreshVoltage@16
    D6428 __imp__DAQmxSetAIFreqThreshVoltage@16
    BDEFE _DAQmxResetAIFreqThreshVoltage@8
    BDEFE __imp__DAQmxResetAIFreqThreshVoltage@8
    952B0 _DAQmxGetAIFreqHyst@12
    952B0 __imp__DAQmxGetAIFreqHyst@12
    D63B6 _DAQmxSetAIFreqHyst@16
    D63B6 __imp__DAQmxSetAIFreqHyst@16
    BDE8A _DAQmxResetAIFreqHyst@8
    BDE8A __imp__DAQmxResetAIFreqHyst@8
    95742 _DAQmxGetAILVDTUnits@12
    95742 __imp__DAQmxGetAILVDTUnits@12
    D6764 _DAQmxSetAILVDTUnits@12
    D6764 __imp__DAQmxSetAILVDTUnits@12
    BE240 _DAQmxResetAILVDTUnits@8
    BE240 __imp__DAQmxResetAILVDTUnits@8
    9564A _DAQmxGetAILVDTSensitivity@12
    9564A __imp__DAQmxGetAILVDTSensitivity@12
    D666C _DAQmxSetAILVDTSensitivity@16
    D666C __imp__DAQmxSetAILVDTSensitivity@16
    BE146 _DAQmxResetAILVDTSensitivity@8
    BE146 __imp__DAQmxResetAILVDTSensitivity@8
    956C4 _DAQmxGetAILVDTSensitivityUnits@12
    956C4 __imp__DAQmxGetAILVDTSensitivityUnits@12
    D66E6 _DAQmxSetAILVDTSensitivityUnits@12
    D66E6 __imp__DAQmxSetAILVDTSensitivityUnits@12
    BE1C0 _DAQmxResetAILVDTSensitivityUnits@8
    BE1C0 __imp__DAQmxResetAILVDTSensitivityUnits@8
    96510 _DAQmxGetAIRVDTUnits@12
    96510 __imp__DAQmxGetAIRVDTUnits@12
    D72C2 _DAQmxSetAIRVDTUnits@12
    D72C2 __imp__DAQmxSetAIRVDTUnits@12
    BEDB2 _DAQmxResetAIRVDTUnits@8
    BEDB2 __imp__DAQmxResetAIRVDTUnits@8
    96418 _DAQmxGetAIRVDTSensitivity@12
    96418 __imp__DAQmxGetAIRVDTSensitivity@12
    D71CA _DAQmxSetAIRVDTSensitivity@16
    D71CA __imp__DAQmxSetAIRVDTSensitivity@16
    BECB8 _DAQmxResetAIRVDTSensitivity@8
    BECB8 __imp__DAQmxResetAIRVDTSensitivity@8
    96492 _DAQmxGetAIRVDTSensitivityUnits@12
    96492 __imp__DAQmxGetAIRVDTSensitivityUnits@12
    D7244 _DAQmxSetAIRVDTSensitivityUnits@12
    D7244 __imp__DAQmxSetAIRVDTSensitivityUnits@12
    BED32 _DAQmxResetAIRVDTSensitivityUnits@8
    BED32 __imp__DAQmxResetAIRVDTSensitivityUnits@8
    947EA _DAQmxGetAIEddyCurrentProxProbeUnits@12
    947EA __imp__DAQmxGetAIEddyCurrentProxProbeUnits@12
    D5B72 _DAQmxSetAIEddyCurrentProxProbeUnits@12
    D5B72 __imp__DAQmxSetAIEddyCurrentProxProbeUnits@12
    BD634 _DAQmxResetAIEddyCurrentProxProbeUnits@8
    BD634 __imp__DAQmxResetAIEddyCurrentProxProbeUnits@8
    946D2 _DAQmxGetAIEddyCurrentProxProbeSensitivity@12
    946D2 __imp__DAQmxGetAIEddyCurrentProxProbeSensitivity@12
    D5A5A _DAQmxSetAIEddyCurrentProxProbeSensitivity@16
    D5A5A __imp__DAQmxSetAIEddyCurrentProxProbeSensitivity@16
    BD51A _DAQmxResetAIEddyCurrentProxProbeSensitivity@8
    BD51A __imp__DAQmxResetAIEddyCurrentProxProbeSensitivity@8
    9475C _DAQmxGetAIEddyCurrentProxProbeSensitivityUnits@12
    9475C __imp__DAQmxGetAIEddyCurrentProxProbeSensitivityUnits@12
    D5AE4 _DAQmxSetAIEddyCurrentProxProbeSensitivityUnits@12
    D5AE4 __imp__DAQmxSetAIEddyCurrentProxProbeSensitivityUnits@12
    BD5A4 _DAQmxResetAIEddyCurrentProxProbeSensitivityUnits@8
    BD5A4 __imp__DAQmxResetAIEddyCurrentProxProbeSensitivityUnits@8
    96DCE _DAQmxGetAISoundPressureMaxSoundPressureLvl@12
    96DCE __imp__DAQmxGetAISoundPressureMaxSoundPressureLvl@12
    D7792 _DAQmxSetAISoundPressureMaxSoundPressureLvl@16
    D7792 __imp__DAQmxSetAISoundPressureMaxSoundPressureLvl@16
    BF28A _DAQmxResetAISoundPressureMaxSoundPressureLvl@8
    BF28A __imp__DAQmxResetAISoundPressureMaxSoundPressureLvl@8
    96E58 _DAQmxGetAISoundPressureUnits@12
    96E58 __imp__DAQmxGetAISoundPressureUnits@12
    D781C _DAQmxSetAISoundPressureUnits@12
    D781C __imp__DAQmxSetAISoundPressureUnits@12
    BF316 _DAQmxResetAISoundPressureUnits@8
    BF316 __imp__DAQmxResetAISoundPressureUnits@8
    96ED4 _DAQmxGetAISoundPressuredBRef@12
    96ED4 __imp__DAQmxGetAISoundPressuredBRef@12
    D7898 _DAQmxSetAISoundPressuredBRef@16
    D7898 __imp__DAQmxSetAISoundPressuredBRef@16
    BF394 _DAQmxResetAISoundPressuredBRef@8
    BF394 __imp__DAQmxResetAISoundPressuredBRef@8
    95E0A _DAQmxGetAIMicrophoneSensitivity@12
    95E0A __imp__DAQmxGetAIMicrophoneSensitivity@12
    D6CC4 _DAQmxSetAIMicrophoneSensitivity@16
    D6CC4 __imp__DAQmxSetAIMicrophoneSensitivity@16
    BE7A8 _DAQmxResetAIMicrophoneSensitivity@8
    BE7A8 __imp__DAQmxResetAIMicrophoneSensitivity@8
    91660 _DAQmxGetAIAccelUnits@12
    91660 __imp__DAQmxGetAIAccelUnits@12
    D303C _DAQmxSetAIAccelUnits@12
    D303C __imp__DAQmxSetAIAccelUnits@12
    BAB94 _DAQmxResetAIAccelUnits@8
    BAB94 __imp__DAQmxResetAIAccelUnits@8
    916D4 _DAQmxGetAIAcceldBRef@12
    916D4 __imp__DAQmxGetAIAcceldBRef@12
    D30B0 _DAQmxSetAIAcceldBRef@16
    D30B0 __imp__DAQmxSetAIAcceldBRef@16
    BAC0A _DAQmxResetAIAcceldBRef@8
    BAC0A __imp__DAQmxResetAIAcceldBRef@8
    91566 _DAQmxGetAIAccelSensitivity@12
    91566 __imp__DAQmxGetAIAccelSensitivity@12
    D2F42 _DAQmxSetAIAccelSensitivity@16
    D2F42 __imp__DAQmxSetAIAccelSensitivity@16
    BAA98 _DAQmxResetAIAccelSensitivity@8
    BAA98 __imp__DAQmxResetAIAccelSensitivity@8
    915E0 _DAQmxGetAIAccelSensitivityUnits@12
    915E0 __imp__DAQmxGetAIAccelSensitivityUnits@12
    D2FBC _DAQmxSetAIAccelSensitivityUnits@12
    D2FBC __imp__DAQmxSetAIAccelSensitivityUnits@12
    BAB14 _DAQmxResetAIAccelSensitivityUnits@8
    BAB14 __imp__DAQmxResetAIAccelSensitivityUnits@8
    97B48 _DAQmxGetAIVelocityUnits@12
    97B48 __imp__DAQmxGetAIVelocityUnits@12
    D831E _DAQmxSetAIVelocityUnits@12
    D831E __imp__DAQmxSetAIVelocityUnits@12
    BFE2E _DAQmxResetAIVelocityUnits@8
    BFE2E __imp__DAQmxResetAIVelocityUnits@8
    97AC6 _DAQmxGetAIVelocityIEPESensordBRef@12
    97AC6 __imp__DAQmxGetAIVelocityIEPESensordBRef@12
    D829C _DAQmxSetAIVelocityIEPESensordBRef@16
    D829C __imp__DAQmxSetAIVelocityIEPESensordBRef@16
    BFDAC _DAQmxResetAIVelocityIEPESensordBRef@8
    BFDAC __imp__DAQmxResetAIVelocityIEPESensordBRef@8
    979B2 _DAQmxGetAIVelocityIEPESensorSensitivity@12
    979B2 __imp__DAQmxGetAIVelocityIEPESensorSensitivity@12
    D8188 _DAQmxSetAIVelocityIEPESensorSensitivity@16
    D8188 __imp__DAQmxSetAIVelocityIEPESensorSensitivity@16
    BFC96 _DAQmxResetAIVelocityIEPESensorSensitivity@8
    BFC96 __imp__DAQmxResetAIVelocityIEPESensorSensitivity@8
    97A3A _DAQmxGetAIVelocityIEPESensorSensitivityUnits@12
    97A3A __imp__DAQmxGetAIVelocityIEPESensorSensitivityUnits@12
    D8210 _DAQmxSetAIVelocityIEPESensorSensitivityUnits@12
    D8210 __imp__DAQmxSetAIVelocityIEPESensorSensitivityUnits@12
    BFD1E _DAQmxResetAIVelocityIEPESensorSensitivityUnits@8
    BFD1E __imp__DAQmxResetAIVelocityIEPESensorSensitivityUnits@8
    9523C _DAQmxGetAIForceUnits@12
    9523C __imp__DAQmxGetAIForceUnits@12
    D6342 _DAQmxSetAIForceUnits@12
    D6342 __imp__DAQmxSetAIForceUnits@12
    BDE14 _DAQmxResetAIForceUnits@8
    BDE14 __imp__DAQmxResetAIForceUnits@8
    95032 _DAQmxGetAIForceIEPESensorSensitivity@12
    95032 __imp__DAQmxGetAIForceIEPESensorSensitivity@12
    D61B8 _DAQmxSetAIForceIEPESensorSensitivity@16
    D61B8 __imp__DAQmxSetAIForceIEPESensorSensitivity@16
    BDC88 _DAQmxResetAIForceIEPESensorSensitivity@8
    BDC88 __imp__DAQmxResetAIForceIEPESensorSensitivity@8
    950B6 _DAQmxGetAIForceIEPESensorSensitivityUnits@12
    950B6 __imp__DAQmxGetAIForceIEPESensorSensitivityUnits@12
    D623C _DAQmxSetAIForceIEPESensorSensitivityUnits@12
    D623C __imp__DAQmxSetAIForceIEPESensorSensitivityUnits@12
    BDD0E _DAQmxResetAIForceIEPESensorSensitivityUnits@8
    BDD0E __imp__DAQmxResetAIForceIEPESensorSensitivityUnits@8
    96100 _DAQmxGetAIPressureUnits@12
    96100 __imp__DAQmxGetAIPressureUnits@12
    D6EB2 _DAQmxSetAIPressureUnits@12
    D6EB2 __imp__DAQmxSetAIPressureUnits@12
    BE998 _DAQmxResetAIPressureUnits@8
    BE998 __imp__DAQmxResetAIPressureUnits@8
    9784A _DAQmxGetAITorqueUnits@12
    9784A __imp__DAQmxGetAITorqueUnits@12
    D8020 _DAQmxSetAITorqueUnits@12
    D8020 __imp__DAQmxSetAITorqueUnits@12
    BFB2C _DAQmxResetAITorqueUnits@8
    BFB2C __imp__DAQmxResetAITorqueUnits@8
    92604 _DAQmxGetAIBridgeUnits@12
    92604 __imp__DAQmxGetAIBridgeUnits@12
    D3F5E _DAQmxSetAIBridgeUnits@12
    D3F5E __imp__DAQmxSetAIBridgeUnits@12
    BBAD6 _DAQmxResetAIBridgeUnits@8
    BBAD6 __imp__DAQmxResetAIBridgeUnits@8
    91A1A _DAQmxGetAIBridgeElectricalUnits@12
    91A1A __imp__DAQmxGetAIBridgeElectricalUnits@12
    D33F6 _DAQmxSetAIBridgeElectricalUnits@12
    D33F6 __imp__DAQmxSetAIBridgeElectricalUnits@12
    BAF5A _DAQmxResetAIBridgeElectricalUnits@8
    BAF5A __imp__DAQmxResetAIBridgeElectricalUnits@8
    91C12 _DAQmxGetAIBridgePhysicalUnits@12
    91C12 __imp__DAQmxGetAIBridgePhysicalUnits@12
    D35EE _DAQmxSetAIBridgePhysicalUnits@12
    D35EE __imp__DAQmxSetAIBridgePhysicalUnits@12
    BB156 _DAQmxResetAIBridgePhysicalUnits@8
    BB156 __imp__DAQmxResetAIBridgePhysicalUnits@8
    91D90 _DAQmxGetAIBridgeScaleType@12
    91D90 __imp__DAQmxGetAIBridgeScaleType@12
    D376C _DAQmxSetAIBridgeScaleType@12
    D376C __imp__DAQmxSetAIBridgeScaleType@12
    BB2D8 _DAQmxResetAIBridgeScaleType@8
    BB2D8 __imp__DAQmxResetAIBridgeScaleType@8
    923D0 _DAQmxGetAIBridgeTwoPointLinFirstElectricalVal@12
    923D0 __imp__DAQmxGetAIBridgeTwoPointLinFirstElectricalVal@12
    D3D2A _DAQmxSetAIBridgeTwoPointLinFirstElectricalVal@16
    D3D2A __imp__DAQmxSetAIBridgeTwoPointLinFirstElectricalVal@16
    BB89E _DAQmxResetAIBridgeTwoPointLinFirstElectricalVal@8
    BB89E __imp__DAQmxResetAIBridgeTwoPointLinFirstElectricalVal@8
    9245E _DAQmxGetAIBridgeTwoPointLinFirstPhysicalVal@12
    9245E __imp__DAQmxGetAIBridgeTwoPointLinFirstPhysicalVal@12
    D3DB8 _DAQmxSetAIBridgeTwoPointLinFirstPhysicalVal@16
    D3DB8 __imp__DAQmxSetAIBridgeTwoPointLinFirstPhysicalVal@16
    BB92C _DAQmxResetAIBridgeTwoPointLinFirstPhysicalVal@8
    BB92C __imp__DAQmxResetAIBridgeTwoPointLinFirstPhysicalVal@8
    924EA _DAQmxGetAIBridgeTwoPointLinSecondElectricalVal@12
    924EA __imp__DAQmxGetAIBridgeTwoPointLinSecondElectricalVal@12
    D3E44 _DAQmxSetAIBridgeTwoPointLinSecondElectricalVal@16
    D3E44 __imp__DAQmxSetAIBridgeTwoPointLinSecondElectricalVal@16
    BB9B8 _DAQmxResetAIBridgeTwoPointLinSecondElectricalVal@8
    BB9B8 __imp__DAQmxResetAIBridgeTwoPointLinSecondElectricalVal@8
    92578 _DAQmxGetAIBridgeTwoPointLinSecondPhysicalVal@12
    92578 __imp__DAQmxGetAIBridgeTwoPointLinSecondPhysicalVal@12
    D3ED2 _DAQmxSetAIBridgeTwoPointLinSecondPhysicalVal@16
    D3ED2 __imp__DAQmxSetAIBridgeTwoPointLinSecondPhysicalVal@16
    BBA48 _DAQmxResetAIBridgeTwoPointLinSecondPhysicalVal@8
    BBA48 __imp__DAQmxResetAIBridgeTwoPointLinSecondPhysicalVal@8
    922CA _DAQmxGetAIBridgeTableElectricalVals@16
    922CA __imp__DAQmxGetAIBridgeTableElectricalVals@16
    D3C24 _DAQmxSetAIBridgeTableElectricalVals@16
    D3C24 __imp__DAQmxSetAIBridgeTableElectricalVals@16
    BB798 _DAQmxResetAIBridgeTableElectricalVals@8
    BB798 __imp__DAQmxResetAIBridgeTableElectricalVals@8
    9234E _DAQmxGetAIBridgeTablePhysicalVals@16
    9234E __imp__DAQmxGetAIBridgeTablePhysicalVals@16
    D3CA8 _DAQmxSetAIBridgeTablePhysicalVals@16
    D3CA8 __imp__DAQmxSetAIBridgeTablePhysicalVals@16
    BB81C _DAQmxResetAIBridgeTablePhysicalVals@8
    BB81C __imp__DAQmxResetAIBridgeTablePhysicalVals@8
    91C90 _DAQmxGetAIBridgePolyForwardCoeff@16
    91C90 __imp__DAQmxGetAIBridgePolyForwardCoeff@16
    D366C _DAQmxSetAIBridgePolyForwardCoeff@16
    D366C __imp__DAQmxSetAIBridgePolyForwardCoeff@16
    BB1D4 _DAQmxResetAIBridgePolyForwardCoeff@8
    BB1D4 __imp__DAQmxResetAIBridgePolyForwardCoeff@8
    91D10 _DAQmxGetAIBridgePolyReverseCoeff@16
    91D10 __imp__DAQmxGetAIBridgePolyReverseCoeff@16
    D36EC _DAQmxSetAIBridgePolyReverseCoeff@16
    D36EC __imp__DAQmxSetAIBridgePolyReverseCoeff@16
    BB256 _DAQmxResetAIBridgePolyReverseCoeff@8
    BB256 __imp__DAQmxResetAIBridgePolyReverseCoeff@8
    95566 _DAQmxGetAIIsTEDS@12
    95566 __imp__DAQmxGetAIIsTEDS@12
    9724C _DAQmxGetAITEDSUnits@16
    9724C __imp__DAQmxGetAITEDSUnits@16
    93A62 _DAQmxGetAICoupling@12
    93A62 __imp__DAQmxGetAICoupling@12
    D4FD0 _DAQmxSetAICoupling@12
    D4FD0 __imp__DAQmxSetAICoupling@12
    BCA7A _DAQmxResetAICoupling@8
    BCA7A __imp__DAQmxResetAICoupling@8
    95480 _DAQmxGetAIImpedance@12
    95480 __imp__DAQmxGetAIImpedance@12
    D6586 _DAQmxSetAIImpedance@16
    D6586 __imp__DAQmxSetAIImpedance@16
    BE05E _DAQmxResetAIImpedance@8
    BE05E __imp__DAQmxResetAIImpedance@8
    97334 _DAQmxGetAITermCfg@12
    97334 __imp__DAQmxGetAITermCfg@12
    D7BFA _DAQmxSetAITermCfg@12
    D7BFA __imp__DAQmxSetAITermCfg@12
    BF6FC _DAQmxResetAITermCfg@8
    BF6FC __imp__DAQmxResetAITermCfg@8
    954F4 _DAQmxGetAIInputSrc@16
    954F4 __imp__DAQmxGetAIInputSrc@16
    D65FA _DAQmxSetAIInputSrc@12
    D65FA __imp__DAQmxSetAIInputSrc@12
    BE0D2 _DAQmxResetAIInputSrc@8
    BE0D2 __imp__DAQmxResetAIInputSrc@8
    967F4 _DAQmxGetAIResistanceCfg@12
    967F4 __imp__DAQmxGetAIResistanceCfg@12
    D7432 _DAQmxSetAIResistanceCfg@12
    D7432 __imp__DAQmxSetAIResistanceCfg@12
    BEF24 _DAQmxResetAIResistanceCfg@8
    BEF24 __imp__DAQmxResetAIResistanceCfg@8
    957B6 _DAQmxGetAILeadWireResistance@12
    957B6 __imp__DAQmxGetAILeadWireResistance@12
    D67D8 _DAQmxSetAILeadWireResistance@16
    D67D8 __imp__DAQmxSetAILeadWireResistance@16
    BE2B4 _DAQmxResetAILeadWireResistance@8
    BE2B4 __imp__DAQmxResetAILeadWireResistance@8
    919A6 _DAQmxGetAIBridgeCfg@12
    919A6 __imp__DAQmxGetAIBridgeCfg@12
    D3382 _DAQmxSetAIBridgeCfg@12
    D3382 __imp__DAQmxSetAIBridgeCfg@12
    BAEE6 _DAQmxResetAIBridgeCfg@8
    BAEE6 __imp__DAQmxResetAIBridgeCfg@8
    91B94 _DAQmxGetAIBridgeNomResistance@12
    91B94 __imp__DAQmxGetAIBridgeNomResistance@12
    D3570 _DAQmxSetAIBridgeNomResistance@16
    D3570 __imp__DAQmxSetAIBridgeNomResistance@16
    BB0D8 _DAQmxResetAIBridgeNomResistance@8
    BB0D8 __imp__DAQmxResetAIBridgeNomResistance@8
    91B16 _DAQmxGetAIBridgeInitialVoltage@12
    91B16 __imp__DAQmxGetAIBridgeInitialVoltage@12
    D34F2 _DAQmxSetAIBridgeInitialVoltage@16
    D34F2 __imp__DAQmxSetAIBridgeInitialVoltage@16
    BB058 _DAQmxResetAIBridgeInitialVoltage@8
    BB058 __imp__DAQmxResetAIBridgeInitialVoltage@8
    91A9A _DAQmxGetAIBridgeInitialRatio@12
    91A9A __imp__DAQmxGetAIBridgeInitialRatio@12
    D3476 _DAQmxSetAIBridgeInitialRatio@16
    D3476 __imp__DAQmxSetAIBridgeInitialRatio@16
    BAFDA _DAQmxResetAIBridgeInitialRatio@8
    BAFDA __imp__DAQmxResetAIBridgeInitialRatio@8
    91E0A _DAQmxGetAIBridgeShuntCalEnable@12
    91E0A __imp__DAQmxGetAIBridgeShuntCalEnable@12
    D37E6 _DAQmxSetAIBridgeShuntCalEnable@12
    D37E6 __imp__DAQmxSetAIBridgeShuntCalEnable@12
    BB352 _DAQmxResetAIBridgeShuntCalEnable@8
    BB352 __imp__DAQmxResetAIBridgeShuntCalEnable@8
    91F8C _DAQmxGetAIBridgeShuntCalSelect@12
    91F8C __imp__DAQmxGetAIBridgeShuntCalSelect@12
    D38E6 _DAQmxSetAIBridgeShuntCalSelect@12
    D38E6 __imp__DAQmxSetAIBridgeShuntCalSelect@12
    BB456 _DAQmxResetAIBridgeShuntCalSelect@8
    BB456 __imp__DAQmxResetAIBridgeShuntCalSelect@8
    92128 _DAQmxGetAIBridgeShuntCalShuntCalASrc@12
    92128 __imp__DAQmxGetAIBridgeShuntCalShuntCalASrc@12
    D3A82 _DAQmxSetAIBridgeShuntCalShuntCalASrc@12
    D3A82 __imp__DAQmxSetAIBridgeShuntCalShuntCalASrc@12
    BB5F4 _DAQmxResetAIBridgeShuntCalShuntCalASrc@8
    BB5F4 __imp__DAQmxResetAIBridgeShuntCalShuntCalASrc@8
    91F0A _DAQmxGetAIBridgeShuntCalGainAdjust@12
    91F0A __imp__DAQmxGetAIBridgeShuntCalGainAdjust@12
    D3864 _DAQmxSetAIBridgeShuntCalGainAdjust@16
    D3864 __imp__DAQmxSetAIBridgeShuntCalGainAdjust@16
    BB3D2 _DAQmxResetAIBridgeShuntCalGainAdjust@8
    BB3D2 __imp__DAQmxResetAIBridgeShuntCalGainAdjust@8
    9209C _DAQmxGetAIBridgeShuntCalShuntCalAResistance@12
    9209C __imp__DAQmxGetAIBridgeShuntCalShuntCalAResistance@12
    D39F6 _DAQmxSetAIBridgeShuntCalShuntCalAResistance@16
    D39F6 __imp__DAQmxSetAIBridgeShuntCalShuntCalAResistance@16
    BB568 _DAQmxResetAIBridgeShuntCalShuntCalAResistance@8
    BB568 __imp__DAQmxResetAIBridgeShuntCalShuntCalAResistance@8
    9200A _DAQmxGetAIBridgeShuntCalShuntCalAActualResistance@12
    9200A __imp__DAQmxGetAIBridgeShuntCalShuntCalAActualResistance@12
    D3964 _DAQmxSetAIBridgeShuntCalShuntCalAActualResistance@16
    D3964 __imp__DAQmxSetAIBridgeShuntCalShuntCalAActualResistance@16
    BB4D6 _DAQmxResetAIBridgeShuntCalShuntCalAActualResistance@8
    BB4D6 __imp__DAQmxResetAIBridgeShuntCalShuntCalAActualResistance@8
    9223E _DAQmxGetAIBridgeShuntCalShuntCalBResistance@12
    9223E __imp__DAQmxGetAIBridgeShuntCalShuntCalBResistance@12
    D3B98 _DAQmxSetAIBridgeShuntCalShuntCalBResistance@16
    D3B98 __imp__DAQmxSetAIBridgeShuntCalShuntCalBResistance@16
    BB70C _DAQmxResetAIBridgeShuntCalShuntCalBResistance@8
    BB70C __imp__DAQmxResetAIBridgeShuntCalShuntCalBResistance@8
    921AC _DAQmxGetAIBridgeShuntCalShuntCalBActualResistance@12
    921AC __imp__DAQmxGetAIBridgeShuntCalShuntCalBActualResistance@12
    D3B06 _DAQmxSetAIBridgeShuntCalShuntCalBActualResistance@16
    D3B06 __imp__DAQmxSetAIBridgeShuntCalShuntCalBActualResistance@16
    BB67A _DAQmxResetAIBridgeShuntCalShuntCalBActualResistance@8
    BB67A __imp__DAQmxResetAIBridgeShuntCalShuntCalBActualResistance@8
    918A8 _DAQmxGetAIBridgeBalanceCoarsePot@12
    918A8 __imp__DAQmxGetAIBridgeBalanceCoarsePot@12
    D3284 _DAQmxSetAIBridgeBalanceCoarsePot@12
    D3284 __imp__DAQmxSetAIBridgeBalanceCoarsePot@12
    BADE4 _DAQmxResetAIBridgeBalanceCoarsePot@8
    BADE4 __imp__DAQmxResetAIBridgeBalanceCoarsePot@8
    91928 _DAQmxGetAIBridgeBalanceFinePot@12
    91928 __imp__DAQmxGetAIBridgeBalanceFinePot@12
    D3304 _DAQmxSetAIBridgeBalanceFinePot@12
    D3304 __imp__DAQmxSetAIBridgeBalanceFinePot@12
    BAE66 _DAQmxResetAIBridgeBalanceFinePot@8
    BAE66 __imp__DAQmxResetAIBridgeBalanceFinePot@8
    93B50 _DAQmxGetAICurrentShuntLoc@12
    93B50 __imp__DAQmxGetAICurrentShuntLoc@12
    D50BE _DAQmxSetAICurrentShuntLoc@12
    D50BE __imp__DAQmxSetAICurrentShuntLoc@12
    BCB6A _DAQmxResetAICurrentShuntLoc@8
    BCB6A __imp__DAQmxResetAICurrentShuntLoc@8
    93BCA _DAQmxGetAICurrentShuntResistance@12
    93BCA __imp__DAQmxGetAICurrentShuntResistance@12
    D5138 _DAQmxSetAICurrentShuntResistance@16
    D5138 __imp__DAQmxSetAICurrentShuntResistance@16
    BCBE4 _DAQmxResetAICurrentShuntResistance@8
    BCBE4 __imp__DAQmxResetAICurrentShuntResistance@8
    94AEE _DAQmxGetAIExcitSense@12
    94AEE __imp__DAQmxGetAIExcitSense@12
    D5DEC _DAQmxSetAIExcitSense@12
    D5DEC __imp__DAQmxSetAIExcitSense@12
    BD8B2 _DAQmxResetAIExcitSense@8
    BD8B2 __imp__DAQmxResetAIExcitSense@8
    94B62 _DAQmxGetAIExcitSrc@12
    94B62 __imp__DAQmxGetAIExcitSrc@12
    D5E60 _DAQmxSetAIExcitSrc@12
    D5E60 __imp__DAQmxSetAIExcitSrc@12
    BD928 _DAQmxResetAIExcitSrc@8
    BD928 __imp__DAQmxResetAIExcitSrc@8
    94DD0 _DAQmxGetAIExcitVal@12
    94DD0 __imp__DAQmxGetAIExcitVal@12
    D5FCC _DAQmxSetAIExcitVal@16
    D5FCC __imp__DAQmxSetAIExcitVal@16
    BDA98 _DAQmxResetAIExcitVal@8
    BDA98 __imp__DAQmxResetAIExcitVal@8
    94BD4 _DAQmxGetAIExcitUseForScaling@12
    94BD4 __imp__DAQmxGetAIExcitUseForScaling@12
    D5ED2 _DAQmxSetAIExcitUseForScaling@12
    D5ED2 __imp__DAQmxSetAIExcitUseForScaling@12
    BD99C _DAQmxResetAIExcitUseForScaling@8
    BD99C __imp__DAQmxResetAIExcitUseForScaling@8
    94CD0 _DAQmxGetAIExcitUseMultiplexed@12
    94CD0 __imp__DAQmxGetAIExcitUseMultiplexed@12
    D5F4E _DAQmxSetAIExcitUseMultiplexed@12
    D5F4E __imp__DAQmxSetAIExcitUseMultiplexed@12
    BDA1A _DAQmxResetAIExcitUseMultiplexed@8
    BDA1A __imp__DAQmxResetAIExcitUseMultiplexed@8
    9497E _DAQmxGetAIExcitActualVal@12
    9497E __imp__DAQmxGetAIExcitActualVal@12
    D5C7C _DAQmxSetAIExcitActualVal@16
    D5C7C __imp__DAQmxSetAIExcitActualVal@16
    BD740 _DAQmxResetAIExcitActualVal@8
    BD740 __imp__DAQmxResetAIExcitActualVal@8
    949F6 _DAQmxGetAIExcitDCorAC@12
    949F6 __imp__DAQmxGetAIExcitDCorAC@12
    D5CF4 _DAQmxSetAIExcitDCorAC@12
    D5CF4 __imp__DAQmxSetAIExcitDCorAC@12
    BD7BA _DAQmxResetAIExcitDCorAC@8
    BD7BA __imp__DAQmxResetAIExcitDCorAC@8
    94E42 _DAQmxGetAIExcitVoltageOrCurrent@12
    94E42 __imp__DAQmxGetAIExcitVoltageOrCurrent@12
    D603E _DAQmxSetAIExcitVoltageOrCurrent@12
    D603E __imp__DAQmxSetAIExcitVoltageOrCurrent@12
    BDB0C _DAQmxResetAIExcitVoltageOrCurrent@8
    BDB0C __imp__DAQmxResetAIExcitVoltageOrCurrent@8
    94A6C _DAQmxGetAIExcitIdleOutputBehavior@12
    94A6C __imp__DAQmxGetAIExcitIdleOutputBehavior@12
    D5D6A _DAQmxSetAIExcitIdleOutputBehavior@12
    D5D6A __imp__DAQmxSetAIExcitIdleOutputBehavior@12
    BD830 _DAQmxResetAIExcitIdleOutputBehavior@8
    BD830 __imp__DAQmxResetAIExcitIdleOutputBehavior@8
    91284 _DAQmxGetAIACExcitFreq@12
    91284 __imp__DAQmxGetAIACExcitFreq@12
    D2CE0 _DAQmxSetAIACExcitFreq@16
    D2CE0 __imp__DAQmxSetAIACExcitFreq@16
    BA836 _DAQmxResetAIACExcitFreq@8
    BA836 __imp__DAQmxResetAIACExcitFreq@8
    912FA _DAQmxGetAIACExcitSyncEnable@12
    912FA __imp__DAQmxGetAIACExcitSyncEnable@12
    D2D56 _DAQmxSetAIACExcitSyncEnable@12
    D2D56 __imp__DAQmxSetAIACExcitSyncEnable@12
    BA8AC _DAQmxResetAIACExcitSyncEnable@8
    BA8AC __imp__DAQmxResetAIACExcitSyncEnable@8
    913F6 _DAQmxGetAIACExcitWireMode@12
    913F6 __imp__DAQmxGetAIACExcitWireMode@12
    D2DD2 _DAQmxSetAIACExcitWireMode@12
    D2DD2 __imp__DAQmxSetAIACExcitWireMode@12
    BA928 _DAQmxResetAIACExcitWireMode@8
    BA928 __imp__DAQmxResetAIACExcitWireMode@8
    95FF8 _DAQmxGetAIOpenThrmcplDetectEnable@12
    95FF8 __imp__DAQmxGetAIOpenThrmcplDetectEnable@12
    D6E30 _DAQmxSetAIOpenThrmcplDetectEnable@12
    D6E30 __imp__DAQmxSetAIOpenThrmcplDetectEnable@12
    BE916 _DAQmxResetAIOpenThrmcplDetectEnable@8
    BE916 __imp__DAQmxResetAIOpenThrmcplDetectEnable@8
    9750E _DAQmxGetAIThrmcplLeadOffsetVoltage@12
    9750E __imp__DAQmxGetAIThrmcplLeadOffsetVoltage@12
    D7CE4 _DAQmxSetAIThrmcplLeadOffsetVoltage@16
    D7CE4 __imp__DAQmxSetAIThrmcplLeadOffsetVoltage@16
    BF7E6 _DAQmxResetAIThrmcplLeadOffsetVoltage@8
    BF7E6 __imp__DAQmxResetAIThrmcplLeadOffsetVoltage@8
    91748 _DAQmxGetAIAtten@12
    91748 __imp__DAQmxGetAIAtten@12
    D3124 _DAQmxSetAIAtten@16
    D3124 __imp__DAQmxSetAIAtten@16
    BAC80 _DAQmxResetAIAtten@8
    BAC80 __imp__DAQmxResetAIAtten@8
    96178 _DAQmxGetAIProbeAtten@12
    96178 __imp__DAQmxGetAIProbeAtten@12
    D6F2A _DAQmxSetAIProbeAtten@16
    D6F2A __imp__DAQmxSetAIProbeAtten@16
    BEA10 _DAQmxResetAIProbeAtten@8
    BEA10 __imp__DAQmxResetAIProbeAtten@8
    9593A _DAQmxGetAILowpassEnable@12
    9593A __imp__DAQmxGetAILowpassEnable@12
    D695C _DAQmxSetAILowpassEnable@12
    D695C __imp__DAQmxSetAILowpassEnable@12
    BE43A _DAQmxResetAILowpassEnable@8
    BE43A __imp__DAQmxResetAILowpassEnable@8
    958BE _DAQmxGetAILowpassCutoffFreq@12
    958BE __imp__DAQmxGetAILowpassCutoffFreq@12
    D68E0 _DAQmxSetAILowpassCutoffFreq@16
    D68E0 __imp__DAQmxSetAILowpassCutoffFreq@16
    BE3BE _DAQmxResetAILowpassCutoffFreq@8
    BE3BE __imp__DAQmxResetAILowpassCutoffFreq@8
    95A2E _DAQmxGetAILowpassSwitchCapClkSrc@12
    95A2E __imp__DAQmxGetAILowpassSwitchCapClkSrc@12
    D69D4 _DAQmxSetAILowpassSwitchCapClkSrc@12
    D69D4 __imp__DAQmxSetAILowpassSwitchCapClkSrc@12
    BE4B2 _DAQmxResetAILowpassSwitchCapClkSrc@8
    BE4B2 __imp__DAQmxResetAILowpassSwitchCapClkSrc@8
    95B32 _DAQmxGetAILowpassSwitchCapExtClkFreq@12
    95B32 __imp__DAQmxGetAILowpassSwitchCapExtClkFreq@12
    D6AD8 _DAQmxSetAILowpassSwitchCapExtClkFreq@16
    D6AD8 __imp__DAQmxSetAILowpassSwitchCapExtClkFreq@16
    BE5B8 _DAQmxResetAILowpassSwitchCapExtClkFreq@8
    BE5B8 __imp__DAQmxResetAILowpassSwitchCapExtClkFreq@8
    95AAE _DAQmxGetAILowpassSwitchCapExtClkDiv@12
    95AAE __imp__DAQmxGetAILowpassSwitchCapExtClkDiv@12
    D6A54 _DAQmxSetAILowpassSwitchCapExtClkDiv@12
    D6A54 __imp__DAQmxSetAILowpassSwitchCapExtClkDiv@12
    BE534 _DAQmxResetAILowpassSwitchCapExtClkDiv@8
    BE534 __imp__DAQmxResetAILowpassSwitchCapExtClkDiv@8
    95BB6 _DAQmxGetAILowpassSwitchCapOutClkDiv@12
    95BB6 __imp__DAQmxGetAILowpassSwitchCapOutClkDiv@12
    D6B5C _DAQmxSetAILowpassSwitchCapOutClkDiv@12
    D6B5C __imp__DAQmxSetAILowpassSwitchCapOutClkDiv@12
    BE63E _DAQmxResetAILowpassSwitchCapOutClkDiv@8
    BE63E __imp__DAQmxResetAILowpassSwitchCapOutClkDiv@8
    94110 _DAQmxGetAIDigFltrEnable@12
    94110 __imp__DAQmxGetAIDigFltrEnable@12
    D5604 _DAQmxSetAIDigFltrEnable@12
    D5604 __imp__DAQmxSetAIDigFltrEnable@12
    BD0BC _DAQmxResetAIDigFltrEnable@8
    BD0BC __imp__DAQmxResetAIDigFltrEnable@8
    944F6 _DAQmxGetAIDigFltrType@12
    944F6 __imp__DAQmxGetAIDigFltrType@12
    D596E _DAQmxSetAIDigFltrType@12
    D596E __imp__DAQmxSetAIDigFltrType@12
    BD42C _DAQmxResetAIDigFltrType@8
    BD42C __imp__DAQmxResetAIDigFltrType@8
    9447C _DAQmxGetAIDigFltrResponse@12
    9447C __imp__DAQmxGetAIDigFltrResponse@12
    D58F4 _DAQmxSetAIDigFltrResponse@12
    D58F4 __imp__DAQmxSetAIDigFltrResponse@12
    BD3B2 _DAQmxResetAIDigFltrResponse@8
    BD3B2 __imp__DAQmxResetAIDigFltrResponse@8
    94406 _DAQmxGetAIDigFltrOrder@12
    94406 __imp__DAQmxGetAIDigFltrOrder@12
    D587E _DAQmxSetAIDigFltrOrder@12
    D587E __imp__DAQmxSetAIDigFltrOrder@12
    BD33A _DAQmxResetAIDigFltrOrder@8
    BD33A __imp__DAQmxResetAIDigFltrOrder@8
    94288 _DAQmxGetAIDigFltrLowpassCutoffFreq@12
    94288 __imp__DAQmxGetAIDigFltrLowpassCutoffFreq@12
    D5700 _DAQmxSetAIDigFltrLowpassCutoffFreq@16
    D5700 __imp__DAQmxSetAIDigFltrLowpassCutoffFreq@16
    BD1B8 _DAQmxResetAIDigFltrLowpassCutoffFreq@8
    BD1B8 __imp__DAQmxResetAIDigFltrLowpassCutoffFreq@8
    94204 _DAQmxGetAIDigFltrHighpassCutoffFreq@12
    94204 __imp__DAQmxGetAIDigFltrHighpassCutoffFreq@12
    D567C _DAQmxSetAIDigFltrHighpassCutoffFreq@16
    D567C __imp__DAQmxSetAIDigFltrHighpassCutoffFreq@16
    BD134 _DAQmxResetAIDigFltrHighpassCutoffFreq@8
    BD134 __imp__DAQmxResetAIDigFltrHighpassCutoffFreq@8
    93F98 _DAQmxGetAIDigFltrBandpassCenterFreq@12
    93F98 __imp__DAQmxGetAIDigFltrBandpassCenterFreq@12
    D548C _DAQmxSetAIDigFltrBandpassCenterFreq@16
    D548C __imp__DAQmxSetAIDigFltrBandpassCenterFreq@16
    BCF40 _DAQmxResetAIDigFltrBandpassCenterFreq@8
    BCF40 __imp__DAQmxResetAIDigFltrBandpassCenterFreq@8
    9401C _DAQmxGetAIDigFltrBandpassWidth@12
    9401C __imp__DAQmxGetAIDigFltrBandpassWidth@12
    D5510 _DAQmxSetAIDigFltrBandpassWidth@16
    D5510 __imp__DAQmxSetAIDigFltrBandpassWidth@16
    BCFC4 _DAQmxResetAIDigFltrBandpassWidth@8
    BCFC4 __imp__DAQmxResetAIDigFltrBandpassWidth@8
    9430A _DAQmxGetAIDigFltrNotchCenterFreq@12
    9430A __imp__DAQmxGetAIDigFltrNotchCenterFreq@12
    D5782 _DAQmxSetAIDigFltrNotchCenterFreq@16
    D5782 __imp__DAQmxSetAIDigFltrNotchCenterFreq@16
    BD23C _DAQmxResetAIDigFltrNotchCenterFreq@8
    BD23C __imp__DAQmxResetAIDigFltrNotchCenterFreq@8
    9438A _DAQmxGetAIDigFltrNotchWidth@12
    9438A __imp__DAQmxGetAIDigFltrNotchWidth@12
    D5802 _DAQmxSetAIDigFltrNotchWidth@16
    D5802 __imp__DAQmxSetAIDigFltrNotchWidth@16
    BD2BE _DAQmxResetAIDigFltrNotchWidth@8
    BD2BE __imp__DAQmxResetAIDigFltrNotchWidth@8
    9409A _DAQmxGetAIDigFltrCoeff@16
    9409A __imp__DAQmxGetAIDigFltrCoeff@16
    D558E _DAQmxSetAIDigFltrCoeff@16
    D558E __imp__DAQmxSetAIDigFltrCoeff@16
    BD044 _DAQmxResetAIDigFltrCoeff@8
    BD044 __imp__DAQmxResetAIDigFltrCoeff@8
    94EC2 _DAQmxGetAIFilterDelay@12
    94EC2 __imp__DAQmxGetAIFilterDelay@12
    94FB8 _DAQmxGetAIFilterDelayUnits@12
    94FB8 __imp__DAQmxGetAIFilterDelayUnits@12
    D613E _DAQmxSetAIFilterDelayUnits@12
    D613E __imp__DAQmxSetAIFilterDelayUnits@12
    BDC0C _DAQmxResetAIFilterDelayUnits@8
    BDC0C __imp__DAQmxResetAIFilterDelayUnits@8
    966F8 _DAQmxGetAIRemoveFilterDelay@12
    966F8 __imp__DAQmxGetAIRemoveFilterDelay@12
    D73B6 _DAQmxSetAIRemoveFilterDelay@12
    D73B6 __imp__DAQmxSetAIRemoveFilterDelay@12
    BEEA8 _DAQmxResetAIRemoveFilterDelay@8
    BEEA8 __imp__DAQmxResetAIRemoveFilterDelay@8
    94F38 _DAQmxGetAIFilterDelayAdjustment@12
    94F38 __imp__DAQmxGetAIFilterDelayAdjustment@12
    D60BE _DAQmxSetAIFilterDelayAdjustment@16
    D60BE __imp__DAQmxSetAIFilterDelayAdjustment@16
    BDB8C _DAQmxResetAIFilterDelayAdjustment@8
    BDB8C __imp__DAQmxResetAIFilterDelayAdjustment@8
    9182E _DAQmxGetAIAveragingWinSize@12
    9182E __imp__DAQmxGetAIAveragingWinSize@12
    D320A _DAQmxSetAIAveragingWinSize@12
    D320A __imp__DAQmxSetAIAveragingWinSize@12
    BAD68 _DAQmxResetAIAveragingWinSize@8
    BAD68 __imp__DAQmxResetAIAveragingWinSize@8
    9695A _DAQmxGetAIResolutionUnits@12
    9695A __imp__DAQmxGetAIResolutionUnits@12
    968E6 _DAQmxGetAIResolution@12
    968E6 __imp__DAQmxGetAIResolution@12
    96682 _DAQmxGetAIRawSampSize@12
    96682 __imp__DAQmxGetAIRawSampSize@12
    96604 _DAQmxGetAIRawSampJustification@12
    96604 __imp__DAQmxGetAIRawSampJustification@12
    914EE _DAQmxGetAIADCTimingMode@12
    914EE __imp__DAQmxGetAIADCTimingMode@12
    D2ECA _DAQmxSetAIADCTimingMode@12
    D2ECA __imp__DAQmxSetAIADCTimingMode@12
    BAA20 _DAQmxResetAIADCTimingMode@8
    BAA20 __imp__DAQmxResetAIADCTimingMode@8
    91470 _DAQmxGetAIADCCustomTimingMode@12
    91470 __imp__DAQmxGetAIADCCustomTimingMode@12
    D2E4C _DAQmxSetAIADCCustomTimingMode@12
    D2E4C __imp__DAQmxSetAIADCCustomTimingMode@12
    BA9A2 _DAQmxResetAIADCCustomTimingMode@8
    BA9A2 __imp__DAQmxResetAIADCCustomTimingMode@8
    945E2 _DAQmxGetAIDitherEnable@12
    945E2 __imp__DAQmxGetAIDitherEnable@12
    D59E4 _DAQmxSetAIDitherEnable@12
    D59E4 __imp__DAQmxSetAIDitherEnable@12
    BD4A2 _DAQmxResetAIDitherEnable@8
    BD4A2 __imp__DAQmxResetAIDitherEnable@8
    929D8 _DAQmxGetAIChanCalHasValidCalInfo@12
    929D8 __imp__DAQmxGetAIChanCalHasValidCalInfo@12
    92868 _DAQmxGetAIChanCalEnableCal@12
    92868 __imp__DAQmxGetAIChanCalEnableCal@12
    D4140 _DAQmxSetAIChanCalEnableCal@12
    D4140 __imp__DAQmxSetAIChanCalEnableCal@12
    BBC42 _DAQmxResetAIChanCalEnableCal@8
    BBC42 __imp__DAQmxResetAIChanCalEnableCal@8
    9267A _DAQmxGetAIChanCalApplyCalIfExp@12
    9267A __imp__DAQmxGetAIChanCalApplyCalIfExp@12
    D3FD4 _DAQmxSetAIChanCalApplyCalIfExp@12
    D3FD4 __imp__DAQmxSetAIChanCalApplyCalIfExp@12
    BBB4C _DAQmxResetAIChanCalApplyCalIfExp@8
    BBB4C __imp__DAQmxResetAIChanCalApplyCalIfExp@8
    92C5E _DAQmxGetAIChanCalScaleType@12
    92C5E __imp__DAQmxGetAIChanCalScaleType@12
    D43B4 _DAQmxSetAIChanCalScaleType@12
    D43B4 __imp__DAQmxSetAIChanCalScaleType@12
    BBE40 _DAQmxResetAIChanCalScaleType@8
    BBE40 __imp__DAQmxResetAIChanCalScaleType@8
    92CD8 _DAQmxGetAIChanCalTablePreScaledVals@16
    92CD8 __imp__DAQmxGetAIChanCalTablePreScaledVals@16
    D442E _DAQmxSetAIChanCalTablePreScaledVals@16
    D442E __imp__DAQmxSetAIChanCalTablePreScaledVals@16
    BBEBC _DAQmxResetAIChanCalTablePreScaledVals@8
    BBEBC __imp__DAQmxResetAIChanCalTablePreScaledVals@8
    92D5C _DAQmxGetAIChanCalTableScaledVals@16
    92D5C __imp__DAQmxGetAIChanCalTableScaledVals@16
    D44B2 _DAQmxSetAIChanCalTableScaledVals@16
    D44B2 __imp__DAQmxSetAIChanCalTableScaledVals@16
    BBF40 _DAQmxResetAIChanCalTableScaledVals@8
    BBF40 __imp__DAQmxResetAIChanCalTableScaledVals@8
    92B5A _DAQmxGetAIChanCalPolyForwardCoeff@16
    92B5A __imp__DAQmxGetAIChanCalPolyForwardCoeff@16
    D42B0 _DAQmxSetAIChanCalPolyForwardCoeff@16
    D42B0 __imp__DAQmxSetAIChanCalPolyForwardCoeff@16
    BBD3C _DAQmxResetAIChanCalPolyForwardCoeff@8
    BBD3C __imp__DAQmxResetAIChanCalPolyForwardCoeff@8
    92BDC _DAQmxGetAIChanCalPolyReverseCoeff@16
    92BDC __imp__DAQmxGetAIChanCalPolyReverseCoeff@16
    D4332 _DAQmxSetAIChanCalPolyReverseCoeff@16
    D4332 __imp__DAQmxSetAIChanCalPolyReverseCoeff@16
    BBDBE _DAQmxResetAIChanCalPolyReverseCoeff@8
    BBDBE __imp__DAQmxResetAIChanCalPolyReverseCoeff@8
    92ADC _DAQmxGetAIChanCalOperatorName@16
    92ADC __imp__DAQmxGetAIChanCalOperatorName@16
    D4232 _DAQmxSetAIChanCalOperatorName@12
    D4232 __imp__DAQmxSetAIChanCalOperatorName@12
    BBCBE _DAQmxResetAIChanCalOperatorName@8
    BBCBE __imp__DAQmxResetAIChanCalOperatorName@8
    927F2 _DAQmxGetAIChanCalDesc@16
    927F2 __imp__DAQmxGetAIChanCalDesc@16
    D40CA _DAQmxSetAIChanCalDesc@12
    D40CA __imp__DAQmxSetAIChanCalDesc@12
    BBBCC _DAQmxResetAIChanCalDesc@8
    BBBCC __imp__DAQmxResetAIChanCalDesc@8
    92E5A _DAQmxGetAIChanCalVerifRefVals@16
    92E5A __imp__DAQmxGetAIChanCalVerifRefVals@16
    D45B0 _DAQmxSetAIChanCalVerifRefVals@16
    D45B0 __imp__DAQmxSetAIChanCalVerifRefVals@16
    BC040 _DAQmxResetAIChanCalVerifRefVals@8
    BC040 __imp__DAQmxResetAIChanCalVerifRefVals@8
    92DDC _DAQmxGetAIChanCalVerifAcqVals@16
    92DDC __imp__DAQmxGetAIChanCalVerifAcqVals@16
    D4532 _DAQmxSetAIChanCalVerifAcqVals@16
    D4532 __imp__DAQmxSetAIChanCalVerifAcqVals@16
    BBFC2 _DAQmxResetAIChanCalVerifAcqVals@8
    BBFC2 __imp__DAQmxResetAIChanCalVerifAcqVals@8
    969D4 _DAQmxGetAIRngHigh@12
    969D4 __imp__DAQmxGetAIRngHigh@12
    D7524 _DAQmxSetAIRngHigh@16
    D7524 __imp__DAQmxSetAIRngHigh@16
    BF016 _DAQmxResetAIRngHigh@8
    BF016 __imp__DAQmxResetAIRngHigh@8
    96A46 _DAQmxGetAIRngLow@12
    96A46 __imp__DAQmxGetAIRngLow@12
    D7596 _DAQmxSetAIRngLow@16
    D7596 __imp__DAQmxSetAIRngLow@16
    BF088 _DAQmxResetAIRngLow@8
    BF088 __imp__DAQmxResetAIRngLow@8
    93D3A _DAQmxGetAIDCOffset@12
    93D3A __imp__DAQmxGetAIDCOffset@12
    D52A8 _DAQmxSetAIDCOffset@16
    D52A8 __imp__DAQmxSetAIDCOffset@16
    BCD58 _DAQmxResetAIDCOffset@8
    BCD58 __imp__DAQmxResetAIDCOffset@8
    95412 _DAQmxGetAIGain@12
    95412 __imp__DAQmxGetAIGain@12
    D6518 _DAQmxSetAIGain@16
    D6518 __imp__DAQmxSetAIGain@16
    BDFEE _DAQmxResetAIGain@8
    BDFEE __imp__DAQmxResetAIGain@8
    96CD2 _DAQmxGetAISampAndHoldEnable@12
    96CD2 __imp__DAQmxGetAISampAndHoldEnable@12
    D7716 _DAQmxSetAISampAndHoldEnable@12
    D7716 __imp__DAQmxSetAISampAndHoldEnable@12
    BF20E _DAQmxResetAISampAndHoldEnable@8
    BF20E __imp__DAQmxResetAISampAndHoldEnable@8
    917B8 _DAQmxGetAIAutoZeroMode@12
    917B8 __imp__DAQmxGetAIAutoZeroMode@12
    D3194 _DAQmxSetAIAutoZeroMode@12
    D3194 __imp__DAQmxSetAIAutoZeroMode@12
    BACF0 _DAQmxResetAIAutoZeroMode@8
    BACF0 __imp__DAQmxResetAIAutoZeroMode@8
    93E2E _DAQmxGetAIDataXferMech@12
    93E2E __imp__DAQmxGetAIDataXferMech@12
    D539C _DAQmxSetAIDataXferMech@12
    D539C __imp__DAQmxSetAIDataXferMech@12
    BCE4E _DAQmxResetAIDataXferMech@8
    BCE4E __imp__DAQmxResetAIDataXferMech@8
    93EA4 _DAQmxGetAIDataXferReqCond@12
    93EA4 __imp__DAQmxGetAIDataXferReqCond@12
    D5412 _DAQmxSetAIDataXferReqCond@12
    D5412 __imp__DAQmxSetAIDataXferReqCond@12
    BCEC6 _DAQmxResetAIDataXferReqCond@8
    BCEC6 __imp__DAQmxResetAIDataXferReqCond@8
    93DAC _DAQmxGetAIDataXferCustomThreshold@12
    93DAC __imp__DAQmxGetAIDataXferCustomThreshold@12
    D531A _DAQmxSetAIDataXferCustomThreshold@12
    D531A __imp__DAQmxSetAIDataXferCustomThreshold@12
    BCDCC _DAQmxResetAIDataXferCustomThreshold@8
    BCDCC __imp__DAQmxResetAIDataXferCustomThreshold@8
    9793A _DAQmxGetAIUsbXferReqSize@12
    9793A __imp__DAQmxGetAIUsbXferReqSize@12
    D8110 _DAQmxSetAIUsbXferReqSize@12
    D8110 __imp__DAQmxSetAIUsbXferReqSize@12
    BFC1C _DAQmxResetAIUsbXferReqSize@8
    BFC1C __imp__DAQmxResetAIUsbXferReqSize@8
    978C0 _DAQmxGetAIUsbXferReqCount@12
    978C0 __imp__DAQmxGetAIUsbXferReqCount@12
    D8096 _DAQmxSetAIUsbXferReqCount@12
    D8096 __imp__DAQmxSetAIUsbXferReqCount@12
    BFBA2 _DAQmxResetAIUsbXferReqCount@8
    BFBA2 __imp__DAQmxResetAIUsbXferReqCount@8
    95D1A _DAQmxGetAIMemMapEnable@12
    95D1A __imp__DAQmxGetAIMemMapEnable@12
    D6C4E _DAQmxSetAIMemMapEnable@12
    D6C4E __imp__DAQmxSetAIMemMapEnable@12
    BE730 _DAQmxResetAIMemMapEnable@8
    BE730 __imp__DAQmxResetAIMemMapEnable@8
    96584 _DAQmxGetAIRawDataCompressionType@12
    96584 __imp__DAQmxGetAIRawDataCompressionType@12
    D7336 _DAQmxSetAIRawDataCompressionType@12
    D7336 __imp__DAQmxSetAIRawDataCompressionType@12
    BEE26 _DAQmxResetAIRawDataCompressionType@8
    BEE26 __imp__DAQmxResetAIRawDataCompressionType@8
    95832 _DAQmxGetAILossyLSBRemovalCompressedSampSize@12
    95832 __imp__DAQmxGetAILossyLSBRemovalCompressedSampSize@12
    D6854 _DAQmxSetAILossyLSBRemovalCompressedSampSize@12
    D6854 __imp__DAQmxSetAILossyLSBRemovalCompressedSampSize@12
    BE332 _DAQmxResetAILossyLSBRemovalCompressedSampSize@8
    BE332 __imp__DAQmxResetAILossyLSBRemovalCompressedSampSize@8
    93F1E _DAQmxGetAIDevScalingCoeff@16
    93F1E __imp__DAQmxGetAIDevScalingCoeff@16
    9486E _DAQmxGetAIEnhancedAliasRejectionEnable@12
    9486E __imp__DAQmxGetAIEnhancedAliasRejectionEnable@12
    D5BF6 _DAQmxSetAIEnhancedAliasRejectionEnable@12
    D5BF6 __imp__DAQmxSetAIEnhancedAliasRejectionEnable@12
    BD6B8 _DAQmxResetAIEnhancedAliasRejectionEnable@8
    BD6B8 __imp__DAQmxResetAIEnhancedAliasRejectionEnable@8
    95EF8 _DAQmxGetAIOpenChanDetectEnable@12
    95EF8 __imp__DAQmxGetAIOpenChanDetectEnable@12
    D6DB2 _DAQmxSetAIOpenChanDetectEnable@12
    D6DB2 __imp__DAQmxSetAIOpenChanDetectEnable@12
    BE896 _DAQmxResetAIOpenChanDetectEnable@8
    BE896 __imp__DAQmxResetAIOpenChanDetectEnable@8
    98C62 _DAQmxGetAOMax@12
    98C62 __imp__DAQmxGetAOMax@12
    D9234 _DAQmxSetAOMax@16
    D9234 __imp__DAQmxSetAOMax@16
    C0D64 _DAQmxResetAOMax@8
    C0D64 __imp__DAQmxResetAOMax@8
    98DC0 _DAQmxGetAOMin@12
    98DC0 __imp__DAQmxGetAOMin@12
    D9318 _DAQmxSetAOMin@16
    D9318 __imp__DAQmxSetAOMin@16
    C0E4A _DAQmxResetAOMin@8
    C0E4A __imp__DAQmxResetAOMin@8
    97D9E _DAQmxGetAOCustomScaleName@16
    97D9E __imp__DAQmxGetAOCustomScaleName@16
    D8574 _DAQmxSetAOCustomScaleName@12
    D8574 __imp__DAQmxSetAOCustomScaleName@12
    C008A _DAQmxResetAOCustomScaleName@8
    C008A __imp__DAQmxResetAOCustomScaleName@8
    98EA8 _DAQmxGetAOOutputType@12
    98EA8 __imp__DAQmxGetAOOutputType@12
    99740 _DAQmxGetAOVoltageUnits@12
    99740 __imp__DAQmxGetAOVoltageUnits@12
    D97CC _DAQmxSetAOVoltageUnits@12
    D97CC __imp__DAQmxSetAOVoltageUnits@12
    C1304 _DAQmxResetAOVoltageUnits@8
    C1304 __imp__DAQmxResetAOVoltageUnits@8
    996C2 _DAQmxGetAOVoltageCurrentLimit@12
    996C2 __imp__DAQmxGetAOVoltageCurrentLimit@12
    D974E _DAQmxSetAOVoltageCurrentLimit@16
    D974E __imp__DAQmxSetAOVoltageCurrentLimit@16
    C1286 _DAQmxResetAOVoltageCurrentLimit@8
    C1286 __imp__DAQmxResetAOVoltageCurrentLimit@8
    97D28 _DAQmxGetAOCurrentUnits@12
    97D28 __imp__DAQmxGetAOCurrentUnits@12
    D84FE _DAQmxSetAOCurrentUnits@12
    D84FE __imp__DAQmxSetAOCurrentUnits@12
    C0012 _DAQmxResetAOCurrentUnits@8
    C0012 __imp__DAQmxResetAOCurrentUnits@8
    98A8A _DAQmxGetAOFuncGenType@12
    98A8A __imp__DAQmxGetAOFuncGenType@12
    D905C _DAQmxSetAOFuncGenType@12
    D905C __imp__DAQmxSetAOFuncGenType@12
    C0B88 _DAQmxResetAOFuncGenType@8
    C0B88 __imp__DAQmxResetAOFuncGenType@8
    9889C _DAQmxGetAOFuncGenFreq@12
    9889C __imp__DAQmxGetAOFuncGenFreq@12
    D8E6E _DAQmxSetAOFuncGenFreq@16
    D8E6E __imp__DAQmxSetAOFuncGenFreq@16
    C0998 _DAQmxResetAOFuncGenFreq@8
    C0998 __imp__DAQmxResetAOFuncGenFreq@8
    987A6 _DAQmxGetAOFuncGenAmplitude@12
    987A6 __imp__DAQmxGetAOFuncGenAmplitude@12
    D8D78 _DAQmxSetAOFuncGenAmplitude@16
    D8D78 __imp__DAQmxSetAOFuncGenAmplitude@16
    C089E _DAQmxResetAOFuncGenAmplitude@8
    C089E __imp__DAQmxResetAOFuncGenAmplitude@8
    98992 _DAQmxGetAOFuncGenOffset@12
    98992 __imp__DAQmxGetAOFuncGenOffset@12
    D8F64 _DAQmxSetAOFuncGenOffset@16
    D8F64 __imp__DAQmxSetAOFuncGenOffset@16
    C0A8E _DAQmxResetAOFuncGenOffset@8
    C0A8E __imp__DAQmxResetAOFuncGenOffset@8
    98A0A _DAQmxGetAOFuncGenSquareDutyCycle@12
    98A0A __imp__DAQmxGetAOFuncGenSquareDutyCycle@12
    D8FDC _DAQmxSetAOFuncGenSquareDutyCycle@16
    D8FDC __imp__DAQmxSetAOFuncGenSquareDutyCycle@16
    C0B06 _DAQmxResetAOFuncGenSquareDutyCycle@8
    C0B06 __imp__DAQmxResetAOFuncGenSquareDutyCycle@8
    98912 _DAQmxGetAOFuncGenModulationType@12
    98912 __imp__DAQmxGetAOFuncGenModulationType@12
    D8EE4 _DAQmxSetAOFuncGenModulationType@12
    D8EE4 __imp__DAQmxSetAOFuncGenModulationType@12
    C0A0E _DAQmxResetAOFuncGenModulationType@8
    C0A0E __imp__DAQmxResetAOFuncGenModulationType@8
    98820 _DAQmxGetAOFuncGenFMDeviation@12
    98820 __imp__DAQmxGetAOFuncGenFMDeviation@12
    D8DF2 _DAQmxSetAOFuncGenFMDeviation@16
    D8DF2 __imp__DAQmxSetAOFuncGenFMDeviation@16
    C091A _DAQmxResetAOFuncGenFMDeviation@8
    C091A __imp__DAQmxResetAOFuncGenFMDeviation@8
    98E2E _DAQmxGetAOOutputImpedance@12
    98E2E __imp__DAQmxGetAOOutputImpedance@12
    D9386 _DAQmxSetAOOutputImpedance@16
    D9386 __imp__DAQmxSetAOOutputImpedance@16
    C0EB8 _DAQmxResetAOOutputImpedance@8
    C0EB8 __imp__DAQmxResetAOOutputImpedance@8
    98BEA _DAQmxGetAOLoadImpedance@12
    98BEA __imp__DAQmxGetAOLoadImpedance@12
    D91BC _DAQmxSetAOLoadImpedance@16
    D91BC __imp__DAQmxSetAOLoadImpedance@16
    C0CEC _DAQmxResetAOLoadImpedance@8
    C0CEC __imp__DAQmxResetAOLoadImpedance@8
    98B6E _DAQmxGetAOIdleOutputBehavior@12
    98B6E __imp__DAQmxGetAOIdleOutputBehavior@12
    D9140 _DAQmxSetAOIdleOutputBehavior@12
    D9140 __imp__DAQmxSetAOIdleOutputBehavior@12
    C0C6E _DAQmxResetAOIdleOutputBehavior@8
    C0C6E __imp__DAQmxResetAOIdleOutputBehavior@8
    99466 _DAQmxGetAOTermCfg@12
    99466 __imp__DAQmxGetAOTermCfg@12
    D9570 _DAQmxSetAOTermCfg@12
    D9570 __imp__DAQmxSetAOTermCfg@12
    C10A6 _DAQmxResetAOTermCfg@8
    C10A6 __imp__DAQmxResetAOTermCfg@8
    993EC _DAQmxGetAOResolutionUnits@12
    993EC __imp__DAQmxGetAOResolutionUnits@12
    D94F6 _DAQmxSetAOResolutionUnits@12
    D94F6 __imp__DAQmxSetAOResolutionUnits@12
    C102C _DAQmxResetAOResolutionUnits@8
    C102C __imp__DAQmxResetAOResolutionUnits@8
    99378 _DAQmxGetAOResolution@12
    99378 __imp__DAQmxGetAOResolution@12
    982D4 _DAQmxGetAODACRngHigh@12
    982D4 __imp__DAQmxGetAODACRngHigh@12
    D89AA _DAQmxSetAODACRngHigh@16
    D89AA __imp__DAQmxSetAODACRngHigh@16
    C04C8 _DAQmxResetAODACRngHigh@8
    C04C8 __imp__DAQmxResetAODACRngHigh@8
    98348 _DAQmxGetAODACRngLow@12
    98348 __imp__DAQmxGetAODACRngLow@12
    D8A1E _DAQmxSetAODACRngLow@16
    D8A1E __imp__DAQmxSetAODACRngLow@16
    C053E _DAQmxResetAODACRngLow@8
    C053E __imp__DAQmxResetAODACRngLow@8
    9807E _DAQmxGetAODACRefConnToGnd@12
    9807E __imp__DAQmxGetAODACRefConnToGnd@12
    D87D2 _DAQmxSetAODACRefConnToGnd@12
    D87D2 __imp__DAQmxSetAODACRefConnToGnd@12
    C02EE _DAQmxResetAODACRefConnToGnd@8
    C02EE __imp__DAQmxResetAODACRefConnToGnd@8
    97F7E _DAQmxGetAODACRefAllowConnToGnd@12
    97F7E __imp__DAQmxGetAODACRefAllowConnToGnd@12
    D8754 _DAQmxSetAODACRefAllowConnToGnd@12
    D8754 __imp__DAQmxSetAODACRefAllowConnToGnd@12
    C026E _DAQmxResetAODACRefAllowConnToGnd@8
    C026E __imp__DAQmxResetAODACRefAllowConnToGnd@8
    981EC _DAQmxGetAODACRefSrc@12
    981EC __imp__DAQmxGetAODACRefSrc@12
    D88C2 _DAQmxSetAODACRefSrc@12
    D88C2 __imp__DAQmxSetAODACRefSrc@12
    C03E0 _DAQmxResetAODACRefSrc@8
    C03E0 __imp__DAQmxResetAODACRefSrc@8
    98176 _DAQmxGetAODACRefExtSrc@16
    98176 __imp__DAQmxGetAODACRefExtSrc@16
    D884C _DAQmxSetAODACRefExtSrc@12
    D884C __imp__DAQmxSetAODACRefExtSrc@12
    C0368 _DAQmxResetAODACRefExtSrc@8
    C0368 __imp__DAQmxResetAODACRefExtSrc@8
    98260 _DAQmxGetAODACRefVal@12
    98260 __imp__DAQmxGetAODACRefVal@12
    D8936 _DAQmxSetAODACRefVal@16
    D8936 __imp__DAQmxSetAODACRefVal@16
    C0454 _DAQmxResetAODACRefVal@8
    C0454 __imp__DAQmxResetAODACRefVal@8
    97E92 _DAQmxGetAODACOffsetSrc@12
    97E92 __imp__DAQmxGetAODACOffsetSrc@12
    D8668 _DAQmxSetAODACOffsetSrc@12
    D8668 __imp__DAQmxSetAODACOffsetSrc@12
    C017E _DAQmxResetAODACOffsetSrc@8
    C017E __imp__DAQmxResetAODACOffsetSrc@8
    97E18 _DAQmxGetAODACOffsetExtSrc@16
    97E18 __imp__DAQmxGetAODACOffsetExtSrc@16
    D85EE _DAQmxSetAODACOffsetExtSrc@12
    D85EE __imp__DAQmxSetAODACOffsetExtSrc@12
    C0104 _DAQmxResetAODACOffsetExtSrc@8
    C0104 __imp__DAQmxResetAODACOffsetExtSrc@8
    97F08 _DAQmxGetAODACOffsetVal@12
    97F08 __imp__DAQmxGetAODACOffsetVal@12
    D86DE _DAQmxSetAODACOffsetVal@16
    D86DE __imp__DAQmxSetAODACOffsetVal@16
    C01F6 _DAQmxResetAODACOffsetVal@8
    C01F6 __imp__DAQmxResetAODACOffsetVal@8
    99284 _DAQmxGetAOReglitchEnable@12
    99284 __imp__DAQmxGetAOReglitchEnable@12
    D947E _DAQmxSetAOReglitchEnable@12
    D947E __imp__DAQmxSetAOReglitchEnable@12
    C0FB2 _DAQmxResetAOReglitchEnable@8
    C0FB2 __imp__DAQmxResetAOReglitchEnable@8
    98636 _DAQmxGetAOFilterDelay@12
    98636 __imp__DAQmxGetAOFilterDelay@12
    D8C08 _DAQmxSetAOFilterDelay@16
    D8C08 __imp__DAQmxSetAOFilterDelay@16
    C072C _DAQmxResetAOFilterDelay@8
    C072C __imp__DAQmxResetAOFilterDelay@8
    9872C _DAQmxGetAOFilterDelayUnits@12
    9872C __imp__DAQmxGetAOFilterDelayUnits@12
    D8CFE _DAQmxSetAOFilterDelayUnits@12
    D8CFE __imp__DAQmxSetAOFilterDelayUnits@12
    C0822 _DAQmxResetAOFilterDelayUnits@8
    C0822 __imp__DAQmxResetAOFilterDelayUnits@8
    986AC _DAQmxGetAOFilterDelayAdjustment@12
    986AC __imp__DAQmxGetAOFilterDelayAdjustment@12
    D8C7E _DAQmxSetAOFilterDelayAdjustment@16
    D8C7E __imp__DAQmxSetAOFilterDelayAdjustment@16
    C07A2 _DAQmxResetAOFilterDelayAdjustment@8
    C07A2 __imp__DAQmxResetAOFilterDelayAdjustment@8
    98B00 _DAQmxGetAOGain@12
    98B00 __imp__DAQmxGetAOGain@12
    D90D2 _DAQmxSetAOGain@16
    D90D2 __imp__DAQmxSetAOGain@16
    C0BFE _DAQmxResetAOGain@8
    C0BFE __imp__DAQmxResetAOGain@8
    995CA _DAQmxGetAOUseOnlyOnBrdMem@12
    995CA __imp__DAQmxGetAOUseOnlyOnBrdMem@12
    D96D4 _DAQmxSetAOUseOnlyOnBrdMem@12
    D96D4 __imp__DAQmxSetAOUseOnlyOnBrdMem@12
    C120C _DAQmxResetAOUseOnlyOnBrdMem@8
    C120C __imp__DAQmxResetAOUseOnlyOnBrdMem@8
    983BC _DAQmxGetAODataXferMech@12
    983BC __imp__DAQmxGetAODataXferMech@12
    D8A92 _DAQmxSetAODataXferMech@12
    D8A92 __imp__DAQmxSetAODataXferMech@12
    C05B2 _DAQmxResetAODataXferMech@8
    C05B2 __imp__DAQmxResetAODataXferMech@8
    98432 _DAQmxGetAODataXferReqCond@12
    98432 __imp__DAQmxGetAODataXferReqCond@12
    D8B08 _DAQmxSetAODataXferReqCond@12
    D8B08 __imp__DAQmxSetAODataXferReqCond@12
    C062A _DAQmxResetAODataXferReqCond@8
    C062A __imp__DAQmxResetAODataXferReqCond@8
    99552 _DAQmxGetAOUsbXferReqSize@12
    99552 __imp__DAQmxGetAOUsbXferReqSize@12
    D965C _DAQmxSetAOUsbXferReqSize@12
    D965C __imp__DAQmxSetAOUsbXferReqSize@12
    C1192 _DAQmxResetAOUsbXferReqSize@8
    C1192 __imp__DAQmxResetAOUsbXferReqSize@8
    994D8 _DAQmxGetAOUsbXferReqCount@12
    994D8 __imp__DAQmxGetAOUsbXferReqCount@12
    D95E2 _DAQmxSetAOUsbXferReqCount@12
    D95E2 __imp__DAQmxSetAOUsbXferReqCount@12
    C1118 _DAQmxResetAOUsbXferReqCount@8
    C1118 __imp__DAQmxResetAOUsbXferReqCount@8
    98CD0 _DAQmxGetAOMemMapEnable@12
    98CD0 __imp__DAQmxGetAOMemMapEnable@12
    D92A2 _DAQmxSetAOMemMapEnable@12
    D92A2 __imp__DAQmxSetAOMemMapEnable@12
    C0DD2 _DAQmxResetAOMemMapEnable@8
    C0DD2 __imp__DAQmxResetAOMemMapEnable@8
    984AC _DAQmxGetAODevScalingCoeff@16
    984AC __imp__DAQmxGetAODevScalingCoeff@16
    98526 _DAQmxGetAOEnhancedImageRejectionEnable@12
    98526 __imp__DAQmxGetAOEnhancedImageRejectionEnable@12
    D8B82 _DAQmxSetAOEnhancedImageRejectionEnable@12
    D8B82 __imp__DAQmxSetAOEnhancedImageRejectionEnable@12
    C06A4 _DAQmxResetAOEnhancedImageRejectionEnable@8
    C06A4 __imp__DAQmxResetAOEnhancedImageRejectionEnable@8
    A7022 _DAQmxGetDIInvertLines@12
    A7022 __imp__DAQmxGetDIInvertLines@12
    E44EC _DAQmxSetDIInvertLines@12
    E44EC __imp__DAQmxSetDIInvertLines@12
    CBEB8 _DAQmxResetDIInvertLines@8
    CBEB8 __imp__DAQmxResetDIInvertLines@8
    A7278 _DAQmxGetDINumLines@12
    A7278 __imp__DAQmxGetDINumLines@12
    A6BC2 _DAQmxGetDIDigFltrEnable@12
    A6BC2 __imp__DAQmxGetDIDigFltrEnable@12
    E4206 _DAQmxSetDIDigFltrEnable@12
    E4206 __imp__DAQmxSetDIDigFltrEnable@12
    CBBCC _DAQmxResetDIDigFltrEnable@8
    CBBCC __imp__DAQmxResetDIDigFltrEnable@8
    A6DB6 _DAQmxGetDIDigFltrMinPulseWidth@12
    A6DB6 __imp__DAQmxGetDIDigFltrMinPulseWidth@12
    E42FC _DAQmxSetDIDigFltrMinPulseWidth@16
    E42FC __imp__DAQmxSetDIDigFltrMinPulseWidth@16
    CBCC4 _DAQmxResetDIDigFltrMinPulseWidth@8
    CBCC4 __imp__DAQmxResetDIDigFltrMinPulseWidth@8
    A6C3A _DAQmxGetDIDigFltrEnableBusMode@12
    A6C3A __imp__DAQmxGetDIDigFltrEnableBusMode@12
    E427E _DAQmxSetDIDigFltrEnableBusMode@12
    E427E __imp__DAQmxSetDIDigFltrEnableBusMode@12
    CBC44 _DAQmxResetDIDigFltrEnableBusMode@8
    CBC44 __imp__DAQmxResetDIDigFltrEnableBusMode@8
    A6EB2 _DAQmxGetDIDigFltrTimebaseSrc@16
    A6EB2 __imp__DAQmxGetDIDigFltrTimebaseSrc@16
    E43F8 _DAQmxSetDIDigFltrTimebaseSrc@12
    E43F8 __imp__DAQmxSetDIDigFltrTimebaseSrc@12
    CBDC2 _DAQmxResetDIDigFltrTimebaseSrc@8
    CBDC2 __imp__DAQmxResetDIDigFltrTimebaseSrc@8
    A6E34 _DAQmxGetDIDigFltrTimebaseRate@12
    A6E34 __imp__DAQmxGetDIDigFltrTimebaseRate@12
    E437A _DAQmxSetDIDigFltrTimebaseRate@16
    E437A __imp__DAQmxSetDIDigFltrTimebaseRate@16
    CBD44 _DAQmxResetDIDigFltrTimebaseRate@8
    CBD44 __imp__DAQmxResetDIDigFltrTimebaseRate@8
    A6F2E _DAQmxGetDIDigSyncEnable@12
    A6F2E __imp__DAQmxGetDIDigSyncEnable@12
    E4474 _DAQmxSetDIDigSyncEnable@12
    E4474 __imp__DAQmxSetDIDigSyncEnable@12
    CBE40 _DAQmxResetDIDigSyncEnable@8
    CBE40 __imp__DAQmxResetDIDigSyncEnable@8
    A72EA _DAQmxGetDITristate@12
    A72EA __imp__DAQmxGetDITristate@12
    E464E _DAQmxSetDITristate@12
    E464E __imp__DAQmxSetDITristate@12
    CC01C _DAQmxResetDITristate@8
    CC01C __imp__DAQmxResetDITristate@8
    A7112 _DAQmxGetDILogicFamily@12
    A7112 __imp__DAQmxGetDILogicFamily@12
    E4562 _DAQmxSetDILogicFamily@12
    E4562 __imp__DAQmxSetDILogicFamily@12
    CBF2E _DAQmxResetDILogicFamily@8
    CBF2E __imp__DAQmxResetDILogicFamily@8
    A6AD2 _DAQmxGetDIDataXferMech@12
    A6AD2 __imp__DAQmxGetDIDataXferMech@12
    E4116 _DAQmxSetDIDataXferMech@12
    E4116 __imp__DAQmxSetDIDataXferMech@12
    CBADA _DAQmxResetDIDataXferMech@8
    CBADA __imp__DAQmxResetDIDataXferMech@8
    A6B48 _DAQmxGetDIDataXferReqCond@12
    A6B48 __imp__DAQmxGetDIDataXferReqCond@12
    E418C _DAQmxSetDIDataXferReqCond@12
    E418C __imp__DAQmxSetDIDataXferReqCond@12
    CBB52 _DAQmxResetDIDataXferReqCond@8
    CBB52 __imp__DAQmxResetDIDataXferReqCond@8
    A744C _DAQmxGetDIUsbXferReqSize@12
    A744C __imp__DAQmxGetDIUsbXferReqSize@12
    E473A _DAQmxSetDIUsbXferReqSize@12
    E473A __imp__DAQmxSetDIUsbXferReqSize@12
    CC10A _DAQmxResetDIUsbXferReqSize@8
    CC10A __imp__DAQmxResetDIUsbXferReqSize@8
    A73D2 _DAQmxGetDIUsbXferReqCount@12
    A73D2 __imp__DAQmxGetDIUsbXferReqCount@12
    E46C0 _DAQmxSetDIUsbXferReqCount@12
    E46C0 __imp__DAQmxSetDIUsbXferReqCount@12
    CC090 _DAQmxResetDIUsbXferReqCount@8
    CC090 __imp__DAQmxResetDIUsbXferReqCount@8
    A7188 _DAQmxGetDIMemMapEnable@12
    A7188 __imp__DAQmxGetDIMemMapEnable@12
    E45D8 _DAQmxSetDIMemMapEnable@12
    E45D8 __imp__DAQmxSetDIMemMapEnable@12
    CBFA4 _DAQmxResetDIMemMapEnable@8
    CBFA4 __imp__DAQmxResetDIMemMapEnable@8
    A6A5E _DAQmxGetDIAcquireOn@12
    A6A5E __imp__DAQmxGetDIAcquireOn@12
    E40A2 _DAQmxSetDIAcquireOn@12
    E40A2 __imp__DAQmxSetDIAcquireOn@12
    CBA66 _DAQmxResetDIAcquireOn@8
    CBA66 __imp__DAQmxResetDIAcquireOn@8
    A7A6C _DAQmxGetDOOutputDriveType@12
    A7A6C __imp__DAQmxGetDOOutputDriveType@12
    E4BF4 _DAQmxSetDOOutputDriveType@12
    E4BF4 __imp__DAQmxSetDOOutputDriveType@12
    CC5CE _DAQmxResetDOOutputDriveType@8
    CC5CE __imp__DAQmxResetDOOutputDriveType@8
    A7628 _DAQmxGetDOInvertLines@12
    A7628 __imp__DAQmxGetDOInvertLines@12
    E4916 _DAQmxSetDOInvertLines@12
    E4916 __imp__DAQmxSetDOInvertLines@12
    CC2EC _DAQmxResetDOInvertLines@8
    CC2EC __imp__DAQmxResetDOInvertLines@8
    A79FA _DAQmxGetDONumLines@12
    A79FA __imp__DAQmxGetDONumLines@12
    A7CEC _DAQmxGetDOTristate@12
    A7CEC __imp__DAQmxGetDOTristate@12
    E4DEE _DAQmxSetDOTristate@12
    E4DEE __imp__DAQmxSetDOTristate@12
    CC7CA _DAQmxResetDOTristate@8
    CC7CA __imp__DAQmxResetDOTristate@8
    A7816 _DAQmxGetDOLineStatesStartState@12
    A7816 __imp__DAQmxGetDOLineStatesStartState@12
    E4A8A _DAQmxSetDOLineStatesStartState@12
    E4A8A __imp__DAQmxSetDOLineStatesStartState@12
    CC460 _DAQmxResetDOLineStatesStartState@8
    CC460 __imp__DAQmxResetDOLineStatesStartState@8
    A7796 _DAQmxGetDOLineStatesPausedState@12
    A7796 __imp__DAQmxGetDOLineStatesPausedState@12
    E4A0A _DAQmxSetDOLineStatesPausedState@12
    E4A0A __imp__DAQmxSetDOLineStatesPausedState@12
    CC3E0 _DAQmxResetDOLineStatesPausedState@8
    CC3E0 __imp__DAQmxResetDOLineStatesPausedState@8
    A7718 _DAQmxGetDOLineStatesDoneState@12
    A7718 __imp__DAQmxGetDOLineStatesDoneState@12
    E498C _DAQmxSetDOLineStatesDoneState@12
    E498C __imp__DAQmxSetDOLineStatesDoneState@12
    CC362 _DAQmxResetDOLineStatesDoneState@8
    CC362 __imp__DAQmxResetDOLineStatesDoneState@8
    A7894 _DAQmxGetDOLogicFamily@12
    A7894 __imp__DAQmxGetDOLogicFamily@12
    E4B08 _DAQmxSetDOLogicFamily@12
    E4B08 __imp__DAQmxSetDOLogicFamily@12
    CC4E0 _DAQmxResetDOLogicFamily@8
    CC4E0 __imp__DAQmxResetDOLogicFamily@8
    A7BEE _DAQmxGetDOOvercurrentLimit@12
    A7BEE __imp__DAQmxGetDOOvercurrentLimit@12
    E4CF0 _DAQmxSetDOOvercurrentLimit@16
    E4CF0 __imp__DAQmxSetDOOvercurrentLimit@16
    CC6CA _DAQmxResetDOOvercurrentLimit@8
    CC6CA __imp__DAQmxResetDOOvercurrentLimit@8
    A7AE6 _DAQmxGetDOOvercurrentAutoReenable@12
    A7AE6 __imp__DAQmxGetDOOvercurrentAutoReenable@12
    E4C6E _DAQmxSetDOOvercurrentAutoReenable@12
    E4C6E __imp__DAQmxSetDOOvercurrentAutoReenable@12
    CC648 _DAQmxResetDOOvercurrentAutoReenable@8
    CC648 __imp__DAQmxResetDOOvercurrentAutoReenable@8
    A7C68 _DAQmxGetDOOvercurrentReenablePeriod@12
    A7C68 __imp__DAQmxGetDOOvercurrentReenablePeriod@12
    E4D6A _DAQmxSetDOOvercurrentReenablePeriod@16
    E4D6A __imp__DAQmxSetDOOvercurrentReenablePeriod@16
    CC746 _DAQmxResetDOOvercurrentReenablePeriod@8
    CC746 __imp__DAQmxResetDOOvercurrentReenablePeriod@8
    A7EC6 _DAQmxGetDOUseOnlyOnBrdMem@12
    A7EC6 __imp__DAQmxGetDOUseOnlyOnBrdMem@12
    E4F52 _DAQmxSetDOUseOnlyOnBrdMem@12
    E4F52 __imp__DAQmxSetDOUseOnlyOnBrdMem@12
    CC932 _DAQmxResetDOUseOnlyOnBrdMem@8
    CC932 __imp__DAQmxResetDOUseOnlyOnBrdMem@8
    A74C4 _DAQmxGetDODataXferMech@12
    A74C4 __imp__DAQmxGetDODataXferMech@12
    E47B2 _DAQmxSetDODataXferMech@12
    E47B2 __imp__DAQmxSetDODataXferMech@12
    CC184 _DAQmxResetDODataXferMech@8
    CC184 __imp__DAQmxResetDODataXferMech@8
    A753A _DAQmxGetDODataXferReqCond@12
    A753A __imp__DAQmxGetDODataXferReqCond@12
    E4828 _DAQmxSetDODataXferReqCond@12
    E4828 __imp__DAQmxSetDODataXferReqCond@12
    CC1FC _DAQmxResetDODataXferReqCond@8
    CC1FC __imp__DAQmxResetDODataXferReqCond@8
    A7E4E _DAQmxGetDOUsbXferReqSize@12
    A7E4E __imp__DAQmxGetDOUsbXferReqSize@12
    E4EDA _DAQmxSetDOUsbXferReqSize@12
    E4EDA __imp__DAQmxSetDOUsbXferReqSize@12
    CC8B8 _DAQmxResetDOUsbXferReqSize@8
    CC8B8 __imp__DAQmxResetDOUsbXferReqSize@8
    A7DD4 _DAQmxGetDOUsbXferReqCount@12
    A7DD4 __imp__DAQmxGetDOUsbXferReqCount@12
    E4E60 _DAQmxSetDOUsbXferReqCount@12
    E4E60 __imp__DAQmxSetDOUsbXferReqCount@12
    CC83E _DAQmxResetDOUsbXferReqCount@8
    CC83E __imp__DAQmxResetDOUsbXferReqCount@8
    A790A _DAQmxGetDOMemMapEnable@12
    A790A __imp__DAQmxGetDOMemMapEnable@12
    E4B7E _DAQmxSetDOMemMapEnable@12
    E4B7E __imp__DAQmxSetDOMemMapEnable@12
    CC556 _DAQmxResetDOMemMapEnable@8
    CC556 __imp__DAQmxResetDOMemMapEnable@8
    A75B4 _DAQmxGetDOGenerateOn@12
    A75B4 __imp__DAQmxGetDOGenerateOn@12
    E48A2 _DAQmxSetDOGenerateOn@12
    E48A2 __imp__DAQmxSetDOGenerateOn@12
    CC276 _DAQmxResetDOGenerateOn@8
    CC276 __imp__DAQmxResetDOGenerateOn@8
    A063E _DAQmxGetCIMax@12
    A063E __imp__DAQmxGetCIMax@12
    DF2F6 _DAQmxSetCIMax@16
    DF2F6 __imp__DAQmxSetCIMax@16
    C6D8C _DAQmxResetCIMax@8
    C6D8C __imp__DAQmxResetCIMax@8
    A0886 _DAQmxGetCIMin@12
    A0886 __imp__DAQmxGetCIMin@12
    DF452 _DAQmxSetCIMin@16
    DF452 __imp__DAQmxSetCIMin@16
    C6EEA _DAQmxResetCIMin@8
    C6EEA __imp__DAQmxResetCIMin@8
    9E29A _DAQmxGetCICustomScaleName@16
    9E29A __imp__DAQmxGetCICustomScaleName@16
    DD588 _DAQmxSetCICustomScaleName@12
    DD588 __imp__DAQmxSetCICustomScaleName@12
    C4FE6 _DAQmxResetCICustomScaleName@8
    C4FE6 __imp__DAQmxResetCICustomScaleName@8
    A0724 _DAQmxGetCIMeasType@12
    A0724 __imp__DAQmxGetCIMeasType@12
    A0366 _DAQmxGetCIFreqUnits@12
    A0366 __imp__DAQmxGetCIFreqUnits@12
    DF01E _DAQmxSetCIFreqUnits@12
    DF01E __imp__DAQmxSetCIFreqUnits@12
    C6AAE _DAQmxResetCIFreqUnits@8
    C6AAE __imp__DAQmxResetCIFreqUnits@8
    A027E _DAQmxGetCIFreqTerm@16
    A027E __imp__DAQmxGetCIFreqTerm@16
    DEF36 _DAQmxSetCIFreqTerm@12
    DEF36 __imp__DAQmxSetCIFreqTerm@12
    C69C4 _DAQmxResetCIFreqTerm@8
    C69C4 __imp__DAQmxResetCIFreqTerm@8
    A02F0 _DAQmxGetCIFreqTermCfg@12
    A02F0 __imp__DAQmxGetCIFreqTermCfg@12
    DEFA8 _DAQmxSetCIFreqTermCfg@12
    DEFA8 __imp__DAQmxSetCIFreqTermCfg@12
    C6A38 _DAQmxResetCIFreqTermCfg@8
    C6A38 __imp__DAQmxResetCIFreqTermCfg@8
    A009A _DAQmxGetCIFreqLogicLvlBehavior@12
    A009A __imp__DAQmxGetCIFreqLogicLvlBehavior@12
    DED52 _DAQmxSetCIFreqLogicLvlBehavior@12
    DED52 __imp__DAQmxSetCIFreqLogicLvlBehavior@12
    C67D8 _DAQmxResetCIFreqLogicLvlBehavior@8
    C67D8 __imp__DAQmxResetCIFreqLogicLvlBehavior@8
    9FBAC _DAQmxGetCIFreqDigFltrEnable@12
    9FBAC __imp__DAQmxGetCIFreqDigFltrEnable@12
    DE9E6 _DAQmxSetCIFreqDigFltrEnable@12
    DE9E6 __imp__DAQmxSetCIFreqDigFltrEnable@12
    C6468 _DAQmxResetCIFreqDigFltrEnable@8
    C6468 __imp__DAQmxResetCIFreqDigFltrEnable@8
    9FCA8 _DAQmxGetCIFreqDigFltrMinPulseWidth@12
    9FCA8 __imp__DAQmxGetCIFreqDigFltrMinPulseWidth@12
    DEA62 _DAQmxSetCIFreqDigFltrMinPulseWidth@16
    DEA62 __imp__DAQmxSetCIFreqDigFltrMinPulseWidth@16
    C64E4 _DAQmxResetCIFreqDigFltrMinPulseWidth@8
    C64E4 __imp__DAQmxResetCIFreqDigFltrMinPulseWidth@8
    9FDAC _DAQmxGetCIFreqDigFltrTimebaseSrc@16
    9FDAC __imp__DAQmxGetCIFreqDigFltrTimebaseSrc@16
    DEB66 _DAQmxSetCIFreqDigFltrTimebaseSrc@12
    DEB66 __imp__DAQmxSetCIFreqDigFltrTimebaseSrc@12
    C65EA _DAQmxResetCIFreqDigFltrTimebaseSrc@8
    C65EA __imp__DAQmxResetCIFreqDigFltrTimebaseSrc@8
    9FD2A _DAQmxGetCIFreqDigFltrTimebaseRate@12
    9FD2A __imp__DAQmxGetCIFreqDigFltrTimebaseRate@12
    DEAE4 _DAQmxSetCIFreqDigFltrTimebaseRate@16
    DEAE4 __imp__DAQmxSetCIFreqDigFltrTimebaseRate@16
    C6568 _DAQmxResetCIFreqDigFltrTimebaseRate@8
    C6568 __imp__DAQmxResetCIFreqDigFltrTimebaseRate@8
    9FE2C _DAQmxGetCIFreqDigSyncEnable@12
    9FE2C __imp__DAQmxGetCIFreqDigSyncEnable@12
    DEBE6 _DAQmxSetCIFreqDigSyncEnable@12
    DEBE6 __imp__DAQmxSetCIFreqDigSyncEnable@12
    C666C _DAQmxResetCIFreqDigSyncEnable@8
    C666C __imp__DAQmxResetCIFreqDigSyncEnable@8
    A0204 _DAQmxGetCIFreqStartingEdge@12
    A0204 __imp__DAQmxGetCIFreqStartingEdge@12
    DEEBC _DAQmxSetCIFreqStartingEdge@12
    DEEBC __imp__DAQmxSetCIFreqStartingEdge@12
    C6948 _DAQmxResetCIFreqStartingEdge@8
    C6948 __imp__DAQmxResetCIFreqStartingEdge@8
    A0118 _DAQmxGetCIFreqMeasMeth@12
    A0118 __imp__DAQmxGetCIFreqMeasMeth@12
    DEDD0 _DAQmxSetCIFreqMeasMeth@12
    DEDD0 __imp__DAQmxSetCIFreqMeasMeth@12
    C6858 _DAQmxResetCIFreqMeasMeth@8
    C6858 __imp__DAQmxResetCIFreqMeasMeth@8
    9FF9A _DAQmxGetCIFreqEnableAveraging@12
    9FF9A __imp__DAQmxGetCIFreqEnableAveraging@12
    DECD4 _DAQmxSetCIFreqEnableAveraging@12
    DECD4 __imp__DAQmxSetCIFreqEnableAveraging@12
    C675A _DAQmxResetCIFreqEnableAveraging@8
    C675A __imp__DAQmxResetCIFreqEnableAveraging@8
    A018E _DAQmxGetCIFreqMeasTime@12
    A018E __imp__DAQmxGetCIFreqMeasTime@12
    DEE46 _DAQmxSetCIFreqMeasTime@16
    DEE46 __imp__DAQmxSetCIFreqMeasTime@16
    C68D0 _DAQmxResetCIFreqMeasTime@8
    C68D0 __imp__DAQmxResetCIFreqMeasTime@8
    9FF28 _DAQmxGetCIFreqDiv@12
    9FF28 __imp__DAQmxGetCIFreqDiv@12
    DEC62 _DAQmxSetCIFreqDiv@12
    DEC62 __imp__DAQmxSetCIFreqDiv@12
    C66E8 _DAQmxResetCIFreqDiv@8
    C66E8 __imp__DAQmxResetCIFreqDiv@8
    A11C6 _DAQmxGetCIPeriodUnits@12
    A11C6 __imp__DAQmxGetCIPeriodUnits@12
    DFB12 _DAQmxSetCIPeriodUnits@12
    DFB12 __imp__DAQmxSetCIPeriodUnits@12
    C75B8 _DAQmxResetCIPeriodUnits@8
    C75B8 __imp__DAQmxResetCIPeriodUnits@8
    A10DA _DAQmxGetCIPeriodTerm@16
    A10DA __imp__DAQmxGetCIPeriodTerm@16
    DFA26 _DAQmxSetCIPeriodTerm@12
    DFA26 __imp__DAQmxSetCIPeriodTerm@12
    C74CA _DAQmxResetCIPeriodTerm@8
    C74CA __imp__DAQmxResetCIPeriodTerm@8
    A114E _DAQmxGetCIPeriodTermCfg@12
    A114E __imp__DAQmxGetCIPeriodTermCfg@12
    DFA9A _DAQmxSetCIPeriodTermCfg@12
    DFA9A __imp__DAQmxSetCIPeriodTermCfg@12
    C7540 _DAQmxResetCIPeriodTermCfg@8
    C7540 __imp__DAQmxResetCIPeriodTermCfg@8
    A0EEE _DAQmxGetCIPeriodLogicLvlBehavior@12
    A0EEE __imp__DAQmxGetCIPeriodLogicLvlBehavior@12
    DF83A _DAQmxSetCIPeriodLogicLvlBehavior@12
    DF83A __imp__DAQmxSetCIPeriodLogicLvlBehavior@12
    C72D6 _DAQmxResetCIPeriodLogicLvlBehavior@8
    C72D6 __imp__DAQmxResetCIPeriodLogicLvlBehavior@8
    A09EC _DAQmxGetCIPeriodDigFltrEnable@12
    A09EC __imp__DAQmxGetCIPeriodDigFltrEnable@12
    DF4C0 _DAQmxSetCIPeriodDigFltrEnable@12
    DF4C0 __imp__DAQmxSetCIPeriodDigFltrEnable@12
    C6F58 _DAQmxResetCIPeriodDigFltrEnable@8
    C6F58 __imp__DAQmxResetCIPeriodDigFltrEnable@8
    A0AEC _DAQmxGetCIPeriodDigFltrMinPulseWidth@12
    A0AEC __imp__DAQmxGetCIPeriodDigFltrMinPulseWidth@12
    DF53E _DAQmxSetCIPeriodDigFltrMinPulseWidth@16
    DF53E __imp__DAQmxSetCIPeriodDigFltrMinPulseWidth@16
    C6FD6 _DAQmxResetCIPeriodDigFltrMinPulseWidth@8
    C6FD6 __imp__DAQmxResetCIPeriodDigFltrMinPulseWidth@8
    A0BF4 _DAQmxGetCIPeriodDigFltrTimebaseSrc@16
    A0BF4 __imp__DAQmxGetCIPeriodDigFltrTimebaseSrc@16
    DF646 _DAQmxSetCIPeriodDigFltrTimebaseSrc@12
    DF646 __imp__DAQmxSetCIPeriodDigFltrTimebaseSrc@12
    C70E0 _DAQmxResetCIPeriodDigFltrTimebaseSrc@8
    C70E0 __imp__DAQmxResetCIPeriodDigFltrTimebaseSrc@8
    A0B70 _DAQmxGetCIPeriodDigFltrTimebaseRate@12
    A0B70 __imp__DAQmxGetCIPeriodDigFltrTimebaseRate@12
    DF5C2 _DAQmxSetCIPeriodDigFltrTimebaseRate@16
    DF5C2 __imp__DAQmxSetCIPeriodDigFltrTimebaseRate@16
    C705C _DAQmxResetCIPeriodDigFltrTimebaseRate@8
    C705C __imp__DAQmxResetCIPeriodDigFltrTimebaseRate@8
    A0C76 _DAQmxGetCIPeriodDigSyncEnable@12
    A0C76 __imp__DAQmxGetCIPeriodDigSyncEnable@12
    DF6C8 _DAQmxSetCIPeriodDigSyncEnable@12
    DF6C8 __imp__DAQmxSetCIPeriodDigSyncEnable@12
    C7164 _DAQmxResetCIPeriodDigSyncEnable@8
    C7164 __imp__DAQmxResetCIPeriodDigSyncEnable@8
    A105E _DAQmxGetCIPeriodStartingEdge@12
    A105E __imp__DAQmxGetCIPeriodStartingEdge@12
    DF9AA _DAQmxSetCIPeriodStartingEdge@12
    DF9AA __imp__DAQmxSetCIPeriodStartingEdge@12
    C744C _DAQmxResetCIPeriodStartingEdge@8
    C744C __imp__DAQmxResetCIPeriodStartingEdge@8
    A0F6E _DAQmxGetCIPeriodMeasMeth@12
    A0F6E __imp__DAQmxGetCIPeriodMeasMeth@12
    DF8BA _DAQmxSetCIPeriodMeasMeth@12
    DF8BA __imp__DAQmxSetCIPeriodMeasMeth@12
    C7358 _DAQmxResetCIPeriodMeasMeth@8
    C7358 __imp__DAQmxResetCIPeriodMeasMeth@8
    A0DEA _DAQmxGetCIPeriodEnableAveraging@12
    A0DEA __imp__DAQmxGetCIPeriodEnableAveraging@12
    DF7BA _DAQmxSetCIPeriodEnableAveraging@12
    DF7BA __imp__DAQmxSetCIPeriodEnableAveraging@12
    C7256 _DAQmxResetCIPeriodEnableAveraging@8
    C7256 __imp__DAQmxResetCIPeriodEnableAveraging@8
    A0FE6 _DAQmxGetCIPeriodMeasTime@12
    A0FE6 __imp__DAQmxGetCIPeriodMeasTime@12
    DF932 _DAQmxSetCIPeriodMeasTime@16
    DF932 __imp__DAQmxSetCIPeriodMeasTime@16
    C73D2 _DAQmxResetCIPeriodMeasTime@8
    C73D2 __imp__DAQmxResetCIPeriodMeasTime@8
    A0D76 _DAQmxGetCIPeriodDiv@12
    A0D76 __imp__DAQmxGetCIPeriodDiv@12
    DF746 _DAQmxSetCIPeriodDiv@12
    DF746 __imp__DAQmxSetCIPeriodDiv@12
    C71E2 _DAQmxResetCIPeriodDiv@8
    C71E2 __imp__DAQmxResetCIPeriodDiv@8
    9DC04 _DAQmxGetCICountEdgesTerm@16
    9DC04 __imp__DAQmxGetCICountEdgesTerm@16
    DCFFE _DAQmxSetCICountEdgesTerm@12
    DCFFE __imp__DAQmxSetCICountEdgesTerm@12
    C4A50 _DAQmxResetCICountEdgesTerm@8
    C4A50 __imp__DAQmxResetCICountEdgesTerm@8
    9DC7C _DAQmxGetCICountEdgesTermCfg@12
    9DC7C __imp__DAQmxGetCICountEdgesTermCfg@12
    DD076 _DAQmxSetCICountEdgesTermCfg@12
    DD076 __imp__DAQmxSetCICountEdgesTermCfg@12
    C4ACA _DAQmxResetCICountEdgesTermCfg@8
    C4ACA __imp__DAQmxResetCICountEdgesTermCfg@8
    9DB80 _DAQmxGetCICountEdgesLogicLvlBehavior@12
    9DB80 __imp__DAQmxGetCICountEdgesLogicLvlBehavior@12
    DCF7A _DAQmxSetCICountEdgesLogicLvlBehavior@12
    DCF7A __imp__DAQmxSetCICountEdgesLogicLvlBehavior@12
    C49CA _DAQmxResetCICountEdgesLogicLvlBehavior@8
    C49CA __imp__DAQmxResetCICountEdgesLogicLvlBehavior@8
    9D0B6 _DAQmxGetCICountEdgesDigFltrEnable@12
    9D0B6 __imp__DAQmxGetCICountEdgesDigFltrEnable@12
    DC6C8 _DAQmxSetCICountEdgesDigFltrEnable@12
    DC6C8 __imp__DAQmxSetCICountEdgesDigFltrEnable@12
    C4106 _DAQmxResetCICountEdgesDigFltrEnable@8
    C4106 __imp__DAQmxResetCICountEdgesDigFltrEnable@8
    9D1BE _DAQmxGetCICountEdgesDigFltrMinPulseWidth@12
    9D1BE __imp__DAQmxGetCICountEdgesDigFltrMinPulseWidth@12
    DC74A _DAQmxSetCICountEdgesDigFltrMinPulseWidth@16
    DC74A __imp__DAQmxSetCICountEdgesDigFltrMinPulseWidth@16
    C4188 _DAQmxResetCICountEdgesDigFltrMinPulseWidth@8
    C4188 __imp__DAQmxResetCICountEdgesDigFltrMinPulseWidth@8
    9D2CE _DAQmxGetCICountEdgesDigFltrTimebaseSrc@16
    9D2CE __imp__DAQmxGetCICountEdgesDigFltrTimebaseSrc@16
    DC85A _DAQmxSetCICountEdgesDigFltrTimebaseSrc@12
    DC85A __imp__DAQmxSetCICountEdgesDigFltrTimebaseSrc@12
    C429A _DAQmxResetCICountEdgesDigFltrTimebaseSrc@8
    C429A __imp__DAQmxResetCICountEdgesDigFltrTimebaseSrc@8
    9D246 _DAQmxGetCICountEdgesDigFltrTimebaseRate@12
    9D246 __imp__DAQmxGetCICountEdgesDigFltrTimebaseRate@12
    DC7D2 _DAQmxSetCICountEdgesDigFltrTimebaseRate@16
    DC7D2 __imp__DAQmxSetCICountEdgesDigFltrTimebaseRate@16
    C4212 _DAQmxResetCICountEdgesDigFltrTimebaseRate@8
    C4212 __imp__DAQmxResetCICountEdgesDigFltrTimebaseRate@8
    9D354 _DAQmxGetCICountEdgesDigSyncEnable@12
    9D354 __imp__DAQmxGetCICountEdgesDigSyncEnable@12
    DC8E0 _DAQmxSetCICountEdgesDigSyncEnable@12
    DC8E0 __imp__DAQmxSetCICountEdgesDigSyncEnable@12
    C4322 _DAQmxResetCICountEdgesDigSyncEnable@8
    C4322 __imp__DAQmxResetCICountEdgesDigSyncEnable@8
    9D45C _DAQmxGetCICountEdgesDir@12
    9D45C __imp__DAQmxGetCICountEdgesDir@12
    DC962 _DAQmxSetCICountEdgesDir@12
    DC962 __imp__DAQmxSetCICountEdgesDir@12
    C43A4 _DAQmxResetCICountEdgesDir@8
    C43A4 __imp__DAQmxResetCICountEdgesDir@8
    9D4D4 _DAQmxGetCICountEdgesDirTerm@16
    9D4D4 __imp__DAQmxGetCICountEdgesDirTerm@16
    DC9DA _DAQmxSetCICountEdgesDirTerm@12
    DC9DA __imp__DAQmxSetCICountEdgesDirTerm@12
    C441C _DAQmxResetCICountEdgesDirTerm@8
    C441C __imp__DAQmxResetCICountEdgesDirTerm@8
    9C894 _DAQmxGetCICountEdgesCountDirTermCfg@12
    9C894 __imp__DAQmxGetCICountEdgesCountDirTermCfg@12
    DC04E _DAQmxSetCICountEdgesCountDirTermCfg@12
    DC04E __imp__DAQmxSetCICountEdgesCountDirTermCfg@12
    C3A7E _DAQmxResetCICountEdgesCountDirTermCfg@8
    C3A7E __imp__DAQmxResetCICountEdgesCountDirTermCfg@8
    9C808 _DAQmxGetCICountEdgesCountDirLogicLvlBehavior@12
    9C808 __imp__DAQmxGetCICountEdgesCountDirLogicLvlBehavior@12
    DBFC2 _DAQmxSetCICountEdgesCountDirLogicLvlBehavior@12
    DBFC2 __imp__DAQmxSetCICountEdgesCountDirLogicLvlBehavior@12
    C39F0 _DAQmxResetCICountEdgesCountDirLogicLvlBehavior@8
    C39F0 __imp__DAQmxResetCICountEdgesCountDirLogicLvlBehavior@8
    9C42A _DAQmxGetCICountEdgesCountDirDigFltrEnable@12
    9C42A __imp__DAQmxGetCICountEdgesCountDirDigFltrEnable@12
    DBD00 _DAQmxSetCICountEdgesCountDirDigFltrEnable@12
    DBD00 __imp__DAQmxSetCICountEdgesCountDirDigFltrEnable@12
    C372A _DAQmxResetCICountEdgesCountDirDigFltrEnable@8
    C372A __imp__DAQmxResetCICountEdgesCountDirDigFltrEnable@8
    9C542 _DAQmxGetCICountEdgesCountDirDigFltrMinPulseWidth@12
    9C542 __imp__DAQmxGetCICountEdgesCountDirDigFltrMinPulseWidth@12
    DBD8A _DAQmxSetCICountEdgesCountDirDigFltrMinPulseWidth@16
    DBD8A __imp__DAQmxSetCICountEdgesCountDirDigFltrMinPulseWidth@16
    C37B4 _DAQmxResetCICountEdgesCountDirDigFltrMinPulseWidth@8
    C37B4 __imp__DAQmxResetCICountEdgesCountDirDigFltrMinPulseWidth@8
    9C662 _DAQmxGetCICountEdgesCountDirDigFltrTimebaseSrc@16
    9C662 __imp__DAQmxGetCICountEdgesCountDirDigFltrTimebaseSrc@16
    DBEAA _DAQmxSetCICountEdgesCountDirDigFltrTimebaseSrc@12
    DBEAA __imp__DAQmxSetCICountEdgesCountDirDigFltrTimebaseSrc@12
    C38D6 _DAQmxResetCICountEdgesCountDirDigFltrTimebaseSrc@8
    C38D6 __imp__DAQmxResetCICountEdgesCountDirDigFltrTimebaseSrc@8
    9C5D2 _DAQmxGetCICountEdgesCountDirDigFltrTimebaseRate@12
    9C5D2 __imp__DAQmxGetCICountEdgesCountDirDigFltrTimebaseRate@12
    DBE1A _DAQmxSetCICountEdgesCountDirDigFltrTimebaseRate@16
    DBE1A __imp__DAQmxSetCICountEdgesCountDirDigFltrTimebaseRate@16
    C3846 _DAQmxResetCICountEdgesCountDirDigFltrTimebaseRate@8
    C3846 __imp__DAQmxResetCICountEdgesCountDirDigFltrTimebaseRate@8
    9C6F0 _DAQmxGetCICountEdgesCountDirDigSyncEnable@12
    9C6F0 __imp__DAQmxGetCICountEdgesCountDirDigSyncEnable@12
    DBF38 _DAQmxSetCICountEdgesCountDirDigSyncEnable@12
    DBF38 __imp__DAQmxSetCICountEdgesCountDirDigSyncEnable@12
    C3966 _DAQmxResetCICountEdgesCountDirDigSyncEnable@8
    C3966 __imp__DAQmxResetCICountEdgesCountDirDigSyncEnable@8
    9DB02 _DAQmxGetCICountEdgesInitialCnt@12
    9DB02 __imp__DAQmxGetCICountEdgesInitialCnt@12
    DCEFC _DAQmxSetCICountEdgesInitialCnt@12
    DCEFC __imp__DAQmxSetCICountEdgesInitialCnt@12
    C494A _DAQmxResetCICountEdgesInitialCnt@8
    C494A __imp__DAQmxResetCICountEdgesInitialCnt@8
    9C3AC _DAQmxGetCICountEdgesActiveEdge@12
    9C3AC __imp__DAQmxGetCICountEdgesActiveEdge@12
    DBC82 _DAQmxSetCICountEdgesActiveEdge@12
    DBC82 __imp__DAQmxSetCICountEdgesActiveEdge@12
    C36AA _DAQmxResetCICountEdgesActiveEdge@8
    C36AA __imp__DAQmxResetCICountEdgesActiveEdge@8
    9CD8C _DAQmxGetCICountEdgesCountResetEnable@12
    9CD8C __imp__DAQmxGetCICountEdgesCountResetEnable@12
    DC426 _DAQmxSetCICountEdgesCountResetEnable@12
    DC426 __imp__DAQmxSetCICountEdgesCountResetEnable@12
    C3E5C _DAQmxResetCICountEdgesCountResetEnable@8
    C3E5C __imp__DAQmxResetCICountEdgesCountResetEnable@8
    9CF26 _DAQmxGetCICountEdgesCountResetResetCount@12
    9CF26 __imp__DAQmxGetCICountEdgesCountResetResetCount@12
    DC538 _DAQmxSetCICountEdgesCountResetResetCount@12
    DC538 __imp__DAQmxSetCICountEdgesCountResetResetCount@12
    C3F72 _DAQmxResetCICountEdgesCountResetResetCount@8
    C3F72 __imp__DAQmxResetCICountEdgesCountResetResetCount@8
    9CFAE _DAQmxGetCICountEdgesCountResetTerm@16
    9CFAE __imp__DAQmxGetCICountEdgesCountResetTerm@16
    DC5C0 _DAQmxSetCICountEdgesCountResetTerm@12
    DC5C0 __imp__DAQmxSetCICountEdgesCountResetTerm@12
    C3FFC _DAQmxResetCICountEdgesCountResetTerm@8
    C3FFC __imp__DAQmxResetCICountEdgesCountResetTerm@8
    9D030 _DAQmxGetCICountEdgesCountResetTermCfg@12
    9D030 __imp__DAQmxGetCICountEdgesCountResetTermCfg@12
    DC642 _DAQmxSetCICountEdgesCountResetTermCfg@12
    DC642 __imp__DAQmxSetCICountEdgesCountResetTermCfg@12
    C4080 _DAQmxResetCICountEdgesCountResetTermCfg@8
    C4080 __imp__DAQmxResetCICountEdgesCountResetTermCfg@8
    9CE98 _DAQmxGetCICountEdgesCountResetLogicLvlBehavior@12
    9CE98 __imp__DAQmxGetCICountEdgesCountResetLogicLvlBehavior@12
    DC4AA _DAQmxSetCICountEdgesCountResetLogicLvlBehavior@12
    DC4AA __imp__DAQmxSetCICountEdgesCountResetLogicLvlBehavior@12
    C3EE2 _DAQmxResetCICountEdgesCountResetLogicLvlBehavior@8
    C3EE2 __imp__DAQmxResetCICountEdgesCountResetLogicLvlBehavior@8
    9C9A0 _DAQmxGetCICountEdgesCountResetDigFltrEnable@12
    9C9A0 __imp__DAQmxGetCICountEdgesCountResetDigFltrEnable@12
    DC15A _DAQmxSetCICountEdgesCountResetDigFltrEnable@12
    DC15A __imp__DAQmxSetCICountEdgesCountResetDigFltrEnable@12
    C3B8C _DAQmxResetCICountEdgesCountResetDigFltrEnable@8
    C3B8C __imp__DAQmxResetCICountEdgesCountResetDigFltrEnable@8
    9CABC _DAQmxGetCICountEdgesCountResetDigFltrMinPulseWidth@12
    9CABC __imp__DAQmxGetCICountEdgesCountResetDigFltrMinPulseWidth@12
    DC1E6 _DAQmxSetCICountEdgesCountResetDigFltrMinPulseWidth@16
    DC1E6 __imp__DAQmxSetCICountEdgesCountResetDigFltrMinPulseWidth@16
    C3C18 _DAQmxResetCICountEdgesCountResetDigFltrMinPulseWidth@8
    C3C18 __imp__DAQmxResetCICountEdgesCountResetDigFltrMinPulseWidth@8
    9CBE0 _DAQmxGetCICountEdgesCountResetDigFltrTimebaseSrc@16
    9CBE0 __imp__DAQmxGetCICountEdgesCountResetDigFltrTimebaseSrc@16
    DC30A _DAQmxSetCICountEdgesCountResetDigFltrTimebaseSrc@12
    DC30A __imp__DAQmxSetCICountEdgesCountResetDigFltrTimebaseSrc@12
    C3D3E _DAQmxResetCICountEdgesCountResetDigFltrTimebaseSrc@8
    C3D3E __imp__DAQmxResetCICountEdgesCountResetDigFltrTimebaseSrc@8
    9CB4E _DAQmxGetCICountEdgesCountResetDigFltrTimebaseRate@12
    9CB4E __imp__DAQmxGetCICountEdgesCountResetDigFltrTimebaseRate@12
    DC278 _DAQmxSetCICountEdgesCountResetDigFltrTimebaseRate@16
    DC278 __imp__DAQmxSetCICountEdgesCountResetDigFltrTimebaseRate@16
    C3CAC _DAQmxResetCICountEdgesCountResetDigFltrTimebaseRate@8
    C3CAC __imp__DAQmxResetCICountEdgesCountResetDigFltrTimebaseRate@8
    9CC70 _DAQmxGetCICountEdgesCountResetDigSyncEnable@12
    9CC70 __imp__DAQmxGetCICountEdgesCountResetDigSyncEnable@12
    DC39A _DAQmxSetCICountEdgesCountResetDigSyncEnable@12
    DC39A __imp__DAQmxSetCICountEdgesCountResetDigSyncEnable@12
    C3DD0 _DAQmxResetCICountEdgesCountResetDigSyncEnable@8
    C3DD0 __imp__DAQmxResetCICountEdgesCountResetDigSyncEnable@8
    9C918 _DAQmxGetCICountEdgesCountResetActiveEdge@12
    9C918 __imp__DAQmxGetCICountEdgesCountResetActiveEdge@12
    DC0D2 _DAQmxSetCICountEdgesCountResetActiveEdge@12
    DC0D2 __imp__DAQmxSetCICountEdgesCountResetActiveEdge@12
    C3B02 _DAQmxResetCICountEdgesCountResetActiveEdge@8
    C3B02 __imp__DAQmxResetCICountEdgesCountResetActiveEdge@8
    9D802 _DAQmxGetCICountEdgesGateEnable@12
    9D802 __imp__DAQmxGetCICountEdgesGateEnable@12
    DCC7E _DAQmxSetCICountEdgesGateEnable@12
    DCC7E __imp__DAQmxSetCICountEdgesGateEnable@12
    C46C4 _DAQmxResetCICountEdgesGateEnable@8
    C46C4 __imp__DAQmxResetCICountEdgesGateEnable@8
    9D98A _DAQmxGetCICountEdgesGateTerm@16
    9D98A __imp__DAQmxGetCICountEdgesGateTerm@16
    DCD84 _DAQmxSetCICountEdgesGateTerm@12
    DCD84 __imp__DAQmxSetCICountEdgesGateTerm@12
    C47CE _DAQmxResetCICountEdgesGateTerm@8
    C47CE __imp__DAQmxResetCICountEdgesGateTerm@8
    9DA06 _DAQmxGetCICountEdgesGateTermCfg@12
    9DA06 __imp__DAQmxGetCICountEdgesGateTermCfg@12
    DCE00 _DAQmxSetCICountEdgesGateTermCfg@12
    DCE00 __imp__DAQmxSetCICountEdgesGateTermCfg@12
    C484C _DAQmxResetCICountEdgesGateTermCfg@8
    C484C __imp__DAQmxResetCICountEdgesGateTermCfg@8
    9D902 _DAQmxGetCICountEdgesGateLogicLvlBehavior@12
    9D902 __imp__DAQmxGetCICountEdgesGateLogicLvlBehavior@12
    DCCFC _DAQmxSetCICountEdgesGateLogicLvlBehavior@12
    DCCFC __imp__DAQmxSetCICountEdgesGateLogicLvlBehavior@12
    C4744 _DAQmxResetCICountEdgesGateLogicLvlBehavior@8
    C4744 __imp__DAQmxResetCICountEdgesGateLogicLvlBehavior@8
    9D550 _DAQmxGetCICountEdgesGateDigFltrEnable@12
    9D550 __imp__DAQmxGetCICountEdgesGateDigFltrEnable@12
    DCA56 _DAQmxSetCICountEdgesGateDigFltrEnable@12
    DCA56 __imp__DAQmxSetCICountEdgesGateDigFltrEnable@12
    C4498 _DAQmxResetCICountEdgesGateDigFltrEnable@8
    C4498 __imp__DAQmxResetCICountEdgesGateDigFltrEnable@8
    9D660 _DAQmxGetCICountEdgesGateDigFltrMinPulseWidth@12
    9D660 __imp__DAQmxGetCICountEdgesGateDigFltrMinPulseWidth@12
    DCADC _DAQmxSetCICountEdgesGateDigFltrMinPulseWidth@16
    DCADC __imp__DAQmxSetCICountEdgesGateDigFltrMinPulseWidth@16
    C451E _DAQmxResetCICountEdgesGateDigFltrMinPulseWidth@8
    C451E __imp__DAQmxResetCICountEdgesGateDigFltrMinPulseWidth@8
    9D778 _DAQmxGetCICountEdgesGateDigFltrTimebaseSrc@16
    9D778 __imp__DAQmxGetCICountEdgesGateDigFltrTimebaseSrc@16
    DCBF4 _DAQmxSetCICountEdgesGateDigFltrTimebaseSrc@12
    DCBF4 __imp__DAQmxSetCICountEdgesGateDigFltrTimebaseSrc@12
    C4638 _DAQmxResetCICountEdgesGateDigFltrTimebaseSrc@8
    C4638 __imp__DAQmxResetCICountEdgesGateDigFltrTimebaseSrc@8
    9D6EC _DAQmxGetCICountEdgesGateDigFltrTimebaseRate@12
    9D6EC __imp__DAQmxGetCICountEdgesGateDigFltrTimebaseRate@12
    DCB68 _DAQmxSetCICountEdgesGateDigFltrTimebaseRate@16
    DCB68 __imp__DAQmxSetCICountEdgesGateDigFltrTimebaseRate@16
    C45AC _DAQmxResetCICountEdgesGateDigFltrTimebaseRate@8
    C45AC __imp__DAQmxResetCICountEdgesGateDigFltrTimebaseRate@8
    9DA86 _DAQmxGetCICountEdgesGateWhen@12
    9DA86 __imp__DAQmxGetCICountEdgesGateWhen@12
    DCE80 _DAQmxSetCICountEdgesGateWhen@12
    DCE80 __imp__DAQmxSetCICountEdgesGateWhen@12
    C48CC _DAQmxResetCICountEdgesGateWhen@8
    C48CC __imp__DAQmxResetCICountEdgesGateWhen@8
    9E898 _DAQmxGetCIDutyCycleTerm@16
    9E898 __imp__DAQmxGetCIDutyCycleTerm@16
    DDA84 _DAQmxSetCIDutyCycleTerm@12
    DDA84 __imp__DAQmxSetCIDutyCycleTerm@12
    C54E8 _DAQmxResetCIDutyCycleTerm@8
    C54E8 __imp__DAQmxResetCIDutyCycleTerm@8
    9E910 _DAQmxGetCIDutyCycleTermCfg@12
    9E910 __imp__DAQmxGetCIDutyCycleTermCfg@12
    DDAFC _DAQmxSetCIDutyCycleTermCfg@12
    DDAFC __imp__DAQmxSetCIDutyCycleTermCfg@12
    C5560 _DAQmxResetCIDutyCycleTermCfg@8
    C5560 __imp__DAQmxResetCIDutyCycleTermCfg@8
    9E794 _DAQmxGetCIDutyCycleLogicLvlBehavior@12
    9E794 __imp__DAQmxGetCIDutyCycleLogicLvlBehavior@12
    DD980 _DAQmxSetCIDutyCycleLogicLvlBehavior@12
    DD980 __imp__DAQmxSetCIDutyCycleLogicLvlBehavior@12
    C53E4 _DAQmxResetCIDutyCycleLogicLvlBehavior@8
    C53E4 __imp__DAQmxResetCIDutyCycleLogicLvlBehavior@8
    9E4FC _DAQmxGetCIDutyCycleDigFltrEnable@12
    9E4FC __imp__DAQmxGetCIDutyCycleDigFltrEnable@12
    DD76C _DAQmxSetCIDutyCycleDigFltrEnable@12
    DD76C __imp__DAQmxSetCIDutyCycleDigFltrEnable@12
    C51CC _DAQmxResetCIDutyCycleDigFltrEnable@8
    C51CC __imp__DAQmxResetCIDutyCycleDigFltrEnable@8
    9E600 _DAQmxGetCIDutyCycleDigFltrMinPulseWidth@12
    9E600 __imp__DAQmxGetCIDutyCycleDigFltrMinPulseWidth@12
    DD7EC _DAQmxSetCIDutyCycleDigFltrMinPulseWidth@16
    DD7EC __imp__DAQmxSetCIDutyCycleDigFltrMinPulseWidth@16
    C524E _DAQmxResetCIDutyCycleDigFltrMinPulseWidth@8
    C524E __imp__DAQmxResetCIDutyCycleDigFltrMinPulseWidth@8
    9E70E _DAQmxGetCIDutyCycleDigFltrTimebaseSrc@16
    9E70E __imp__DAQmxGetCIDutyCycleDigFltrTimebaseSrc@16
    DD8FA _DAQmxSetCIDutyCycleDigFltrTimebaseSrc@12
    DD8FA __imp__DAQmxSetCIDutyCycleDigFltrTimebaseSrc@12
    C535E _DAQmxResetCIDutyCycleDigFltrTimebaseSrc@8
    C535E __imp__DAQmxResetCIDutyCycleDigFltrTimebaseSrc@8
    9E688 _DAQmxGetCIDutyCycleDigFltrTimebaseRate@12
    9E688 __imp__DAQmxGetCIDutyCycleDigFltrTimebaseRate@12
    DD874 _DAQmxSetCIDutyCycleDigFltrTimebaseRate@16
    DD874 __imp__DAQmxSetCIDutyCycleDigFltrTimebaseRate@16
    C52D6 _DAQmxResetCIDutyCycleDigFltrTimebaseRate@8
    C52D6 __imp__DAQmxResetCIDutyCycleDigFltrTimebaseRate@8
    9E818 _DAQmxGetCIDutyCycleStartingEdge@12
    9E818 __imp__DAQmxGetCIDutyCycleStartingEdge@12
    DDA04 _DAQmxSetCIDutyCycleStartingEdge@12
    DDA04 __imp__DAQmxSetCIDutyCycleStartingEdge@12
    C5468 _DAQmxResetCIDutyCycleStartingEdge@8
    C5468 __imp__DAQmxResetCIDutyCycleStartingEdge@8
    9C2C2 _DAQmxGetCIAngEncoderUnits@12
    9C2C2 __imp__DAQmxGetCIAngEncoderUnits@12
    DBC08 _DAQmxSetCIAngEncoderUnits@12
    DBC08 __imp__DAQmxSetCIAngEncoderUnits@12
    C3630 _DAQmxResetCIAngEncoderUnits@8
    C3630 __imp__DAQmxResetCIAngEncoderUnits@8
    9C242 _DAQmxGetCIAngEncoderPulsesPerRev@12
    9C242 __imp__DAQmxGetCIAngEncoderPulsesPerRev@12
    DBB88 _DAQmxSetCIAngEncoderPulsesPerRev@12
    DBB88 __imp__DAQmxSetCIAngEncoderPulsesPerRev@12
    C35AE _DAQmxResetCIAngEncoderPulsesPerRev@8
    C35AE __imp__DAQmxResetCIAngEncoderPulsesPerRev@8
    9C1C2 _DAQmxGetCIAngEncoderInitialAngle@12
    9C1C2 __imp__DAQmxGetCIAngEncoderInitialAngle@12
    DBB08 _DAQmxSetCIAngEncoderInitialAngle@16
    DBB08 __imp__DAQmxSetCIAngEncoderInitialAngle@16
    C352C _DAQmxResetCIAngEncoderInitialAngle@8
    C352C __imp__DAQmxResetCIAngEncoderInitialAngle@8
    A05C4 _DAQmxGetCILinEncoderUnits@12
    A05C4 __imp__DAQmxGetCILinEncoderUnits@12
    DF27C _DAQmxSetCILinEncoderUnits@12
    DF27C __imp__DAQmxSetCILinEncoderUnits@12
    C6D12 _DAQmxResetCILinEncoderUnits@8
    C6D12 __imp__DAQmxResetCILinEncoderUnits@8
    A04C6 _DAQmxGetCILinEncoderDistPerPulse@12
    A04C6 __imp__DAQmxGetCILinEncoderDistPerPulse@12
    DF17E _DAQmxSetCILinEncoderDistPerPulse@16
    DF17E __imp__DAQmxSetCILinEncoderDistPerPulse@16
    C6C10 _DAQmxResetCILinEncoderDistPerPulse@8
    C6C10 __imp__DAQmxResetCILinEncoderDistPerPulse@8
    A0546 _DAQmxGetCILinEncoderInitialPos@12
    A0546 __imp__DAQmxGetCILinEncoderInitialPos@12
    DF1FE _DAQmxSetCILinEncoderInitialPos@16
    DF1FE __imp__DAQmxSetCILinEncoderInitialPos@16
    C6C92 _DAQmxResetCILinEncoderInitialPos@8
    C6C92 __imp__DAQmxResetCILinEncoderInitialPos@8
    9F3FE _DAQmxGetCIEncoderDecodingType@12
    9F3FE __imp__DAQmxGetCIEncoderDecodingType@12
    DE3CA _DAQmxSetCIEncoderDecodingType@12
    DE3CA __imp__DAQmxSetCIEncoderDecodingType@12
    C5E40 _DAQmxResetCIEncoderDecodingType@8
    C5E40 __imp__DAQmxResetCIEncoderDecodingType@8
    9EDCA _DAQmxGetCIEncoderAInputTerm@16
    9EDCA __imp__DAQmxGetCIEncoderAInputTerm@16
    DDEA6 _DAQmxSetCIEncoderAInputTerm@12
    DDEA6 __imp__DAQmxSetCIEncoderAInputTerm@12
    C5912 _DAQmxResetCIEncoderAInputTerm@8
    C5912 __imp__DAQmxResetCIEncoderAInputTerm@8
    9EE46 _DAQmxGetCIEncoderAInputTermCfg@12
    9EE46 __imp__DAQmxGetCIEncoderAInputTermCfg@12
    DDF22 _DAQmxSetCIEncoderAInputTermCfg@12
    DDF22 __imp__DAQmxSetCIEncoderAInputTermCfg@12
    C598E _DAQmxResetCIEncoderAInputTermCfg@8
    C598E __imp__DAQmxResetCIEncoderAInputTermCfg@8
    9ED42 _DAQmxGetCIEncoderAInputLogicLvlBehavior@12
    9ED42 __imp__DAQmxGetCIEncoderAInputLogicLvlBehavior@12
    DDE1E _DAQmxSetCIEncoderAInputLogicLvlBehavior@12
    DDE1E __imp__DAQmxSetCIEncoderAInputLogicLvlBehavior@12
    C588A _DAQmxResetCIEncoderAInputLogicLvlBehavior@8
    C588A __imp__DAQmxResetCIEncoderAInputLogicLvlBehavior@8
    9E98A _DAQmxGetCIEncoderAInputDigFltrEnable@12
    9E98A __imp__DAQmxGetCIEncoderAInputDigFltrEnable@12
    DDB76 _DAQmxSetCIEncoderAInputDigFltrEnable@12
    DDB76 __imp__DAQmxSetCIEncoderAInputDigFltrEnable@12
    C55DC _DAQmxResetCIEncoderAInputDigFltrEnable@8
    C55DC __imp__DAQmxResetCIEncoderAInputDigFltrEnable@8
    9EA96 _DAQmxGetCIEncoderAInputDigFltrMinPulseWidth@12
    9EA96 __imp__DAQmxGetCIEncoderAInputDigFltrMinPulseWidth@12
    DDBFA _DAQmxSetCIEncoderAInputDigFltrMinPulseWidth@16
    DDBFA __imp__DAQmxSetCIEncoderAInputDigFltrMinPulseWidth@16
    C5662 _DAQmxResetCIEncoderAInputDigFltrMinPulseWidth@8
    C5662 __imp__DAQmxResetCIEncoderAInputDigFltrMinPulseWidth@8
    9EBAC _DAQmxGetCIEncoderAInputDigFltrTimebaseSrc@16
    9EBAC __imp__DAQmxGetCIEncoderAInputDigFltrTimebaseSrc@16
    DDD10 _DAQmxSetCIEncoderAInputDigFltrTimebaseSrc@12
    DDD10 __imp__DAQmxSetCIEncoderAInputDigFltrTimebaseSrc@12
    C577A _DAQmxResetCIEncoderAInputDigFltrTimebaseSrc@8
    C577A __imp__DAQmxResetCIEncoderAInputDigFltrTimebaseSrc@8
    9EB22 _DAQmxGetCIEncoderAInputDigFltrTimebaseRate@12
    9EB22 __imp__DAQmxGetCIEncoderAInputDigFltrTimebaseRate@12
    DDC86 _DAQmxSetCIEncoderAInputDigFltrTimebaseRate@16
    DDC86 __imp__DAQmxSetCIEncoderAInputDigFltrTimebaseRate@16
    C56EE _DAQmxResetCIEncoderAInputDigFltrTimebaseRate@8
    C56EE __imp__DAQmxResetCIEncoderAInputDigFltrTimebaseRate@8
    9EC36 _DAQmxGetCIEncoderAInputDigSyncEnable@12
    9EC36 __imp__DAQmxGetCIEncoderAInputDigSyncEnable@12
    DDD9A _DAQmxSetCIEncoderAInputDigSyncEnable@12
    DDD9A __imp__DAQmxSetCIEncoderAInputDigSyncEnable@12
    C5804 _DAQmxResetCIEncoderAInputDigSyncEnable@8
    C5804 __imp__DAQmxResetCIEncoderAInputDigSyncEnable@8
    9F304 _DAQmxGetCIEncoderBInputTerm@16
    9F304 __imp__DAQmxGetCIEncoderBInputTerm@16
    DE2D0 _DAQmxSetCIEncoderBInputTerm@12
    DE2D0 __imp__DAQmxSetCIEncoderBInputTerm@12
    C5D44 _DAQmxResetCIEncoderBInputTerm@8
    C5D44 __imp__DAQmxResetCIEncoderBInputTerm@8
    9F380 _DAQmxGetCIEncoderBInputTermCfg@12
    9F380 __imp__DAQmxGetCIEncoderBInputTermCfg@12
    DE34C _DAQmxSetCIEncoderBInputTermCfg@12
    DE34C __imp__DAQmxSetCIEncoderBInputTermCfg@12
    C5DC0 _DAQmxResetCIEncoderBInputTermCfg@8
    C5DC0 __imp__DAQmxResetCIEncoderBInputTermCfg@8
    9F27C _DAQmxGetCIEncoderBInputLogicLvlBehavior@12
    9F27C __imp__DAQmxGetCIEncoderBInputLogicLvlBehavior@12
    DE248 _DAQmxSetCIEncoderBInputLogicLvlBehavior@12
    DE248 __imp__DAQmxSetCIEncoderBInputLogicLvlBehavior@12
    C5CBC _DAQmxResetCIEncoderBInputLogicLvlBehavior@8
    C5CBC __imp__DAQmxResetCIEncoderBInputLogicLvlBehavior@8
    9EEC4 _DAQmxGetCIEncoderBInputDigFltrEnable@12
    9EEC4 __imp__DAQmxGetCIEncoderBInputDigFltrEnable@12
    DDFA0 _DAQmxSetCIEncoderBInputDigFltrEnable@12
    DDFA0 __imp__DAQmxSetCIEncoderBInputDigFltrEnable@12
    C5A0E _DAQmxResetCIEncoderBInputDigFltrEnable@8
    C5A0E __imp__DAQmxResetCIEncoderBInputDigFltrEnable@8
    9EFD0 _DAQmxGetCIEncoderBInputDigFltrMinPulseWidth@12
    9EFD0 __imp__DAQmxGetCIEncoderBInputDigFltrMinPulseWidth@12
    DE024 _DAQmxSetCIEncoderBInputDigFltrMinPulseWidth@16
    DE024 __imp__DAQmxSetCIEncoderBInputDigFltrMinPulseWidth@16
    C5A94 _DAQmxResetCIEncoderBInputDigFltrMinPulseWidth@8
    C5A94 __imp__DAQmxResetCIEncoderBInputDigFltrMinPulseWidth@8
    9F0E6 _DAQmxGetCIEncoderBInputDigFltrTimebaseSrc@16
    9F0E6 __imp__DAQmxGetCIEncoderBInputDigFltrTimebaseSrc@16
    DE13A _DAQmxSetCIEncoderBInputDigFltrTimebaseSrc@12
    DE13A __imp__DAQmxSetCIEncoderBInputDigFltrTimebaseSrc@12
    C5BAC _DAQmxResetCIEncoderBInputDigFltrTimebaseSrc@8
    C5BAC __imp__DAQmxResetCIEncoderBInputDigFltrTimebaseSrc@8
    9F05C _DAQmxGetCIEncoderBInputDigFltrTimebaseRate@12
    9F05C __imp__DAQmxGetCIEncoderBInputDigFltrTimebaseRate@12
    DE0B0 _DAQmxSetCIEncoderBInputDigFltrTimebaseRate@16
    DE0B0 __imp__DAQmxSetCIEncoderBInputDigFltrTimebaseRate@16
    C5B20 _DAQmxResetCIEncoderBInputDigFltrTimebaseRate@8
    C5B20 __imp__DAQmxResetCIEncoderBInputDigFltrTimebaseRate@8
    9F170 _DAQmxGetCIEncoderBInputDigSyncEnable@12
    9F170 __imp__DAQmxGetCIEncoderBInputDigSyncEnable@12
    DE1C4 _DAQmxSetCIEncoderBInputDigSyncEnable@12
    DE1C4 __imp__DAQmxSetCIEncoderBInputDigSyncEnable@12
    C5C36 _DAQmxResetCIEncoderBInputDigSyncEnable@8
    C5C36 __imp__DAQmxResetCIEncoderBInputDigSyncEnable@8
    9FAB2 _DAQmxGetCIEncoderZInputTerm@16
    9FAB2 __imp__DAQmxGetCIEncoderZInputTerm@16
    DE8EC _DAQmxSetCIEncoderZInputTerm@12
    DE8EC __imp__DAQmxSetCIEncoderZInputTerm@12
    C636C _DAQmxResetCIEncoderZInputTerm@8
    C636C __imp__DAQmxResetCIEncoderZInputTerm@8
    9FB2E _DAQmxGetCIEncoderZInputTermCfg@12
    9FB2E __imp__DAQmxGetCIEncoderZInputTermCfg@12
    DE968 _DAQmxSetCIEncoderZInputTermCfg@12
    DE968 __imp__DAQmxSetCIEncoderZInputTermCfg@12
    C63E8 _DAQmxResetCIEncoderZInputTermCfg@8
    C63E8 __imp__DAQmxResetCIEncoderZInputTermCfg@8
    9FA2A _DAQmxGetCIEncoderZInputLogicLvlBehavior@12
    9FA2A __imp__DAQmxGetCIEncoderZInputLogicLvlBehavior@12
    DE864 _DAQmxSetCIEncoderZInputLogicLvlBehavior@12
    DE864 __imp__DAQmxSetCIEncoderZInputLogicLvlBehavior@12
    C62E4 _DAQmxResetCIEncoderZInputLogicLvlBehavior@8
    C62E4 __imp__DAQmxResetCIEncoderZInputLogicLvlBehavior@8
    9F672 _DAQmxGetCIEncoderZInputDigFltrEnable@12
    9F672 __imp__DAQmxGetCIEncoderZInputDigFltrEnable@12
    DE5BC _DAQmxSetCIEncoderZInputDigFltrEnable@12
    DE5BC __imp__DAQmxSetCIEncoderZInputDigFltrEnable@12
    C6036 _DAQmxResetCIEncoderZInputDigFltrEnable@8
    C6036 __imp__DAQmxResetCIEncoderZInputDigFltrEnable@8
    9F77E _DAQmxGetCIEncoderZInputDigFltrMinPulseWidth@12
    9F77E __imp__DAQmxGetCIEncoderZInputDigFltrMinPulseWidth@12
    DE640 _DAQmxSetCIEncoderZInputDigFltrMinPulseWidth@16
    DE640 __imp__DAQmxSetCIEncoderZInputDigFltrMinPulseWidth@16
    C60BC _DAQmxResetCIEncoderZInputDigFltrMinPulseWidth@8
    C60BC __imp__DAQmxResetCIEncoderZInputDigFltrMinPulseWidth@8
    9F894 _DAQmxGetCIEncoderZInputDigFltrTimebaseSrc@16
    9F894 __imp__DAQmxGetCIEncoderZInputDigFltrTimebaseSrc@16
    DE756 _DAQmxSetCIEncoderZInputDigFltrTimebaseSrc@12
    DE756 __imp__DAQmxSetCIEncoderZInputDigFltrTimebaseSrc@12
    C61D4 _DAQmxResetCIEncoderZInputDigFltrTimebaseSrc@8
    C61D4 __imp__DAQmxResetCIEncoderZInputDigFltrTimebaseSrc@8
    9F80A _DAQmxGetCIEncoderZInputDigFltrTimebaseRate@12
    9F80A __imp__DAQmxGetCIEncoderZInputDigFltrTimebaseRate@12
    DE6CC _DAQmxSetCIEncoderZInputDigFltrTimebaseRate@16
    DE6CC __imp__DAQmxSetCIEncoderZInputDigFltrTimebaseRate@16
    C6148 _DAQmxResetCIEncoderZInputDigFltrTimebaseRate@8
    C6148 __imp__DAQmxResetCIEncoderZInputDigFltrTimebaseRate@8
    9F91E _DAQmxGetCIEncoderZInputDigSyncEnable@12
    9F91E __imp__DAQmxGetCIEncoderZInputDigSyncEnable@12
    DE7E0 _DAQmxSetCIEncoderZInputDigSyncEnable@12
    DE7E0 __imp__DAQmxSetCIEncoderZInputDigSyncEnable@12
    C625E _DAQmxResetCIEncoderZInputDigSyncEnable@8
    C625E __imp__DAQmxResetCIEncoderZInputDigSyncEnable@8
    9F47C _DAQmxGetCIEncoderZIndexEnable@12
    9F47C __imp__DAQmxGetCIEncoderZIndexEnable@12
    DE448 _DAQmxSetCIEncoderZIndexEnable@12
    DE448 __imp__DAQmxSetCIEncoderZIndexEnable@12
    C5EBE _DAQmxResetCIEncoderZIndexEnable@8
    C5EBE __imp__DAQmxResetCIEncoderZIndexEnable@8
    9F5F8 _DAQmxGetCIEncoderZIndexVal@12
    9F5F8 __imp__DAQmxGetCIEncoderZIndexVal@12
    DE542 _DAQmxSetCIEncoderZIndexVal@16
    DE542 __imp__DAQmxSetCIEncoderZIndexVal@16
    C5FBA _DAQmxResetCIEncoderZIndexVal@8
    C5FBA __imp__DAQmxResetCIEncoderZIndexVal@8
    9F57C _DAQmxGetCIEncoderZIndexPhase@12
    9F57C __imp__DAQmxGetCIEncoderZIndexPhase@12
    DE4C6 _DAQmxSetCIEncoderZIndexPhase@12
    DE4C6 __imp__DAQmxSetCIEncoderZIndexPhase@12
    C5F3C _DAQmxResetCIEncoderZIndexPhase@8
    C5F3C __imp__DAQmxResetCIEncoderZIndexPhase@8
    A29F6 _DAQmxGetCIPulseWidthUnits@12
    A29F6 __imp__DAQmxGetCIPulseWidthUnits@12
    E0F1A _DAQmxSetCIPulseWidthUnits@12
    E0F1A __imp__DAQmxSetCIPulseWidthUnits@12
    C89EA _DAQmxResetCIPulseWidthUnits@8
    C89EA __imp__DAQmxResetCIPulseWidthUnits@8
    A2902 _DAQmxGetCIPulseWidthTerm@16
    A2902 __imp__DAQmxGetCIPulseWidthTerm@16
    E0E26 _DAQmxSetCIPulseWidthTerm@12
    E0E26 __imp__DAQmxSetCIPulseWidthTerm@12
    C88F4 _DAQmxResetCIPulseWidthTerm@8
    C88F4 __imp__DAQmxResetCIPulseWidthTerm@8
    A297A _DAQmxGetCIPulseWidthTermCfg@12
    A297A __imp__DAQmxGetCIPulseWidthTermCfg@12
    E0E9E _DAQmxSetCIPulseWidthTermCfg@12
    E0E9E __imp__DAQmxSetCIPulseWidthTermCfg@12
    C896E _DAQmxResetCIPulseWidthTermCfg@8
    C896E __imp__DAQmxResetCIPulseWidthTermCfg@8
    A27FE _DAQmxGetCIPulseWidthLogicLvlBehavior@12
    A27FE __imp__DAQmxGetCIPulseWidthLogicLvlBehavior@12
    E0D22 _DAQmxSetCIPulseWidthLogicLvlBehavior@12
    E0D22 __imp__DAQmxSetCIPulseWidthLogicLvlBehavior@12
    C87EC _DAQmxResetCIPulseWidthLogicLvlBehavior@8
    C87EC __imp__DAQmxResetCIPulseWidthLogicLvlBehavior@8
    A2458 _DAQmxGetCIPulseWidthDigFltrEnable@12
    A2458 __imp__DAQmxGetCIPulseWidthDigFltrEnable@12
    E0A88 _DAQmxSetCIPulseWidthDigFltrEnable@12
    E0A88 __imp__DAQmxSetCIPulseWidthDigFltrEnable@12
    C854E _DAQmxResetCIPulseWidthDigFltrEnable@8
    C854E __imp__DAQmxResetCIPulseWidthDigFltrEnable@8
    A2560 _DAQmxGetCIPulseWidthDigFltrMinPulseWidth@12
    A2560 __imp__DAQmxGetCIPulseWidthDigFltrMinPulseWidth@12
    E0B0A _DAQmxSetCIPulseWidthDigFltrMinPulseWidth@16
    E0B0A __imp__DAQmxSetCIPulseWidthDigFltrMinPulseWidth@16
    C85D0 _DAQmxResetCIPulseWidthDigFltrMinPulseWidth@8
    C85D0 __imp__DAQmxResetCIPulseWidthDigFltrMinPulseWidth@8
    A2670 _DAQmxGetCIPulseWidthDigFltrTimebaseSrc@16
    A2670 __imp__DAQmxGetCIPulseWidthDigFltrTimebaseSrc@16
    E0C1A _DAQmxSetCIPulseWidthDigFltrTimebaseSrc@12
    E0C1A __imp__DAQmxSetCIPulseWidthDigFltrTimebaseSrc@12
    C86E2 _DAQmxResetCIPulseWidthDigFltrTimebaseSrc@8
    C86E2 __imp__DAQmxResetCIPulseWidthDigFltrTimebaseSrc@8
    A25E8 _DAQmxGetCIPulseWidthDigFltrTimebaseRate@12
    A25E8 __imp__DAQmxGetCIPulseWidthDigFltrTimebaseRate@12
    E0B92 _DAQmxSetCIPulseWidthDigFltrTimebaseRate@16
    E0B92 __imp__DAQmxSetCIPulseWidthDigFltrTimebaseRate@16
    C865A _DAQmxResetCIPulseWidthDigFltrTimebaseRate@8
    C865A __imp__DAQmxResetCIPulseWidthDigFltrTimebaseRate@8
    A26F6 _DAQmxGetCIPulseWidthDigSyncEnable@12
    A26F6 __imp__DAQmxGetCIPulseWidthDigSyncEnable@12
    E0CA0 _DAQmxSetCIPulseWidthDigSyncEnable@12
    E0CA0 __imp__DAQmxSetCIPulseWidthDigSyncEnable@12
    C876A _DAQmxResetCIPulseWidthDigSyncEnable@8
    C876A __imp__DAQmxResetCIPulseWidthDigSyncEnable@8
    A2882 _DAQmxGetCIPulseWidthStartingEdge@12
    A2882 __imp__DAQmxGetCIPulseWidthStartingEdge@12
    E0DA6 _DAQmxSetCIPulseWidthStartingEdge@12
    E0DA6 __imp__DAQmxSetCIPulseWidthStartingEdge@12
    C8872 _DAQmxResetCIPulseWidthStartingEdge@8
    C8872 __imp__DAQmxResetCIPulseWidthStartingEdge@8
    A3372 _DAQmxGetCITimestampUnits@12
    A3372 __imp__DAQmxGetCITimestampUnits@12
    E169E _DAQmxSetCITimestampUnits@12
    E169E __imp__DAQmxSetCITimestampUnits@12
    C917A _DAQmxResetCITimestampUnits@8
    C917A __imp__DAQmxResetCITimestampUnits@8
    A32F0 _DAQmxGetCITimestampInitialSeconds@12
    A32F0 __imp__DAQmxGetCITimestampInitialSeconds@12
    E161C _DAQmxSetCITimestampInitialSeconds@12
    E161C __imp__DAQmxSetCITimestampInitialSeconds@12
    C90F8 _DAQmxResetCITimestampInitialSeconds@8
    C90F8 __imp__DAQmxResetCITimestampInitialSeconds@8
    A03DA _DAQmxGetCIGPSSyncMethod@12
    A03DA __imp__DAQmxGetCIGPSSyncMethod@12
    DF092 _DAQmxSetCIGPSSyncMethod@12
    DF092 __imp__DAQmxSetCIGPSSyncMethod@12
    C6B22 _DAQmxResetCIGPSSyncMethod@8
    C6B22 __imp__DAQmxResetCIGPSSyncMethod@8
    A0452 _DAQmxGetCIGPSSyncSrc@16
    A0452 __imp__DAQmxGetCIGPSSyncSrc@16
    DF10A _DAQmxSetCIGPSSyncSrc@12
    DF10A __imp__DAQmxSetCIGPSSyncSrc@12
    C6B9A _DAQmxResetCIGPSSyncSrc@8
    C6B9A __imp__DAQmxResetCIGPSSyncSrc@8
    A4182 _DAQmxGetCIVelocityAngEncoderUnits@12
    A4182 __imp__DAQmxGetCIVelocityAngEncoderUnits@12
    E2282 _DAQmxSetCIVelocityAngEncoderUnits@12
    E2282 __imp__DAQmxSetCIVelocityAngEncoderUnits@12
    C9D76 _DAQmxResetCIVelocityAngEncoderUnits@8
    C9D76 __imp__DAQmxResetCIVelocityAngEncoderUnits@8
    A40FA _DAQmxGetCIVelocityAngEncoderPulsesPerRev@12
    A40FA __imp__DAQmxGetCIVelocityAngEncoderPulsesPerRev@12
    E21FA _DAQmxSetCIVelocityAngEncoderPulsesPerRev@12
    E21FA __imp__DAQmxSetCIVelocityAngEncoderPulsesPerRev@12
    C9CEC _DAQmxResetCIVelocityAngEncoderPulsesPerRev@8
    C9CEC __imp__DAQmxResetCIVelocityAngEncoderPulsesPerRev@8
    A4C64 _DAQmxGetCIVelocityLinEncoderUnits@12
    A4C64 __imp__DAQmxGetCIVelocityLinEncoderUnits@12
    E2C44 _DAQmxSetCIVelocityLinEncoderUnits@12
    E2C44 __imp__DAQmxSetCIVelocityLinEncoderUnits@12
    CA746 _DAQmxResetCIVelocityLinEncoderUnits@8
    CA746 __imp__DAQmxResetCIVelocityLinEncoderUnits@8
    A4BDC _DAQmxGetCIVelocityLinEncoderDistPerPulse@12
    A4BDC __imp__DAQmxGetCIVelocityLinEncoderDistPerPulse@12
    E2BBC _DAQmxSetCIVelocityLinEncoderDistPerPulse@16
    E2BBC __imp__DAQmxSetCIVelocityLinEncoderDistPerPulse@16
    CA6BC _DAQmxResetCIVelocityLinEncoderDistPerPulse@8
    CA6BC __imp__DAQmxResetCIVelocityLinEncoderDistPerPulse@8
    A4B56 _DAQmxGetCIVelocityEncoderDecodingType@12
    A4B56 __imp__DAQmxGetCIVelocityEncoderDecodingType@12
    E2B36 _DAQmxSetCIVelocityEncoderDecodingType@12
    E2B36 __imp__DAQmxSetCIVelocityEncoderDecodingType@12
    CA636 _DAQmxResetCIVelocityEncoderDecodingType@8
    CA636 __imp__DAQmxResetCIVelocityEncoderDecodingType@8
    A45DE _DAQmxGetCIVelocityEncoderAInputTerm@16
    A45DE __imp__DAQmxGetCIVelocityEncoderAInputTerm@16
    E264E _DAQmxSetCIVelocityEncoderAInputTerm@12
    E264E __imp__DAQmxSetCIVelocityEncoderAInputTerm@12
    CA146 _DAQmxResetCIVelocityEncoderAInputTerm@8
    CA146 __imp__DAQmxResetCIVelocityEncoderAInputTerm@8
    A4662 _DAQmxGetCIVelocityEncoderAInputTermCfg@12
    A4662 __imp__DAQmxGetCIVelocityEncoderAInputTermCfg@12
    E26D2 _DAQmxSetCIVelocityEncoderAInputTermCfg@12
    E26D2 __imp__DAQmxSetCIVelocityEncoderAInputTermCfg@12
    CA1CA _DAQmxResetCIVelocityEncoderAInputTermCfg@8
    CA1CA __imp__DAQmxResetCIVelocityEncoderAInputTermCfg@8
    A454E _DAQmxGetCIVelocityEncoderAInputLogicLvlBehavior@12
    A454E __imp__DAQmxGetCIVelocityEncoderAInputLogicLvlBehavior@12
    E25BE _DAQmxSetCIVelocityEncoderAInputLogicLvlBehavior@12
    E25BE __imp__DAQmxSetCIVelocityEncoderAInputLogicLvlBehavior@12
    CA0B6 _DAQmxResetCIVelocityEncoderAInputLogicLvlBehavior@8
    CA0B6 __imp__DAQmxResetCIVelocityEncoderAInputLogicLvlBehavior@8
    A427A _DAQmxGetCIVelocityEncoderAInputDigFltrEnable@12
    A427A __imp__DAQmxGetCIVelocityEncoderAInputDigFltrEnable@12
    E237A _DAQmxSetCIVelocityEncoderAInputDigFltrEnable@12
    E237A __imp__DAQmxSetCIVelocityEncoderAInputDigFltrEnable@12
    C9E6E _DAQmxResetCIVelocityEncoderAInputDigFltrEnable@8
    C9E6E __imp__DAQmxResetCIVelocityEncoderAInputDigFltrEnable@8
    A4396 _DAQmxGetCIVelocityEncoderAInputDigFltrMinPulseWidth@12
    A4396 __imp__DAQmxGetCIVelocityEncoderAInputDigFltrMinPulseWidth@12
    E2406 _DAQmxSetCIVelocityEncoderAInputDigFltrMinPulseWidth@16
    E2406 __imp__DAQmxSetCIVelocityEncoderAInputDigFltrMinPulseWidth@16
    C9EFC _DAQmxResetCIVelocityEncoderAInputDigFltrMinPulseWidth@8
    C9EFC __imp__DAQmxResetCIVelocityEncoderAInputDigFltrMinPulseWidth@8
    A44BC _DAQmxGetCIVelocityEncoderAInputDigFltrTimebaseSrc@16
    A44BC __imp__DAQmxGetCIVelocityEncoderAInputDigFltrTimebaseSrc@16
    E252C _DAQmxSetCIVelocityEncoderAInputDigFltrTimebaseSrc@12
    E252C __imp__DAQmxSetCIVelocityEncoderAInputDigFltrTimebaseSrc@12
    CA024 _DAQmxResetCIVelocityEncoderAInputDigFltrTimebaseSrc@8
    CA024 __imp__DAQmxResetCIVelocityEncoderAInputDigFltrTimebaseSrc@8
    A442A _DAQmxGetCIVelocityEncoderAInputDigFltrTimebaseRate@12
    A442A __imp__DAQmxGetCIVelocityEncoderAInputDigFltrTimebaseRate@12
    E249A _DAQmxSetCIVelocityEncoderAInputDigFltrTimebaseRate@16
    E249A __imp__DAQmxSetCIVelocityEncoderAInputDigFltrTimebaseRate@16
    C9F90 _DAQmxResetCIVelocityEncoderAInputDigFltrTimebaseRate@8
    C9F90 __imp__DAQmxResetCIVelocityEncoderAInputDigFltrTimebaseRate@8
    A4A4C _DAQmxGetCIVelocityEncoderBInputTerm@16
    A4A4C __imp__DAQmxGetCIVelocityEncoderBInputTerm@16
    E2A2C _DAQmxSetCIVelocityEncoderBInputTerm@12
    E2A2C __imp__DAQmxSetCIVelocityEncoderBInputTerm@12
    CA52A _DAQmxResetCIVelocityEncoderBInputTerm@8
    CA52A __imp__DAQmxResetCIVelocityEncoderBInputTerm@8
    A4AD0 _DAQmxGetCIVelocityEncoderBInputTermCfg@12
    A4AD0 __imp__DAQmxGetCIVelocityEncoderBInputTermCfg@12
    E2AB0 _DAQmxSetCIVelocityEncoderBInputTermCfg@12
    E2AB0 __imp__DAQmxSetCIVelocityEncoderBInputTermCfg@12
    CA5AE _DAQmxResetCIVelocityEncoderBInputTermCfg@8
    CA5AE __imp__DAQmxResetCIVelocityEncoderBInputTermCfg@8
    A49BC _DAQmxGetCIVelocityEncoderBInputLogicLvlBehavior@12
    A49BC __imp__DAQmxGetCIVelocityEncoderBInputLogicLvlBehavior@12
    E299C _DAQmxSetCIVelocityEncoderBInputLogicLvlBehavior@12
    E299C __imp__DAQmxSetCIVelocityEncoderBInputLogicLvlBehavior@12
    CA49A _DAQmxResetCIVelocityEncoderBInputLogicLvlBehavior@8
    CA49A __imp__DAQmxResetCIVelocityEncoderBInputLogicLvlBehavior@8
    A46E8 _DAQmxGetCIVelocityEncoderBInputDigFltrEnable@12
    A46E8 __imp__DAQmxGetCIVelocityEncoderBInputDigFltrEnable@12
    E2758 _DAQmxSetCIVelocityEncoderBInputDigFltrEnable@12
    E2758 __imp__DAQmxSetCIVelocityEncoderBInputDigFltrEnable@12
    CA252 _DAQmxResetCIVelocityEncoderBInputDigFltrEnable@8
    CA252 __imp__DAQmxResetCIVelocityEncoderBInputDigFltrEnable@8
    A4804 _DAQmxGetCIVelocityEncoderBInputDigFltrMinPulseWidth@12
    A4804 __imp__DAQmxGetCIVelocityEncoderBInputDigFltrMinPulseWidth@12
    E27E4 _DAQmxSetCIVelocityEncoderBInputDigFltrMinPulseWidth@16
    E27E4 __imp__DAQmxSetCIVelocityEncoderBInputDigFltrMinPulseWidth@16
    CA2E0 _DAQmxResetCIVelocityEncoderBInputDigFltrMinPulseWidth@8
    CA2E0 __imp__DAQmxResetCIVelocityEncoderBInputDigFltrMinPulseWidth@8
    A492A _DAQmxGetCIVelocityEncoderBInputDigFltrTimebaseSrc@16
    A492A __imp__DAQmxGetCIVelocityEncoderBInputDigFltrTimebaseSrc@16
    E290A _DAQmxSetCIVelocityEncoderBInputDigFltrTimebaseSrc@12
    E290A __imp__DAQmxSetCIVelocityEncoderBInputDigFltrTimebaseSrc@12
    CA408 _DAQmxResetCIVelocityEncoderBInputDigFltrTimebaseSrc@8
    CA408 __imp__DAQmxResetCIVelocityEncoderBInputDigFltrTimebaseSrc@8
    A4898 _DAQmxGetCIVelocityEncoderBInputDigFltrTimebaseRate@12
    A4898 __imp__DAQmxGetCIVelocityEncoderBInputDigFltrTimebaseRate@12
    E2878 _DAQmxSetCIVelocityEncoderBInputDigFltrTimebaseRate@16
    E2878 __imp__DAQmxSetCIVelocityEncoderBInputDigFltrTimebaseRate@16
    CA374 _DAQmxResetCIVelocityEncoderBInputDigFltrTimebaseRate@8
    CA374 __imp__DAQmxResetCIVelocityEncoderBInputDigFltrTimebaseRate@8
    A4CE6 _DAQmxGetCIVelocityMeasTime@12
    A4CE6 __imp__DAQmxGetCIVelocityMeasTime@12
    E2CC6 _DAQmxSetCIVelocityMeasTime@16
    E2CC6 __imp__DAQmxSetCIVelocityMeasTime@16
    CA7C8 _DAQmxResetCIVelocityMeasTime@8
    CA7C8 __imp__DAQmxResetCIVelocityMeasTime@8
    A4204 _DAQmxGetCIVelocityDiv@12
    A4204 __imp__DAQmxGetCIVelocityDiv@12
    E2304 _DAQmxSetCIVelocityDiv@12
    E2304 __imp__DAQmxSetCIVelocityDiv@12
    C9DF8 _DAQmxResetCIVelocityDiv@8
    C9DF8 __imp__DAQmxResetCIVelocityDiv@8
    A3F8E _DAQmxGetCITwoEdgeSepUnits@12
    A3F8E __imp__DAQmxGetCITwoEdgeSepUnits@12
    E208E _DAQmxSetCITwoEdgeSepUnits@12
    E208E __imp__DAQmxSetCITwoEdgeSepUnits@12
    C9B7E _DAQmxResetCITwoEdgeSepUnits@8
    C9B7E __imp__DAQmxResetCITwoEdgeSepUnits@8
    A38B8 _DAQmxGetCITwoEdgeSepFirstTerm@16
    A38B8 __imp__DAQmxGetCITwoEdgeSepFirstTerm@16
    E1AD0 _DAQmxSetCITwoEdgeSepFirstTerm@12
    E1AD0 __imp__DAQmxSetCITwoEdgeSepFirstTerm@12
    C95B4 _DAQmxResetCITwoEdgeSepFirstTerm@8
    C95B4 __imp__DAQmxResetCITwoEdgeSepFirstTerm@8
    A3936 _DAQmxGetCITwoEdgeSepFirstTermCfg@12
    A3936 __imp__DAQmxGetCITwoEdgeSepFirstTermCfg@12
    E1B4E _DAQmxSetCITwoEdgeSepFirstTermCfg@12
    E1B4E __imp__DAQmxSetCITwoEdgeSepFirstTermCfg@12
    C9632 _DAQmxResetCITwoEdgeSepFirstTermCfg@8
    C9632 __imp__DAQmxResetCITwoEdgeSepFirstTermCfg@8
    A382E _DAQmxGetCITwoEdgeSepFirstLogicLvlBehavior@12
    A382E __imp__DAQmxGetCITwoEdgeSepFirstLogicLvlBehavior@12
    E1A46 _DAQmxSetCITwoEdgeSepFirstLogicLvlBehavior@12
    E1A46 __imp__DAQmxSetCITwoEdgeSepFirstLogicLvlBehavior@12
    C952A _DAQmxResetCITwoEdgeSepFirstLogicLvlBehavior@8
    C952A __imp__DAQmxResetCITwoEdgeSepFirstLogicLvlBehavior@8
    A33EA _DAQmxGetCITwoEdgeSepFirstDigFltrEnable@12
    A33EA __imp__DAQmxGetCITwoEdgeSepFirstDigFltrEnable@12
    E1716 _DAQmxSetCITwoEdgeSepFirstDigFltrEnable@12
    E1716 __imp__DAQmxSetCITwoEdgeSepFirstDigFltrEnable@12
    C91F4 _DAQmxResetCITwoEdgeSepFirstDigFltrEnable@8
    C91F4 __imp__DAQmxResetCITwoEdgeSepFirstDigFltrEnable@8
    A34FA _DAQmxGetCITwoEdgeSepFirstDigFltrMinPulseWidth@12
    A34FA __imp__DAQmxGetCITwoEdgeSepFirstDigFltrMinPulseWidth@12
    E179C _DAQmxSetCITwoEdgeSepFirstDigFltrMinPulseWidth@16
    E179C __imp__DAQmxSetCITwoEdgeSepFirstDigFltrMinPulseWidth@16
    C927C _DAQmxResetCITwoEdgeSepFirstDigFltrMinPulseWidth@8
    C927C __imp__DAQmxResetCITwoEdgeSepFirstDigFltrMinPulseWidth@8
    A3614 _DAQmxGetCITwoEdgeSepFirstDigFltrTimebaseSrc@16
    A3614 __imp__DAQmxGetCITwoEdgeSepFirstDigFltrTimebaseSrc@16
    E18B6 _DAQmxSetCITwoEdgeSepFirstDigFltrTimebaseSrc@12
    E18B6 __imp__DAQmxSetCITwoEdgeSepFirstDigFltrTimebaseSrc@12
    C9398 _DAQmxResetCITwoEdgeSepFirstDigFltrTimebaseSrc@8
    C9398 __imp__DAQmxResetCITwoEdgeSepFirstDigFltrTimebaseSrc@8
    A3588 _DAQmxGetCITwoEdgeSepFirstDigFltrTimebaseRate@12
    A3588 __imp__DAQmxGetCITwoEdgeSepFirstDigFltrTimebaseRate@12
    E182A _DAQmxSetCITwoEdgeSepFirstDigFltrTimebaseRate@16
    E182A __imp__DAQmxSetCITwoEdgeSepFirstDigFltrTimebaseRate@16
    C930A _DAQmxResetCITwoEdgeSepFirstDigFltrTimebaseRate@8
    C930A __imp__DAQmxResetCITwoEdgeSepFirstDigFltrTimebaseRate@8
    A36A0 _DAQmxGetCITwoEdgeSepFirstDigSyncEnable@12
    A36A0 __imp__DAQmxGetCITwoEdgeSepFirstDigSyncEnable@12
    E1942 _DAQmxSetCITwoEdgeSepFirstDigSyncEnable@12
    E1942 __imp__DAQmxSetCITwoEdgeSepFirstDigSyncEnable@12
    C9424 _DAQmxResetCITwoEdgeSepFirstDigSyncEnable@8
    C9424 __imp__DAQmxResetCITwoEdgeSepFirstDigSyncEnable@8
    A37B0 _DAQmxGetCITwoEdgeSepFirstEdge@12
    A37B0 __imp__DAQmxGetCITwoEdgeSepFirstEdge@12
    E19C8 _DAQmxSetCITwoEdgeSepFirstEdge@12
    E19C8 __imp__DAQmxSetCITwoEdgeSepFirstEdge@12
    C94AC _DAQmxResetCITwoEdgeSepFirstEdge@8
    C94AC __imp__DAQmxResetCITwoEdgeSepFirstEdge@8
    A3E8E _DAQmxGetCITwoEdgeSepSecondTerm@16
    A3E8E __imp__DAQmxGetCITwoEdgeSepSecondTerm@16
    E1F8E _DAQmxSetCITwoEdgeSepSecondTerm@12
    E1F8E __imp__DAQmxSetCITwoEdgeSepSecondTerm@12
    C9A7C _DAQmxResetCITwoEdgeSepSecondTerm@8
    C9A7C __imp__DAQmxResetCITwoEdgeSepSecondTerm@8
    A3F0C _DAQmxGetCITwoEdgeSepSecondTermCfg@12
    A3F0C __imp__DAQmxGetCITwoEdgeSepSecondTermCfg@12
    E200C _DAQmxSetCITwoEdgeSepSecondTermCfg@12
    E200C __imp__DAQmxSetCITwoEdgeSepSecondTermCfg@12
    C9AFC _DAQmxResetCITwoEdgeSepSecondTermCfg@8
    C9AFC __imp__DAQmxResetCITwoEdgeSepSecondTermCfg@8
    A3E04 _DAQmxGetCITwoEdgeSepSecondLogicLvlBehavior@12
    A3E04 __imp__DAQmxGetCITwoEdgeSepSecondLogicLvlBehavior@12
    E1F04 _DAQmxSetCITwoEdgeSepSecondLogicLvlBehavior@12
    E1F04 __imp__DAQmxSetCITwoEdgeSepSecondLogicLvlBehavior@12
    C99F0 _DAQmxResetCITwoEdgeSepSecondLogicLvlBehavior@8
    C99F0 __imp__DAQmxResetCITwoEdgeSepSecondLogicLvlBehavior@8
    A39B6 _DAQmxGetCITwoEdgeSepSecondDigFltrEnable@12
    A39B6 __imp__DAQmxGetCITwoEdgeSepSecondDigFltrEnable@12
    E1BCE _DAQmxSetCITwoEdgeSepSecondDigFltrEnable@12
    E1BCE __imp__DAQmxSetCITwoEdgeSepSecondDigFltrEnable@12
    C96B4 _DAQmxResetCITwoEdgeSepSecondDigFltrEnable@8
    C96B4 __imp__DAQmxResetCITwoEdgeSepSecondDigFltrEnable@8
    A3ACA _DAQmxGetCITwoEdgeSepSecondDigFltrMinPulseWidth@12
    A3ACA __imp__DAQmxGetCITwoEdgeSepSecondDigFltrMinPulseWidth@12
    E1C56 _DAQmxSetCITwoEdgeSepSecondDigFltrMinPulseWidth@16
    E1C56 __imp__DAQmxSetCITwoEdgeSepSecondDigFltrMinPulseWidth@16
    C973C _DAQmxResetCITwoEdgeSepSecondDigFltrMinPulseWidth@8
    C973C __imp__DAQmxResetCITwoEdgeSepSecondDigFltrMinPulseWidth@8
    A3BE6 _DAQmxGetCITwoEdgeSepSecondDigFltrTimebaseSrc@16
    A3BE6 __imp__DAQmxGetCITwoEdgeSepSecondDigFltrTimebaseSrc@16
    E1D72 _DAQmxSetCITwoEdgeSepSecondDigFltrTimebaseSrc@12
    E1D72 __imp__DAQmxSetCITwoEdgeSepSecondDigFltrTimebaseSrc@12
    C985A _DAQmxResetCITwoEdgeSepSecondDigFltrTimebaseSrc@8
    C985A __imp__DAQmxResetCITwoEdgeSepSecondDigFltrTimebaseSrc@8
    A3B58 _DAQmxGetCITwoEdgeSepSecondDigFltrTimebaseRate@12
    A3B58 __imp__DAQmxGetCITwoEdgeSepSecondDigFltrTimebaseRate@12
    E1CE4 _DAQmxSetCITwoEdgeSepSecondDigFltrTimebaseRate@16
    E1CE4 __imp__DAQmxSetCITwoEdgeSepSecondDigFltrTimebaseRate@16
    C97CC _DAQmxResetCITwoEdgeSepSecondDigFltrTimebaseRate@8
    C97CC __imp__DAQmxResetCITwoEdgeSepSecondDigFltrTimebaseRate@8
    A3C72 _DAQmxGetCITwoEdgeSepSecondDigSyncEnable@12
    A3C72 __imp__DAQmxGetCITwoEdgeSepSecondDigSyncEnable@12
    E1DFE _DAQmxSetCITwoEdgeSepSecondDigSyncEnable@12
    E1DFE __imp__DAQmxSetCITwoEdgeSepSecondDigSyncEnable@12
    C98E8 _DAQmxResetCITwoEdgeSepSecondDigSyncEnable@8
    C98E8 __imp__DAQmxResetCITwoEdgeSepSecondDigSyncEnable@8
    A3D86 _DAQmxGetCITwoEdgeSepSecondEdge@12
    A3D86 __imp__DAQmxGetCITwoEdgeSepSecondEdge@12
    E1E86 _DAQmxSetCITwoEdgeSepSecondEdge@12
    E1E86 __imp__DAQmxSetCITwoEdgeSepSecondEdge@12
    C9970 _DAQmxResetCITwoEdgeSepSecondEdge@8
    C9970 __imp__DAQmxResetCITwoEdgeSepSecondEdge@8
    A3112 _DAQmxGetCISemiPeriodUnits@12
    A3112 __imp__DAQmxGetCISemiPeriodUnits@12
    E152A _DAQmxSetCISemiPeriodUnits@12
    E152A __imp__DAQmxSetCISemiPeriodUnits@12
    C9006 _DAQmxResetCISemiPeriodUnits@8
    C9006 __imp__DAQmxResetCISemiPeriodUnits@8
    A301E _DAQmxGetCISemiPeriodTerm@16
    A301E __imp__DAQmxGetCISemiPeriodTerm@16
    E1436 _DAQmxSetCISemiPeriodTerm@12
    E1436 __imp__DAQmxSetCISemiPeriodTerm@12
    C8F10 _DAQmxResetCISemiPeriodTerm@8
    C8F10 __imp__DAQmxResetCISemiPeriodTerm@8
    A3096 _DAQmxGetCISemiPeriodTermCfg@12
    A3096 __imp__DAQmxGetCISemiPeriodTermCfg@12
    E14AE _DAQmxSetCISemiPeriodTermCfg@12
    E14AE __imp__DAQmxSetCISemiPeriodTermCfg@12
    C8F8A _DAQmxResetCISemiPeriodTermCfg@8
    C8F8A __imp__DAQmxResetCISemiPeriodTermCfg@8
    A2F1A _DAQmxGetCISemiPeriodLogicLvlBehavior@12
    A2F1A __imp__DAQmxGetCISemiPeriodLogicLvlBehavior@12
    E1332 _DAQmxSetCISemiPeriodLogicLvlBehavior@12
    E1332 __imp__DAQmxSetCISemiPeriodLogicLvlBehavior@12
    C8E08 _DAQmxResetCISemiPeriodLogicLvlBehavior@8
    C8E08 __imp__DAQmxResetCISemiPeriodLogicLvlBehavior@8
    A2B74 _DAQmxGetCISemiPeriodDigFltrEnable@12
    A2B74 __imp__DAQmxGetCISemiPeriodDigFltrEnable@12
    E1098 _DAQmxSetCISemiPeriodDigFltrEnable@12
    E1098 __imp__DAQmxSetCISemiPeriodDigFltrEnable@12
    C8B6A _DAQmxResetCISemiPeriodDigFltrEnable@8
    C8B6A __imp__DAQmxResetCISemiPeriodDigFltrEnable@8
    A2C7C _DAQmxGetCISemiPeriodDigFltrMinPulseWidth@12
    A2C7C __imp__DAQmxGetCISemiPeriodDigFltrMinPulseWidth@12
    E111A _DAQmxSetCISemiPeriodDigFltrMinPulseWidth@16
    E111A __imp__DAQmxSetCISemiPeriodDigFltrMinPulseWidth@16
    C8BEC _DAQmxResetCISemiPeriodDigFltrMinPulseWidth@8
    C8BEC __imp__DAQmxResetCISemiPeriodDigFltrMinPulseWidth@8
    A2D8C _DAQmxGetCISemiPeriodDigFltrTimebaseSrc@16
    A2D8C __imp__DAQmxGetCISemiPeriodDigFltrTimebaseSrc@16
    E122A _DAQmxSetCISemiPeriodDigFltrTimebaseSrc@12
    E122A __imp__DAQmxSetCISemiPeriodDigFltrTimebaseSrc@12
    C8CFE _DAQmxResetCISemiPeriodDigFltrTimebaseSrc@8
    C8CFE __imp__DAQmxResetCISemiPeriodDigFltrTimebaseSrc@8
    A2D04 _DAQmxGetCISemiPeriodDigFltrTimebaseRate@12
    A2D04 __imp__DAQmxGetCISemiPeriodDigFltrTimebaseRate@12
    E11A2 _DAQmxSetCISemiPeriodDigFltrTimebaseRate@16
    E11A2 __imp__DAQmxSetCISemiPeriodDigFltrTimebaseRate@16
    C8C76 _DAQmxResetCISemiPeriodDigFltrTimebaseRate@8
    C8C76 __imp__DAQmxResetCISemiPeriodDigFltrTimebaseRate@8
    A2E12 _DAQmxGetCISemiPeriodDigSyncEnable@12
    A2E12 __imp__DAQmxGetCISemiPeriodDigSyncEnable@12
    E12B0 _DAQmxSetCISemiPeriodDigSyncEnable@12
    E12B0 __imp__DAQmxSetCISemiPeriodDigSyncEnable@12
    C8D86 _DAQmxResetCISemiPeriodDigSyncEnable@8
    C8D86 __imp__DAQmxResetCISemiPeriodDigSyncEnable@8
    A2F9E _DAQmxGetCISemiPeriodStartingEdge@12
    A2F9E __imp__DAQmxGetCISemiPeriodStartingEdge@12
    E13B6 _DAQmxSetCISemiPeriodStartingEdge@12
    E13B6 __imp__DAQmxSetCISemiPeriodStartingEdge@12
    C8E8E _DAQmxResetCISemiPeriodStartingEdge@8
    C8E8E __imp__DAQmxResetCISemiPeriodStartingEdge@8
    A183E _DAQmxGetCIPulseFreqUnits@12
    A183E __imp__DAQmxGetCIPulseFreqUnits@12
    E0082 _DAQmxSetCIPulseFreqUnits@12
    E0082 __imp__DAQmxSetCIPulseFreqUnits@12
    C7B32 _DAQmxResetCIPulseFreqUnits@8
    C7B32 __imp__DAQmxResetCIPulseFreqUnits@8
    A174C _DAQmxGetCIPulseFreqTerm@16
    A174C __imp__DAQmxGetCIPulseFreqTerm@16
    DFF90 _DAQmxSetCIPulseFreqTerm@12
    DFF90 __imp__DAQmxSetCIPulseFreqTerm@12
    C7A3E _DAQmxResetCIPulseFreqTerm@8
    C7A3E __imp__DAQmxResetCIPulseFreqTerm@8
    A17C4 _DAQmxGetCIPulseFreqTermCfg@12
    A17C4 __imp__DAQmxGetCIPulseFreqTermCfg@12
    E0008 _DAQmxSetCIPulseFreqTermCfg@12
    E0008 __imp__DAQmxSetCIPulseFreqTermCfg@12
    C7AB6 _DAQmxResetCIPulseFreqTermCfg@8
    C7AB6 __imp__DAQmxResetCIPulseFreqTermCfg@8
    A164C _DAQmxGetCIPulseFreqLogicLvlBehavior@12
    A164C __imp__DAQmxGetCIPulseFreqLogicLvlBehavior@12
    DFE90 _DAQmxSetCIPulseFreqLogicLvlBehavior@12
    DFE90 __imp__DAQmxSetCIPulseFreqLogicLvlBehavior@12
    C793C _DAQmxResetCIPulseFreqLogicLvlBehavior@8
    C793C __imp__DAQmxResetCIPulseFreqLogicLvlBehavior@8
    A12B0 _DAQmxGetCIPulseFreqDigFltrEnable@12
    A12B0 __imp__DAQmxGetCIPulseFreqDigFltrEnable@12
    DFBFC _DAQmxSetCIPulseFreqDigFltrEnable@12
    DFBFC __imp__DAQmxSetCIPulseFreqDigFltrEnable@12
    C76A2 _DAQmxResetCIPulseFreqDigFltrEnable@8
    C76A2 __imp__DAQmxResetCIPulseFreqDigFltrEnable@8
    A13B4 _DAQmxGetCIPulseFreqDigFltrMinPulseWidth@12
    A13B4 __imp__DAQmxGetCIPulseFreqDigFltrMinPulseWidth@12
    DFC7C _DAQmxSetCIPulseFreqDigFltrMinPulseWidth@16
    DFC7C __imp__DAQmxSetCIPulseFreqDigFltrMinPulseWidth@16
    C7724 _DAQmxResetCIPulseFreqDigFltrMinPulseWidth@8
    C7724 __imp__DAQmxResetCIPulseFreqDigFltrMinPulseWidth@8
    A14C2 _DAQmxGetCIPulseFreqDigFltrTimebaseSrc@16
    A14C2 __imp__DAQmxGetCIPulseFreqDigFltrTimebaseSrc@16
    DFD8A _DAQmxSetCIPulseFreqDigFltrTimebaseSrc@12
    DFD8A __imp__DAQmxSetCIPulseFreqDigFltrTimebaseSrc@12
    C7834 _DAQmxResetCIPulseFreqDigFltrTimebaseSrc@8
    C7834 __imp__DAQmxResetCIPulseFreqDigFltrTimebaseSrc@8
    A143C _DAQmxGetCIPulseFreqDigFltrTimebaseRate@12
    A143C __imp__DAQmxGetCIPulseFreqDigFltrTimebaseRate@12
    DFD04 _DAQmxSetCIPulseFreqDigFltrTimebaseRate@16
    DFD04 __imp__DAQmxSetCIPulseFreqDigFltrTimebaseRate@16
    C77AC _DAQmxResetCIPulseFreqDigFltrTimebaseRate@8
    C77AC __imp__DAQmxResetCIPulseFreqDigFltrTimebaseRate@8
    A1548 _DAQmxGetCIPulseFreqDigSyncEnable@12
    A1548 __imp__DAQmxGetCIPulseFreqDigSyncEnable@12
    DFE10 _DAQmxSetCIPulseFreqDigSyncEnable@12
    DFE10 __imp__DAQmxSetCIPulseFreqDigSyncEnable@12
    C78BA _DAQmxResetCIPulseFreqDigSyncEnable@8
    C78BA __imp__DAQmxResetCIPulseFreqDigSyncEnable@8
    A16D0 _DAQmxGetCIPulseFreqStartEdge@12
    A16D0 __imp__DAQmxGetCIPulseFreqStartEdge@12
    DFF14 _DAQmxSetCIPulseFreqStartEdge@12
    DFF14 __imp__DAQmxSetCIPulseFreqStartEdge@12
    C79C0 _DAQmxResetCIPulseFreqStartEdge@8
    C79C0 __imp__DAQmxResetCIPulseFreqStartEdge@8
    A23E0 _DAQmxGetCIPulseTimeUnits@12
    A23E0 __imp__DAQmxGetCIPulseTimeUnits@12
    E0A10 _DAQmxSetCIPulseTimeUnits@12
    E0A10 __imp__DAQmxSetCIPulseTimeUnits@12
    C84D4 _DAQmxResetCIPulseTimeUnits@8
    C84D4 __imp__DAQmxResetCIPulseTimeUnits@8
    A22EE _DAQmxGetCIPulseTimeTerm@16
    A22EE __imp__DAQmxGetCIPulseTimeTerm@16
    E091E _DAQmxSetCIPulseTimeTerm@12
    E091E __imp__DAQmxSetCIPulseTimeTerm@12
    C83E0 _DAQmxResetCIPulseTimeTerm@8
    C83E0 __imp__DAQmxResetCIPulseTimeTerm@8
    A2366 _DAQmxGetCIPulseTimeTermCfg@12
    A2366 __imp__DAQmxGetCIPulseTimeTermCfg@12
    E0996 _DAQmxSetCIPulseTimeTermCfg@12
    E0996 __imp__DAQmxSetCIPulseTimeTermCfg@12
    C8458 _DAQmxResetCIPulseTimeTermCfg@8
    C8458 __imp__DAQmxResetCIPulseTimeTermCfg@8
    A21EE _DAQmxGetCIPulseTimeLogicLvlBehavior@12
    A21EE __imp__DAQmxGetCIPulseTimeLogicLvlBehavior@12
    E081E _DAQmxSetCIPulseTimeLogicLvlBehavior@12
    E081E __imp__DAQmxSetCIPulseTimeLogicLvlBehavior@12
    C82DE _DAQmxResetCIPulseTimeLogicLvlBehavior@8
    C82DE __imp__DAQmxResetCIPulseTimeLogicLvlBehavior@8
    A1E52 _DAQmxGetCIPulseTimeDigFltrEnable@12
    A1E52 __imp__DAQmxGetCIPulseTimeDigFltrEnable@12
    E058A _DAQmxSetCIPulseTimeDigFltrEnable@12
    E058A __imp__DAQmxSetCIPulseTimeDigFltrEnable@12
    C8044 _DAQmxResetCIPulseTimeDigFltrEnable@8
    C8044 __imp__DAQmxResetCIPulseTimeDigFltrEnable@8
    A1F56 _DAQmxGetCIPulseTimeDigFltrMinPulseWidth@12
    A1F56 __imp__DAQmxGetCIPulseTimeDigFltrMinPulseWidth@12
    E060A _DAQmxSetCIPulseTimeDigFltrMinPulseWidth@16
    E060A __imp__DAQmxSetCIPulseTimeDigFltrMinPulseWidth@16
    C80C6 _DAQmxResetCIPulseTimeDigFltrMinPulseWidth@8
    C80C6 __imp__DAQmxResetCIPulseTimeDigFltrMinPulseWidth@8
    A2064 _DAQmxGetCIPulseTimeDigFltrTimebaseSrc@16
    A2064 __imp__DAQmxGetCIPulseTimeDigFltrTimebaseSrc@16
    E0718 _DAQmxSetCIPulseTimeDigFltrTimebaseSrc@12
    E0718 __imp__DAQmxSetCIPulseTimeDigFltrTimebaseSrc@12
    C81D6 _DAQmxResetCIPulseTimeDigFltrTimebaseSrc@8
    C81D6 __imp__DAQmxResetCIPulseTimeDigFltrTimebaseSrc@8
    A1FDE _DAQmxGetCIPulseTimeDigFltrTimebaseRate@12
    A1FDE __imp__DAQmxGetCIPulseTimeDigFltrTimebaseRate@12
    E0692 _DAQmxSetCIPulseTimeDigFltrTimebaseRate@16
    E0692 __imp__DAQmxSetCIPulseTimeDigFltrTimebaseRate@16
    C814E _DAQmxResetCIPulseTimeDigFltrTimebaseRate@8
    C814E __imp__DAQmxResetCIPulseTimeDigFltrTimebaseRate@8
    A20EA _DAQmxGetCIPulseTimeDigSyncEnable@12
    A20EA __imp__DAQmxGetCIPulseTimeDigSyncEnable@12
    E079E _DAQmxSetCIPulseTimeDigSyncEnable@12
    E079E __imp__DAQmxSetCIPulseTimeDigSyncEnable@12
    C825C _DAQmxResetCIPulseTimeDigSyncEnable@8
    C825C __imp__DAQmxResetCIPulseTimeDigSyncEnable@8
    A2272 _DAQmxGetCIPulseTimeStartEdge@12
    A2272 __imp__DAQmxGetCIPulseTimeStartEdge@12
    E08A2 _DAQmxSetCIPulseTimeStartEdge@12
    E08A2 __imp__DAQmxSetCIPulseTimeStartEdge@12
    C8362 _DAQmxResetCIPulseTimeStartEdge@8
    C8362 __imp__DAQmxResetCIPulseTimeStartEdge@8
    A1D5E _DAQmxGetCIPulseTicksTerm@16
    A1D5E __imp__DAQmxGetCIPulseTicksTerm@16
    E0496 _DAQmxSetCIPulseTicksTerm@12
    E0496 __imp__DAQmxSetCIPulseTicksTerm@12
    C7F4E _DAQmxResetCIPulseTicksTerm@8
    C7F4E __imp__DAQmxResetCIPulseTicksTerm@8
    A1DD6 _DAQmxGetCIPulseTicksTermCfg@12
    A1DD6 __imp__DAQmxGetCIPulseTicksTermCfg@12
    E050E _DAQmxSetCIPulseTicksTermCfg@12
    E050E __imp__DAQmxSetCIPulseTicksTermCfg@12
    C7FC8 _DAQmxResetCIPulseTicksTermCfg@8
    C7FC8 __imp__DAQmxResetCIPulseTicksTermCfg@8
    A1C5C _DAQmxGetCIPulseTicksLogicLvlBehavior@12
    A1C5C __imp__DAQmxGetCIPulseTicksLogicLvlBehavior@12
    E0394 _DAQmxSetCIPulseTicksLogicLvlBehavior@12
    E0394 __imp__DAQmxSetCIPulseTicksLogicLvlBehavior@12
    C7E4A _DAQmxResetCIPulseTicksLogicLvlBehavior@8
    C7E4A __imp__DAQmxResetCIPulseTicksLogicLvlBehavior@8
    A18B6 _DAQmxGetCIPulseTicksDigFltrEnable@12
    A18B6 __imp__DAQmxGetCIPulseTicksDigFltrEnable@12
    E00FA _DAQmxSetCIPulseTicksDigFltrEnable@12
    E00FA __imp__DAQmxSetCIPulseTicksDigFltrEnable@12
    C7BAC _DAQmxResetCIPulseTicksDigFltrEnable@8
    C7BAC __imp__DAQmxResetCIPulseTicksDigFltrEnable@8
    A19BE _DAQmxGetCIPulseTicksDigFltrMinPulseWidth@12
    A19BE __imp__DAQmxGetCIPulseTicksDigFltrMinPulseWidth@12
    E017C _DAQmxSetCIPulseTicksDigFltrMinPulseWidth@16
    E017C __imp__DAQmxSetCIPulseTicksDigFltrMinPulseWidth@16
    C7C2E _DAQmxResetCIPulseTicksDigFltrMinPulseWidth@8
    C7C2E __imp__DAQmxResetCIPulseTicksDigFltrMinPulseWidth@8
    A1ACE _DAQmxGetCIPulseTicksDigFltrTimebaseSrc@16
    A1ACE __imp__DAQmxGetCIPulseTicksDigFltrTimebaseSrc@16
    E028C _DAQmxSetCIPulseTicksDigFltrTimebaseSrc@12
    E028C __imp__DAQmxSetCIPulseTicksDigFltrTimebaseSrc@12
    C7D40 _DAQmxResetCIPulseTicksDigFltrTimebaseSrc@8
    C7D40 __imp__DAQmxResetCIPulseTicksDigFltrTimebaseSrc@8
    A1A46 _DAQmxGetCIPulseTicksDigFltrTimebaseRate@12
    A1A46 __imp__DAQmxGetCIPulseTicksDigFltrTimebaseRate@12
    E0204 _DAQmxSetCIPulseTicksDigFltrTimebaseRate@16
    E0204 __imp__DAQmxSetCIPulseTicksDigFltrTimebaseRate@16
    C7CB8 _DAQmxResetCIPulseTicksDigFltrTimebaseRate@8
    C7CB8 __imp__DAQmxResetCIPulseTicksDigFltrTimebaseRate@8
    A1B54 _DAQmxGetCIPulseTicksDigSyncEnable@12
    A1B54 __imp__DAQmxGetCIPulseTicksDigSyncEnable@12
    E0312 _DAQmxSetCIPulseTicksDigSyncEnable@12
    E0312 __imp__DAQmxSetCIPulseTicksDigSyncEnable@12
    C7DC8 _DAQmxResetCIPulseTicksDigSyncEnable@8
    C7DC8 __imp__DAQmxResetCIPulseTicksDigSyncEnable@8
    A1CE0 _DAQmxGetCIPulseTicksStartEdge@12
    A1CE0 __imp__DAQmxGetCIPulseTicksStartEdge@12
    E0418 _DAQmxSetCIPulseTicksStartEdge@12
    E0418 __imp__DAQmxSetCIPulseTicksStartEdge@12
    C7ED0 _DAQmxResetCIPulseTicksStartEdge@8
    C7ED0 __imp__DAQmxResetCIPulseTicksStartEdge@8
    9E222 _DAQmxGetCICtrTimebaseSrc@16
    9E222 __imp__DAQmxGetCICtrTimebaseSrc@16
    DD510 _DAQmxSetCICtrTimebaseSrc@12
    DD510 __imp__DAQmxSetCICtrTimebaseSrc@12
    C4F6C _DAQmxResetCICtrTimebaseSrc@8
    C4F6C __imp__DAQmxResetCICtrTimebaseSrc@8
    9E1A8 _DAQmxGetCICtrTimebaseRate@12
    9E1A8 __imp__DAQmxGetCICtrTimebaseRate@12
    DD496 _DAQmxSetCICtrTimebaseRate@16
    DD496 __imp__DAQmxSetCICtrTimebaseRate@16
    C4EF2 _DAQmxResetCICtrTimebaseRate@8
    C4EF2 __imp__DAQmxResetCICtrTimebaseRate@8
    9DCF8 _DAQmxGetCICtrTimebaseActiveEdge@12
    9DCF8 __imp__DAQmxGetCICtrTimebaseActiveEdge@12
    DD0F2 _DAQmxSetCICtrTimebaseActiveEdge@12
    DD0F2 __imp__DAQmxSetCICtrTimebaseActiveEdge@12
    C4B46 _DAQmxResetCICtrTimebaseActiveEdge@8
    C4B46 __imp__DAQmxResetCICtrTimebaseActiveEdge@8
    9DD78 _DAQmxGetCICtrTimebaseDigFltrEnable@12
    9DD78 __imp__DAQmxGetCICtrTimebaseDigFltrEnable@12
    DD172 _DAQmxSetCICtrTimebaseDigFltrEnable@12
    DD172 __imp__DAQmxSetCICtrTimebaseDigFltrEnable@12
    C4BC6 _DAQmxResetCICtrTimebaseDigFltrEnable@8
    C4BC6 __imp__DAQmxResetCICtrTimebaseDigFltrEnable@8
    9DE80 _DAQmxGetCICtrTimebaseDigFltrMinPulseWidth@12
    9DE80 __imp__DAQmxGetCICtrTimebaseDigFltrMinPulseWidth@12
    DD1F4 _DAQmxSetCICtrTimebaseDigFltrMinPulseWidth@16
    DD1F4 __imp__DAQmxSetCICtrTimebaseDigFltrMinPulseWidth@16
    C4C4A _DAQmxResetCICtrTimebaseDigFltrMinPulseWidth@8
    C4C4A __imp__DAQmxResetCICtrTimebaseDigFltrMinPulseWidth@8
    9DF92 _DAQmxGetCICtrTimebaseDigFltrTimebaseSrc@16
    9DF92 __imp__DAQmxGetCICtrTimebaseDigFltrTimebaseSrc@16
    DD306 _DAQmxSetCICtrTimebaseDigFltrTimebaseSrc@12
    DD306 __imp__DAQmxSetCICtrTimebaseDigFltrTimebaseSrc@12
    C4D5E _DAQmxResetCICtrTimebaseDigFltrTimebaseSrc@8
    C4D5E __imp__DAQmxResetCICtrTimebaseDigFltrTimebaseSrc@8
    9DF0A _DAQmxGetCICtrTimebaseDigFltrTimebaseRate@12
    9DF0A __imp__DAQmxGetCICtrTimebaseDigFltrTimebaseRate@12
    DD27E _DAQmxSetCICtrTimebaseDigFltrTimebaseRate@16
    DD27E __imp__DAQmxSetCICtrTimebaseDigFltrTimebaseRate@16
    C4CD4 _DAQmxResetCICtrTimebaseDigFltrTimebaseRate@8
    C4CD4 __imp__DAQmxResetCICtrTimebaseDigFltrTimebaseRate@8
    9E01A _DAQmxGetCICtrTimebaseDigSyncEnable@12
    9E01A __imp__DAQmxGetCICtrTimebaseDigSyncEnable@12
    DD38E _DAQmxSetCICtrTimebaseDigSyncEnable@12
    DD38E __imp__DAQmxSetCICtrTimebaseDigSyncEnable@12
    C4DE6 _DAQmxResetCICtrTimebaseDigSyncEnable@8
    C4DE6 __imp__DAQmxResetCICtrTimebaseDigSyncEnable@8
    A3278 _DAQmxGetCIThreshVoltage@12
    A3278 __imp__DAQmxGetCIThreshVoltage@12
    E15A4 _DAQmxSetCIThreshVoltage@16
    E15A4 __imp__DAQmxSetCIThreshVoltage@16
    C9080 _DAQmxResetCIThreshVoltage@8
    C9080 __imp__DAQmxResetCIThreshVoltage@8
    9C33C _DAQmxGetCICount@12
    9C33C __imp__DAQmxGetCICount@12
    A0976 _DAQmxGetCIOutputState@12
    A0976 __imp__DAQmxGetCIOutputState@12
    A318C _DAQmxGetCITCReached@12
    A318C __imp__DAQmxGetCITCReached@12
    9E122 _DAQmxGetCICtrTimebaseMasterTimebaseDiv@12
    9E122 __imp__DAQmxGetCICtrTimebaseMasterTimebaseDiv@12
    DD410 _DAQmxSetCICtrTimebaseMasterTimebaseDiv@12
    DD410 __imp__DAQmxSetCICtrTimebaseMasterTimebaseDiv@12
    C4E6A _DAQmxResetCICtrTimebaseMasterTimebaseDiv@8
    C4E6A __imp__DAQmxResetCICtrTimebaseMasterTimebaseDiv@8
    A2A70 _DAQmxGetCISampClkOverrunBehavior@12
    A2A70 __imp__DAQmxGetCISampClkOverrunBehavior@12
    E0F94 _DAQmxSetCISampClkOverrunBehavior@12
    E0F94 __imp__DAQmxSetCISampClkOverrunBehavior@12
    C8A64 _DAQmxResetCISampClkOverrunBehavior@8
    C8A64 __imp__DAQmxResetCISampClkOverrunBehavior@8
    A2AF0 _DAQmxGetCISampClkOverrunSentinelVal@12
    A2AF0 __imp__DAQmxGetCISampClkOverrunSentinelVal@12
    E1014 _DAQmxSetCISampClkOverrunSentinelVal@12
    E1014 __imp__DAQmxSetCISampClkOverrunSentinelVal@12
    C8AE6 _DAQmxResetCISampClkOverrunSentinelVal@8
    C8AE6 __imp__DAQmxResetCISampClkOverrunSentinelVal@8
    9E314 _DAQmxGetCIDataXferMech@12
    9E314 __imp__DAQmxGetCIDataXferMech@12
    DD602 _DAQmxSetCIDataXferMech@12
    DD602 __imp__DAQmxSetCIDataXferMech@12
    C5060 _DAQmxResetCIDataXferMech@8
    C5060 __imp__DAQmxResetCIDataXferMech@8
    9E38A _DAQmxGetCIDataXferReqCond@12
    9E38A __imp__DAQmxGetCIDataXferReqCond@12
    DD678 _DAQmxSetCIDataXferReqCond@12
    DD678 __imp__DAQmxSetCIDataXferReqCond@12
    C50D8 _DAQmxResetCIDataXferReqCond@8
    C50D8 __imp__DAQmxResetCIDataXferReqCond@8
    A4082 _DAQmxGetCIUsbXferReqSize@12
    A4082 __imp__DAQmxGetCIUsbXferReqSize@12
    E2182 _DAQmxSetCIUsbXferReqSize@12
    E2182 __imp__DAQmxSetCIUsbXferReqSize@12
    C9C72 _DAQmxResetCIUsbXferReqSize@8
    C9C72 __imp__DAQmxResetCIUsbXferReqSize@8
    A4008 _DAQmxGetCIUsbXferReqCount@12
    A4008 __imp__DAQmxGetCIUsbXferReqCount@12
    E2108 _DAQmxSetCIUsbXferReqCount@12
    E2108 __imp__DAQmxSetCIUsbXferReqCount@12
    C9BF8 _DAQmxResetCIUsbXferReqCount@8
    C9BF8 __imp__DAQmxResetCIUsbXferReqCount@8
    A0796 _DAQmxGetCIMemMapEnable@12
    A0796 __imp__DAQmxGetCIMemMapEnable@12
    DF3DC _DAQmxSetCIMemMapEnable@12
    DF3DC __imp__DAQmxSetCIMemMapEnable@12
    C6E72 _DAQmxResetCIMemMapEnable@8
    C6E72 __imp__DAQmxResetCIMemMapEnable@8
    A08F4 _DAQmxGetCINumPossiblyInvalidSamps@12
    A08F4 __imp__DAQmxGetCINumPossiblyInvalidSamps@12
    9E404 _DAQmxGetCIDupCountPrevent@12
    9E404 __imp__DAQmxGetCIDupCountPrevent@12
    DD6F2 _DAQmxSetCIDupCountPrevent@12
    DD6F2 __imp__DAQmxSetCIDupCountPrevent@12
    C5152 _DAQmxResetCIDupCountPrevent@8
    C5152 __imp__DAQmxResetCIDupCountPrevent@8
    A123C _DAQmxGetCIPrescaler@12
    A123C __imp__DAQmxGetCIPrescaler@12
    DFB88 _DAQmxSetCIPrescaler@12
    DFB88 __imp__DAQmxSetCIPrescaler@12
    C762E _DAQmxResetCIPrescaler@8
    C762E __imp__DAQmxResetCIPrescaler@8
    A06AC _DAQmxGetCIMaxMeasPeriod@12
    A06AC __imp__DAQmxGetCIMaxMeasPeriod@12
    DF364 _DAQmxSetCIMaxMeasPeriod@16
    DF364 __imp__DAQmxSetCIMaxMeasPeriod@16
    C6DFA _DAQmxResetCIMaxMeasPeriod@8
    C6DFA __imp__DAQmxResetCIMaxMeasPeriod@8
    A57CE _DAQmxGetCOOutputType@12
    A57CE __imp__DAQmxGetCOOutputType@12
    A5C74 _DAQmxGetCOPulseIdleState@12
    A5C74 __imp__DAQmxGetCOPulseIdleState@12
    E37FC _DAQmxSetCOPulseIdleState@12
    E37FC __imp__DAQmxSetCOPulseIdleState@12
    CB316 _DAQmxResetCOPulseIdleState@8
    CB316 __imp__DAQmxResetCOPulseIdleState@8
    A5DDA _DAQmxGetCOPulseTerm@16
    A5DDA __imp__DAQmxGetCOPulseTerm@16
    E3962 _DAQmxSetCOPulseTerm@12
    E3962 __imp__DAQmxSetCOPulseTerm@12
    CB480 _DAQmxResetCOPulseTerm@8
    CB480 __imp__DAQmxResetCOPulseTerm@8
    A5F4E _DAQmxGetCOPulseTimeUnits@12
    A5F4E __imp__DAQmxGetCOPulseTimeUnits@12
    E3AD6 _DAQmxSetCOPulseTimeUnits@12
    E3AD6 __imp__DAQmxSetCOPulseTimeUnits@12
    CB5F6 _DAQmxResetCOPulseTimeUnits@8
    CB5F6 __imp__DAQmxResetCOPulseTimeUnits@8
    A5BFC _DAQmxGetCOPulseHighTime@12
    A5BFC __imp__DAQmxGetCOPulseHighTime@12
    E3784 _DAQmxSetCOPulseHighTime@16
    E3784 __imp__DAQmxSetCOPulseHighTime@16
    CB29E _DAQmxResetCOPulseHighTime@8
    CB29E __imp__DAQmxResetCOPulseHighTime@8
    A5D64 _DAQmxGetCOPulseLowTime@12
    A5D64 __imp__DAQmxGetCOPulseLowTime@12
    E38EC _DAQmxSetCOPulseLowTime@16
    E38EC __imp__DAQmxSetCOPulseLowTime@16
    CB408 _DAQmxResetCOPulseLowTime@8
    CB408 __imp__DAQmxResetCOPulseLowTime@8
    A5ECE _DAQmxGetCOPulseTimeInitialDelay@12
    A5ECE __imp__DAQmxGetCOPulseTimeInitialDelay@12
    E3A56 _DAQmxSetCOPulseTimeInitialDelay@16
    E3A56 __imp__DAQmxSetCOPulseTimeInitialDelay@16
    CB576 _DAQmxResetCOPulseTimeInitialDelay@8
    CB576 __imp__DAQmxResetCOPulseTimeInitialDelay@8
    A59A2 _DAQmxGetCOPulseDutyCyc@12
    A59A2 __imp__DAQmxGetCOPulseDutyCyc@12
    E352A _DAQmxSetCOPulseDutyCyc@16
    E352A __imp__DAQmxSetCOPulseDutyCyc@16
    CB03E _DAQmxResetCOPulseDutyCyc@8
    CB03E __imp__DAQmxResetCOPulseDutyCyc@8
    A5B0C _DAQmxGetCOPulseFreqUnits@12
    A5B0C __imp__DAQmxGetCOPulseFreqUnits@12
    E3694 _DAQmxSetCOPulseFreqUnits@12
    E3694 __imp__DAQmxSetCOPulseFreqUnits@12
    CB1AA _DAQmxResetCOPulseFreqUnits@8
    CB1AA __imp__DAQmxResetCOPulseFreqUnits@8
    A5A18 _DAQmxGetCOPulseFreq@12
    A5A18 __imp__DAQmxGetCOPulseFreq@12
    E35A0 _DAQmxSetCOPulseFreq@16
    E35A0 __imp__DAQmxSetCOPulseFreq@16
    CB0B6 _DAQmxResetCOPulseFreq@8
    CB0B6 __imp__DAQmxResetCOPulseFreq@8
    A5A8C _DAQmxGetCOPulseFreqInitialDelay@12
    A5A8C __imp__DAQmxGetCOPulseFreqInitialDelay@12
    E3614 _DAQmxSetCOPulseFreqInitialDelay@16
    E3614 __imp__DAQmxSetCOPulseFreqInitialDelay@16
    CB12A _DAQmxResetCOPulseFreqInitialDelay@8
    CB12A __imp__DAQmxResetCOPulseFreqInitialDelay@8
    A5B84 _DAQmxGetCOPulseHighTicks@12
    A5B84 __imp__DAQmxGetCOPulseHighTicks@12
    E370C _DAQmxSetCOPulseHighTicks@12
    E370C __imp__DAQmxSetCOPulseHighTicks@12
    CB224 _DAQmxResetCOPulseHighTicks@8
    CB224 __imp__DAQmxResetCOPulseHighTicks@8
    A5CEC _DAQmxGetCOPulseLowTicks@12
    A5CEC __imp__DAQmxGetCOPulseLowTicks@12
    E3874 _DAQmxSetCOPulseLowTicks@12
    E3874 __imp__DAQmxSetCOPulseLowTicks@12
    CB390 _DAQmxResetCOPulseLowTicks@8
    CB390 __imp__DAQmxResetCOPulseLowTicks@8
    A5E4E _DAQmxGetCOPulseTicksInitialDelay@12
    A5E4E __imp__DAQmxGetCOPulseTicksInitialDelay@12
    E39D6 _DAQmxSetCOPulseTicksInitialDelay@12
    E39D6 __imp__DAQmxSetCOPulseTicksInitialDelay@12
    CB4F4 _DAQmxResetCOPulseTicksInitialDelay@8
    CB4F4 __imp__DAQmxResetCOPulseTicksInitialDelay@8
    A53EC _DAQmxGetCOCtrTimebaseSrc@16
    A53EC __imp__DAQmxGetCOCtrTimebaseSrc@16
    E3250 _DAQmxSetCOCtrTimebaseSrc@12
    E3250 __imp__DAQmxSetCOCtrTimebaseSrc@12
    CAD5E _DAQmxResetCOCtrTimebaseSrc@8
    CAD5E __imp__DAQmxResetCOCtrTimebaseSrc@8
    A5372 _DAQmxGetCOCtrTimebaseRate@12
    A5372 __imp__DAQmxGetCOCtrTimebaseRate@12
    E31D6 _DAQmxSetCOCtrTimebaseRate@16
    E31D6 __imp__DAQmxSetCOCtrTimebaseRate@16
    CACE4 _DAQmxResetCOCtrTimebaseRate@8
    CACE4 __imp__DAQmxResetCOCtrTimebaseRate@8
    A4EC2 _DAQmxGetCOCtrTimebaseActiveEdge@12
    A4EC2 __imp__DAQmxGetCOCtrTimebaseActiveEdge@12
    E2E32 _DAQmxSetCOCtrTimebaseActiveEdge@12
    E2E32 __imp__DAQmxSetCOCtrTimebaseActiveEdge@12
    CA938 _DAQmxResetCOCtrTimebaseActiveEdge@8
    CA938 __imp__DAQmxResetCOCtrTimebaseActiveEdge@8
    A4F42 _DAQmxGetCOCtrTimebaseDigFltrEnable@12
    A4F42 __imp__DAQmxGetCOCtrTimebaseDigFltrEnable@12
    E2EB2 _DAQmxSetCOCtrTimebaseDigFltrEnable@12
    E2EB2 __imp__DAQmxSetCOCtrTimebaseDigFltrEnable@12
    CA9B8 _DAQmxResetCOCtrTimebaseDigFltrEnable@8
    CA9B8 __imp__DAQmxResetCOCtrTimebaseDigFltrEnable@8
    A504A _DAQmxGetCOCtrTimebaseDigFltrMinPulseWidth@12
    A504A __imp__DAQmxGetCOCtrTimebaseDigFltrMinPulseWidth@12
    E2F34 _DAQmxSetCOCtrTimebaseDigFltrMinPulseWidth@16
    E2F34 __imp__DAQmxSetCOCtrTimebaseDigFltrMinPulseWidth@16
    CAA3C _DAQmxResetCOCtrTimebaseDigFltrMinPulseWidth@8
    CAA3C __imp__DAQmxResetCOCtrTimebaseDigFltrMinPulseWidth@8
    A515C _DAQmxGetCOCtrTimebaseDigFltrTimebaseSrc@16
    A515C __imp__DAQmxGetCOCtrTimebaseDigFltrTimebaseSrc@16
    E3046 _DAQmxSetCOCtrTimebaseDigFltrTimebaseSrc@12
    E3046 __imp__DAQmxSetCOCtrTimebaseDigFltrTimebaseSrc@12
    CAB50 _DAQmxResetCOCtrTimebaseDigFltrTimebaseSrc@8
    CAB50 __imp__DAQmxResetCOCtrTimebaseDigFltrTimebaseSrc@8
    A50D4 _DAQmxGetCOCtrTimebaseDigFltrTimebaseRate@12
    A50D4 __imp__DAQmxGetCOCtrTimebaseDigFltrTimebaseRate@12
    E2FBE _DAQmxSetCOCtrTimebaseDigFltrTimebaseRate@16
    E2FBE __imp__DAQmxSetCOCtrTimebaseDigFltrTimebaseRate@16
    CAAC6 _DAQmxResetCOCtrTimebaseDigFltrTimebaseRate@8
    CAAC6 __imp__DAQmxResetCOCtrTimebaseDigFltrTimebaseRate@8
    A51E4 _DAQmxGetCOCtrTimebaseDigSyncEnable@12
    A51E4 __imp__DAQmxGetCOCtrTimebaseDigSyncEnable@12
    E30CE _DAQmxSetCOCtrTimebaseDigSyncEnable@12
    E30CE __imp__DAQmxSetCOCtrTimebaseDigSyncEnable@12
    CABD8 _DAQmxResetCOCtrTimebaseDigSyncEnable@8
    CABD8 __imp__DAQmxResetCOCtrTimebaseDigSyncEnable@8
    A4E52 _DAQmxGetCOCount@12
    A4E52 __imp__DAQmxGetCOCount@12
    A5758 _DAQmxGetCOOutputState@12
    A5758 __imp__DAQmxGetCOOutputState@12
    A4D60 _DAQmxGetCOAutoIncrCnt@12
    A4D60 __imp__DAQmxGetCOAutoIncrCnt@12
    E2D40 _DAQmxSetCOAutoIncrCnt@12
    E2D40 __imp__DAQmxSetCOAutoIncrCnt@12
    CA844 _DAQmxResetCOAutoIncrCnt@8
    CA844 __imp__DAQmxResetCOAutoIncrCnt@8
    A52EC _DAQmxGetCOCtrTimebaseMasterTimebaseDiv@12
    A52EC __imp__DAQmxGetCOCtrTimebaseMasterTimebaseDiv@12
    E3150 _DAQmxSetCOCtrTimebaseMasterTimebaseDiv@12
    E3150 __imp__DAQmxSetCOCtrTimebaseMasterTimebaseDiv@12
    CAC5C _DAQmxResetCOCtrTimebaseMasterTimebaseDiv@8
    CAC5C __imp__DAQmxResetCOCtrTimebaseMasterTimebaseDiv@8
    A58B6 _DAQmxGetCOPulseDone@12
    A58B6 __imp__DAQmxGetCOPulseDone@12
    A5554 _DAQmxGetCOEnableInitialDelayOnRetrigger@12
    A5554 __imp__DAQmxGetCOEnableInitialDelayOnRetrigger@12
    E33B8 _DAQmxSetCOEnableInitialDelayOnRetrigger@12
    E33B8 __imp__DAQmxSetCOEnableInitialDelayOnRetrigger@12
    CAECA _DAQmxResetCOEnableInitialDelayOnRetrigger@8
    CAECA __imp__DAQmxResetCOEnableInitialDelayOnRetrigger@8
    A4DD6 _DAQmxGetCOConstrainedGenMode@12
    A4DD6 __imp__DAQmxGetCOConstrainedGenMode@12
    E2DB6 _DAQmxSetCOConstrainedGenMode@12
    E2DB6 __imp__DAQmxSetCOConstrainedGenMode@12
    CA8BA _DAQmxResetCOConstrainedGenMode@8
    CA8BA __imp__DAQmxResetCOConstrainedGenMode@8
    A61A8 _DAQmxGetCOUseOnlyOnBrdMem@12
    A61A8 __imp__DAQmxGetCOUseOnlyOnBrdMem@12
    E3C40 _DAQmxSetCOUseOnlyOnBrdMem@12
    E3C40 __imp__DAQmxSetCOUseOnlyOnBrdMem@12
    CB764 _DAQmxResetCOUseOnlyOnBrdMem@8
    CB764 __imp__DAQmxResetCOUseOnlyOnBrdMem@8
    A5464 _DAQmxGetCODataXferMech@12
    A5464 __imp__DAQmxGetCODataXferMech@12
    E32C8 _DAQmxSetCODataXferMech@12
    E32C8 __imp__DAQmxSetCODataXferMech@12
    CADD8 _DAQmxResetCODataXferMech@8
    CADD8 __imp__DAQmxResetCODataXferMech@8
    A54DA _DAQmxGetCODataXferReqCond@12
    A54DA __imp__DAQmxGetCODataXferReqCond@12
    E333E _DAQmxSetCODataXferReqCond@12
    E333E __imp__DAQmxSetCODataXferReqCond@12
    CAE50 _DAQmxResetCODataXferReqCond@8
    CAE50 __imp__DAQmxResetCODataXferReqCond@8
    A6130 _DAQmxGetCOUsbXferReqSize@12
    A6130 __imp__DAQmxGetCOUsbXferReqSize@12
    E3BC8 _DAQmxSetCOUsbXferReqSize@12
    E3BC8 __imp__DAQmxSetCOUsbXferReqSize@12
    CB6EA _DAQmxResetCOUsbXferReqSize@8
    CB6EA __imp__DAQmxResetCOUsbXferReqSize@8
    A60B6 _DAQmxGetCOUsbXferReqCount@12
    A60B6 __imp__DAQmxGetCOUsbXferReqCount@12
    E3B4E _DAQmxSetCOUsbXferReqCount@12
    E3B4E __imp__DAQmxSetCOUsbXferReqCount@12
    CB670 _DAQmxResetCOUsbXferReqCount@8
    CB670 __imp__DAQmxResetCOUsbXferReqCount@8
    A5668 _DAQmxGetCOMemMapEnable@12
    A5668 __imp__DAQmxGetCOMemMapEnable@12
    E3440 _DAQmxSetCOMemMapEnable@12
    E3440 __imp__DAQmxSetCOMemMapEnable@12
    CAF52 _DAQmxResetCOMemMapEnable@8
    CAF52 __imp__DAQmxResetCOMemMapEnable@8
    A5842 _DAQmxGetCOPrescaler@12
    A5842 __imp__DAQmxGetCOPrescaler@12
    E34B6 _DAQmxSetCOPrescaler@12
    E34B6 __imp__DAQmxSetCOPrescaler@12
    CAFCA _DAQmxResetCOPrescaler@8
    CAFCA __imp__DAQmxResetCOPrescaler@8
    A5FC6 _DAQmxGetCORdyForNewVal@12
    A5FC6 __imp__DAQmxGetCORdyForNewVal@12
    A67D2 _DAQmxGetChanType@12
    A67D2 __imp__DAQmxGetChanType@12
    B0A5E _DAQmxGetPhysicalChanName@16
    B0A5E __imp__DAQmxGetPhysicalChanName@16
    E8ED0 _DAQmxSetPhysicalChanName@12
    E8ED0 __imp__DAQmxSetPhysicalChanName@12
    A6674 _DAQmxGetChanDescr@16
    A6674 __imp__DAQmxGetChanDescr@16
    E3E98 _DAQmxSetChanDescr@12
    E3E98 __imp__DAQmxSetChanDescr@12
    CB856 _DAQmxResetChanDescr@8
    CB856 __imp__DAQmxResetChanDescr@8
    A66E6 _DAQmxGetChanIsGlobal@12
    A66E6 __imp__DAQmxGetChanIsGlobal@12
    AC9AC _DAQmxGetExportedAIConvClkOutputTerm@12
    AC9AC __imp__DAQmxGetExportedAIConvClkOutputTerm@12
    E6ACE _DAQmxSetExportedAIConvClkOutputTerm@8
    E6ACE __imp__DAQmxSetExportedAIConvClkOutputTerm@8
    CE2EE _DAQmxResetExportedAIConvClkOutputTerm@4
    CE2EE __imp__DAQmxResetExportedAIConvClkOutputTerm@4
    ACA30 _DAQmxGetExportedAIConvClkPulsePolarity@8
    ACA30 __imp__DAQmxGetExportedAIConvClkPulsePolarity@8
    AC89E _DAQmxGetExported10MHzRefClkOutputTerm@12
    AC89E __imp__DAQmxGetExported10MHzRefClkOutputTerm@12
    E69C4 _DAQmxSetExported10MHzRefClkOutputTerm@8
    E69C4 __imp__DAQmxSetExported10MHzRefClkOutputTerm@8
    CE1E0 _DAQmxResetExported10MHzRefClkOutputTerm@4
    CE1E0 __imp__DAQmxResetExported10MHzRefClkOutputTerm@4
    AC924 _DAQmxGetExported20MHzTimebaseOutputTerm@12
    AC924 __imp__DAQmxGetExported20MHzTimebaseOutputTerm@12
    E6A48 _DAQmxSetExported20MHzTimebaseOutputTerm@8
    E6A48 __imp__DAQmxSetExported20MHzTimebaseOutputTerm@8
    CE266 _DAQmxResetExported20MHzTimebaseOutputTerm@4
    CE266 __imp__DAQmxResetExported20MHzTimebaseOutputTerm@4
    ADF80 _DAQmxGetExportedSampClkOutputBehavior@8
    ADF80 __imp__DAQmxGetExportedSampClkOutputBehavior@8
    E7EF8 _DAQmxSetExportedSampClkOutputBehavior@8
    E7EF8 __imp__DAQmxSetExportedSampClkOutputBehavior@8
    CF75C _DAQmxResetExportedSampClkOutputBehavior@4
    CF75C __imp__DAQmxResetExportedSampClkOutputBehavior@4
    AE004 _DAQmxGetExportedSampClkOutputTerm@12
    AE004 __imp__DAQmxGetExportedSampClkOutputTerm@12
    E7F7C _DAQmxSetExportedSampClkOutputTerm@8
    E7F7C __imp__DAQmxSetExportedSampClkOutputTerm@8
    CF7E2 _DAQmxResetExportedSampClkOutputTerm@4
    CF7E2 __imp__DAQmxResetExportedSampClkOutputTerm@4
    ADEFE _DAQmxGetExportedSampClkDelayOffset@8
    ADEFE __imp__DAQmxGetExportedSampClkDelayOffset@8
    E7E76 _DAQmxSetExportedSampClkDelayOffset@12
    E7E76 __imp__DAQmxSetExportedSampClkDelayOffset@12
    CF6D8 _DAQmxResetExportedSampClkDelayOffset@4
    CF6D8 __imp__DAQmxResetExportedSampClkDelayOffset@4
    AE086 _DAQmxGetExportedSampClkPulsePolarity@8
    AE086 __imp__DAQmxGetExportedSampClkPulsePolarity@8
    E7FFC _DAQmxSetExportedSampClkPulsePolarity@8
    E7FFC __imp__DAQmxSetExportedSampClkPulsePolarity@8
    CF864 _DAQmxResetExportedSampClkPulsePolarity@4
    CF864 __imp__DAQmxResetExportedSampClkPulsePolarity@4
    AE10A _DAQmxGetExportedSampClkTimebaseOutputTerm@12
    AE10A __imp__DAQmxGetExportedSampClkTimebaseOutputTerm@12
    E8080 _DAQmxSetExportedSampClkTimebaseOutputTerm@8
    E8080 __imp__DAQmxSetExportedSampClkTimebaseOutputTerm@8
    CF8EA _DAQmxResetExportedSampClkTimebaseOutputTerm@4
    CF8EA __imp__DAQmxResetExportedSampClkTimebaseOutputTerm@4
    AD440 _DAQmxGetExportedDividedSampClkTimebaseOutputTerm@12
    AD440 __imp__DAQmxGetExportedDividedSampClkTimebaseOutputTerm@12
    E7450 _DAQmxSetExportedDividedSampClkTimebaseOutputTerm@8
    E7450 __imp__DAQmxSetExportedDividedSampClkTimebaseOutputTerm@8
    CEC90 _DAQmxResetExportedDividedSampClkTimebaseOutputTerm@4
    CEC90 __imp__DAQmxResetExportedDividedSampClkTimebaseOutputTerm@4
    ACDE6 _DAQmxGetExportedAdvTrigOutputTerm@12
    ACDE6 __imp__DAQmxGetExportedAdvTrigOutputTerm@12
    E6E80 _DAQmxSetExportedAdvTrigOutputTerm@8
    E6E80 __imp__DAQmxSetExportedAdvTrigOutputTerm@8
    CE6AC _DAQmxResetExportedAdvTrigOutputTerm@4
    CE6AC __imp__DAQmxResetExportedAdvTrigOutputTerm@4
    ACE68 _DAQmxGetExportedAdvTrigPulsePolarity@8
    ACE68 __imp__DAQmxGetExportedAdvTrigPulsePolarity@8
    ACF6C _DAQmxGetExportedAdvTrigPulseWidthUnits@8
    ACF6C __imp__DAQmxGetExportedAdvTrigPulseWidthUnits@8
    E6F82 _DAQmxSetExportedAdvTrigPulseWidthUnits@8
    E6F82 __imp__DAQmxSetExportedAdvTrigPulseWidthUnits@8
    CE7B0 _DAQmxResetExportedAdvTrigPulseWidthUnits@4
    CE7B0 __imp__DAQmxResetExportedAdvTrigPulseWidthUnits@4
    ACEEC _DAQmxGetExportedAdvTrigPulseWidth@8
    ACEEC __imp__DAQmxGetExportedAdvTrigPulseWidth@8
    E6F00 _DAQmxSetExportedAdvTrigPulseWidth@12
    E6F00 __imp__DAQmxSetExportedAdvTrigPulseWidth@12
    CE72E _DAQmxResetExportedAdvTrigPulseWidth@4
    CE72E __imp__DAQmxResetExportedAdvTrigPulseWidth@4
    ADA26 _DAQmxGetExportedPauseTrigOutputTerm@12
    ADA26 __imp__DAQmxGetExportedPauseTrigOutputTerm@12
    E79A4 _DAQmxSetExportedPauseTrigOutputTerm@8
    E79A4 __imp__DAQmxSetExportedPauseTrigOutputTerm@8
    CF1F4 _DAQmxResetExportedPauseTrigOutputTerm@4
    CF1F4 __imp__DAQmxResetExportedPauseTrigOutputTerm@4
    AD9A2 _DAQmxGetExportedPauseTrigLvlActiveLvl@8
    AD9A2 __imp__DAQmxGetExportedPauseTrigLvlActiveLvl@8
    E7920 _DAQmxSetExportedPauseTrigLvlActiveLvl@8
    E7920 __imp__DAQmxSetExportedPauseTrigLvlActiveLvl@8
    CF16E _DAQmxResetExportedPauseTrigLvlActiveLvl@4
    CF16E __imp__DAQmxResetExportedPauseTrigLvlActiveLvl@4
    ADDF8 _DAQmxGetExportedRefTrigOutputTerm@12
    ADDF8 __imp__DAQmxGetExportedRefTrigOutputTerm@12
    E7D72 _DAQmxSetExportedRefTrigOutputTerm@8
    E7D72 __imp__DAQmxSetExportedRefTrigOutputTerm@8
    CF5D0 _DAQmxResetExportedRefTrigOutputTerm@4
    CF5D0 __imp__DAQmxResetExportedRefTrigOutputTerm@4
    ADE7A _DAQmxGetExportedRefTrigPulsePolarity@8
    ADE7A __imp__DAQmxGetExportedRefTrigPulsePolarity@8
    E7DF2 _DAQmxSetExportedRefTrigPulsePolarity@8
    E7DF2 __imp__DAQmxSetExportedRefTrigPulsePolarity@8
    CF652 _DAQmxResetExportedRefTrigPulsePolarity@4
    CF652 __imp__DAQmxResetExportedRefTrigPulsePolarity@4
    AE210 _DAQmxGetExportedStartTrigOutputTerm@12
    AE210 __imp__DAQmxGetExportedStartTrigOutputTerm@12
    E8184 _DAQmxSetExportedStartTrigOutputTerm@8
    E8184 __imp__DAQmxSetExportedStartTrigOutputTerm@8
    CF9F4 _DAQmxResetExportedStartTrigOutputTerm@4
    CF9F4 __imp__DAQmxResetExportedStartTrigOutputTerm@4
    AE294 _DAQmxGetExportedStartTrigPulsePolarity@8
    AE294 __imp__DAQmxGetExportedStartTrigPulsePolarity@8
    E8206 _DAQmxSetExportedStartTrigPulsePolarity@8
    E8206 __imp__DAQmxSetExportedStartTrigPulsePolarity@8
    CFA78 _DAQmxResetExportedStartTrigPulsePolarity@4
    CFA78 __imp__DAQmxResetExportedStartTrigPulsePolarity@4
    ACC4E _DAQmxGetExportedAdvCmpltEventOutputTerm@12
    ACC4E __imp__DAQmxGetExportedAdvCmpltEventOutputTerm@12
    E6CE8 _DAQmxSetExportedAdvCmpltEventOutputTerm@8
    E6CE8 __imp__DAQmxSetExportedAdvCmpltEventOutputTerm@8
    CE510 _DAQmxResetExportedAdvCmpltEventOutputTerm@4
    CE510 __imp__DAQmxResetExportedAdvCmpltEventOutputTerm@4
    ACBCC _DAQmxGetExportedAdvCmpltEventDelay@8
    ACBCC __imp__DAQmxGetExportedAdvCmpltEventDelay@8
    E6C66 _DAQmxSetExportedAdvCmpltEventDelay@12
    E6C66 __imp__DAQmxSetExportedAdvCmpltEventDelay@12
    CE48C _DAQmxResetExportedAdvCmpltEventDelay@4
    CE48C __imp__DAQmxResetExportedAdvCmpltEventDelay@4
    ACCD6 _DAQmxGetExportedAdvCmpltEventPulsePolarity@8
    ACCD6 __imp__DAQmxGetExportedAdvCmpltEventPulsePolarity@8
    E6D6E _DAQmxSetExportedAdvCmpltEventPulsePolarity@8
    E6D6E __imp__DAQmxSetExportedAdvCmpltEventPulsePolarity@8
    CE598 _DAQmxResetExportedAdvCmpltEventPulsePolarity@4
    CE598 __imp__DAQmxResetExportedAdvCmpltEventPulsePolarity@4
    ACD60 _DAQmxGetExportedAdvCmpltEventPulseWidth@8
    ACD60 __imp__DAQmxGetExportedAdvCmpltEventPulseWidth@8
    E6DF8 _DAQmxSetExportedAdvCmpltEventPulseWidth@12
    E6DF8 __imp__DAQmxSetExportedAdvCmpltEventPulseWidth@12
    CE624 _DAQmxResetExportedAdvCmpltEventPulseWidth@4
    CE624 __imp__DAQmxResetExportedAdvCmpltEventPulseWidth@4
    ACAB6 _DAQmxGetExportedAIHoldCmpltEventOutputTerm@12
    ACAB6 __imp__DAQmxGetExportedAIHoldCmpltEventOutputTerm@12
    E6B50 _DAQmxSetExportedAIHoldCmpltEventOutputTerm@8
    E6B50 __imp__DAQmxSetExportedAIHoldCmpltEventOutputTerm@8
    CE372 _DAQmxResetExportedAIHoldCmpltEventOutputTerm@4
    CE372 __imp__DAQmxResetExportedAIHoldCmpltEventOutputTerm@4
    ACB40 _DAQmxGetExportedAIHoldCmpltEventPulsePolarity@8
    ACB40 __imp__DAQmxGetExportedAIHoldCmpltEventPulsePolarity@8
    E6BDA _DAQmxSetExportedAIHoldCmpltEventPulsePolarity@8
    E6BDA __imp__DAQmxSetExportedAIHoldCmpltEventPulsePolarity@8
    CE3FE _DAQmxResetExportedAIHoldCmpltEventPulsePolarity@4
    CE3FE __imp__DAQmxResetExportedAIHoldCmpltEventPulsePolarity@4
    ACFF2 _DAQmxGetExportedChangeDetectEventOutputTerm@12
    ACFF2 __imp__DAQmxGetExportedChangeDetectEventOutputTerm@12
    E7008 _DAQmxSetExportedChangeDetectEventOutputTerm@8
    E7008 __imp__DAQmxSetExportedChangeDetectEventOutputTerm@8
    CE838 _DAQmxResetExportedChangeDetectEventOutputTerm@4
    CE838 __imp__DAQmxResetExportedChangeDetectEventOutputTerm@4
    AD07E _DAQmxGetExportedChangeDetectEventPulsePolarity@8
    AD07E __imp__DAQmxGetExportedChangeDetectEventPulsePolarity@8
    E7092 _DAQmxSetExportedChangeDetectEventPulsePolarity@8
    E7092 __imp__DAQmxSetExportedChangeDetectEventPulsePolarity@8
    CE8C4 _DAQmxResetExportedChangeDetectEventPulsePolarity@4
    CE8C4 __imp__DAQmxResetExportedChangeDetectEventPulsePolarity@4
    AD194 _DAQmxGetExportedCtrOutEventOutputTerm@12
    AD194 __imp__DAQmxGetExportedCtrOutEventOutputTerm@12
    E71A8 _DAQmxSetExportedCtrOutEventOutputTerm@8
    E71A8 __imp__DAQmxSetExportedCtrOutEventOutputTerm@8
    CE9DE _DAQmxResetExportedCtrOutEventOutputTerm@4
    CE9DE __imp__DAQmxResetExportedCtrOutEventOutputTerm@4
    AD10C _DAQmxGetExportedCtrOutEventOutputBehavior@8
    AD10C __imp__DAQmxGetExportedCtrOutEventOutputBehavior@8
    E7120 _DAQmxSetExportedCtrOutEventOutputBehavior@8
    E7120 __imp__DAQmxSetExportedCtrOutEventOutputBehavior@8
    CE954 _DAQmxResetExportedCtrOutEventOutputBehavior@4
    CE954 __imp__DAQmxResetExportedCtrOutEventOutputBehavior@4
    AD21A _DAQmxGetExportedCtrOutEventPulsePolarity@8
    AD21A __imp__DAQmxGetExportedCtrOutEventPulsePolarity@8
    E722C _DAQmxSetExportedCtrOutEventPulsePolarity@8
    E722C __imp__DAQmxSetExportedCtrOutEventPulsePolarity@8
    CEA64 _DAQmxResetExportedCtrOutEventPulsePolarity@4
    CEA64 __imp__DAQmxResetExportedCtrOutEventPulsePolarity@4
    AD2A2 _DAQmxGetExportedCtrOutEventToggleIdleState@8
    AD2A2 __imp__DAQmxGetExportedCtrOutEventToggleIdleState@8
    E72B4 _DAQmxSetExportedCtrOutEventToggleIdleState@8
    E72B4 __imp__DAQmxSetExportedCtrOutEventToggleIdleState@8
    CEAEE _DAQmxResetExportedCtrOutEventToggleIdleState@4
    CEAEE __imp__DAQmxResetExportedCtrOutEventToggleIdleState@4
    AD816 _DAQmxGetExportedHshkEventOutputTerm@12
    AD816 __imp__DAQmxGetExportedHshkEventOutputTerm@12
    E7794 _DAQmxSetExportedHshkEventOutputTerm@8
    E7794 __imp__DAQmxSetExportedHshkEventOutputTerm@8
    CEFDE _DAQmxResetExportedHshkEventOutputTerm@4
    CEFDE __imp__DAQmxResetExportedHshkEventOutputTerm@4
    AD790 _DAQmxGetExportedHshkEventOutputBehavior@8
    AD790 __imp__DAQmxGetExportedHshkEventOutputBehavior@8
    E770E _DAQmxSetExportedHshkEventOutputBehavior@8
    E770E __imp__DAQmxSetExportedHshkEventOutputBehavior@8
    CEF56 _DAQmxResetExportedHshkEventOutputBehavior@4
    CEF56 __imp__DAQmxResetExportedHshkEventOutputBehavior@4
    AD4D0 _DAQmxGetExportedHshkEventDelay@8
    AD4D0 __imp__DAQmxGetExportedHshkEventDelay@8
    E74E0 _DAQmxSetExportedHshkEventDelay@12
    E74E0 __imp__DAQmxSetExportedHshkEventDelay@12
    CED22 _DAQmxResetExportedHshkEventDelay@4
    CED22 __imp__DAQmxResetExportedHshkEventDelay@4
    AD672 _DAQmxGetExportedHshkEventInterlockedAssertedLvl@8
    AD672 __imp__DAQmxGetExportedHshkEventInterlockedAssertedLvl@8
    E75EE _DAQmxSetExportedHshkEventInterlockedAssertedLvl@8
    E75EE __imp__DAQmxSetExportedHshkEventInterlockedAssertedLvl@8
    CEE34 _DAQmxResetExportedHshkEventInterlockedAssertedLvl@4
    CEE34 __imp__DAQmxResetExportedHshkEventInterlockedAssertedLvl@4
    AD54E _DAQmxGetExportedHshkEventInterlockedAssertOnStart@8
    AD54E __imp__DAQmxGetExportedHshkEventInterlockedAssertOnStart@8
    E755E _DAQmxSetExportedHshkEventInterlockedAssertOnStart@8
    E755E __imp__DAQmxSetExportedHshkEventInterlockedAssertOnStart@8
    CEDA2 _DAQmxResetExportedHshkEventInterlockedAssertOnStart@4
    CEDA2 __imp__DAQmxResetExportedHshkEventInterlockedAssertOnStart@4
    AD700 _DAQmxGetExportedHshkEventInterlockedDeassertDelay@8
    AD700 __imp__DAQmxGetExportedHshkEventInterlockedDeassertDelay@8
    E767C _DAQmxSetExportedHshkEventInterlockedDeassertDelay@12
    E767C __imp__DAQmxSetExportedHshkEventInterlockedDeassertDelay@12
    CEEC4 _DAQmxResetExportedHshkEventInterlockedDeassertDelay@4
    CEEC4 __imp__DAQmxResetExportedHshkEventInterlockedDeassertDelay@4
    AD89A _DAQmxGetExportedHshkEventPulsePolarity@8
    AD89A __imp__DAQmxGetExportedHshkEventPulsePolarity@8
    E7816 _DAQmxSetExportedHshkEventPulsePolarity@8
    E7816 __imp__DAQmxSetExportedHshkEventPulsePolarity@8
    CF062 _DAQmxResetExportedHshkEventPulsePolarity@4
    CF062 __imp__DAQmxResetExportedHshkEventPulsePolarity@4
    AD920 _DAQmxGetExportedHshkEventPulseWidth@8
    AD920 __imp__DAQmxGetExportedHshkEventPulseWidth@8
    E789C _DAQmxSetExportedHshkEventPulseWidth@12
    E789C __imp__DAQmxSetExportedHshkEventPulseWidth@12
    CF0EA _DAQmxResetExportedHshkEventPulseWidth@4
    CF0EA __imp__DAQmxResetExportedHshkEventPulseWidth@4
    ADD6E _DAQmxGetExportedRdyForXferEventOutputTerm@12
    ADD6E __imp__DAQmxGetExportedRdyForXferEventOutputTerm@12
    E7CEA _DAQmxSetExportedRdyForXferEventOutputTerm@8
    E7CEA __imp__DAQmxSetExportedRdyForXferEventOutputTerm@8
    CF546 _DAQmxResetExportedRdyForXferEventOutputTerm@4
    CF546 __imp__DAQmxResetExportedRdyForXferEventOutputTerm@4
    ADCE4 _DAQmxGetExportedRdyForXferEventLvlActiveLvl@8
    ADCE4 __imp__DAQmxGetExportedRdyForXferEventLvlActiveLvl@8
    E7C60 _DAQmxSetExportedRdyForXferEventLvlActiveLvl@8
    E7C60 __imp__DAQmxSetExportedRdyForXferEventLvlActiveLvl@8
    CF4BA _DAQmxResetExportedRdyForXferEventLvlActiveLvl@4
    CF4BA __imp__DAQmxResetExportedRdyForXferEventLvlActiveLvl@4
    ADBC0 _DAQmxGetExportedRdyForXferEventDeassertCond@8
    ADBC0 __imp__DAQmxGetExportedRdyForXferEventDeassertCond@8
    E7B3C _DAQmxSetExportedRdyForXferEventDeassertCond@8
    E7B3C __imp__DAQmxSetExportedRdyForXferEventDeassertCond@8
    CF392 _DAQmxResetExportedRdyForXferEventDeassertCond@4
    CF392 __imp__DAQmxResetExportedRdyForXferEventDeassertCond@4
    ADC4A _DAQmxGetExportedRdyForXferEventDeassertCondCustomThreshold@8
    ADC4A __imp__DAQmxGetExportedRdyForXferEventDeassertCondCustomThreshold@8
    E7BC6 _DAQmxSetExportedRdyForXferEventDeassertCondCustomThreshold@8
    E7BC6 __imp__DAQmxSetExportedRdyForXferEventDeassertCondCustomThreshold@8
    CF41E _DAQmxResetExportedRdyForXferEventDeassertCondCustomThreshold@4
    CF41E __imp__DAQmxResetExportedRdyForXferEventDeassertCondCustomThreshold@4
    AD3B6 _DAQmxGetExportedDataActiveEventOutputTerm@12
    AD3B6 __imp__DAQmxGetExportedDataActiveEventOutputTerm@12
    E73C8 _DAQmxSetExportedDataActiveEventOutputTerm@8
    E73C8 __imp__DAQmxSetExportedDataActiveEventOutputTerm@8
    CEC06 _DAQmxResetExportedDataActiveEventOutputTerm@4
    CEC06 __imp__DAQmxResetExportedDataActiveEventOutputTerm@4
    AD32C _DAQmxGetExportedDataActiveEventLvlActiveLvl@8
    AD32C __imp__DAQmxGetExportedDataActiveEventLvlActiveLvl@8
    E733E _DAQmxSetExportedDataActiveEventLvlActiveLvl@8
    E733E __imp__DAQmxSetExportedDataActiveEventLvlActiveLvl@8
    CEB7A _DAQmxResetExportedDataActiveEventLvlActiveLvl@4
    CEB7A __imp__DAQmxResetExportedDataActiveEventLvlActiveLvl@4
    ADB36 _DAQmxGetExportedRdyForStartEventOutputTerm@12
    ADB36 __imp__DAQmxGetExportedRdyForStartEventOutputTerm@12
    E7AB2 _DAQmxSetExportedRdyForStartEventOutputTerm@8
    E7AB2 __imp__DAQmxSetExportedRdyForStartEventOutputTerm@8
    CF306 _DAQmxResetExportedRdyForStartEventOutputTerm@4
    CF306 __imp__DAQmxResetExportedRdyForStartEventOutputTerm@4
    ADAAA _DAQmxGetExportedRdyForStartEventLvlActiveLvl@8
    ADAAA __imp__DAQmxGetExportedRdyForStartEventLvlActiveLvl@8
    E7A26 _DAQmxSetExportedRdyForStartEventLvlActiveLvl@8
    E7A26 __imp__DAQmxSetExportedRdyForStartEventLvlActiveLvl@8
    CF278 _DAQmxResetExportedRdyForStartEventLvlActiveLvl@4
    CF278 __imp__DAQmxResetExportedRdyForStartEventLvlActiveLvl@4
    AE31A _DAQmxGetExportedSyncPulseEventOutputTerm@12
    AE31A __imp__DAQmxGetExportedSyncPulseEventOutputTerm@12
    E828C _DAQmxSetExportedSyncPulseEventOutputTerm@8
    E828C __imp__DAQmxSetExportedSyncPulseEventOutputTerm@8
    CFB00 _DAQmxResetExportedSyncPulseEventOutputTerm@4
    CFB00 __imp__DAQmxResetExportedSyncPulseEventOutputTerm@4
    AE3A2 _DAQmxGetExportedWatchdogExpiredEventOutputTerm@12
    AE3A2 __imp__DAQmxGetExportedWatchdogExpiredEventOutputTerm@12
    E8314 _DAQmxSetExportedWatchdogExpiredEventOutputTerm@8
    E8314 __imp__DAQmxSetExportedWatchdogExpiredEventOutputTerm@8
    CFB8A _DAQmxResetExportedWatchdogExpiredEventOutputTerm@4
    CFB8A __imp__DAQmxResetExportedWatchdogExpiredEventOutputTerm@4
    AA302 _DAQmxGetDevIsSimulated@8
    AA302 __imp__DAQmxGetDevIsSimulated@8
    AA6C0 _DAQmxGetDevProductCategory@8
    AA6C0 __imp__DAQmxGetDevProductCategory@8
    AA7AE _DAQmxGetDevProductType@12
    AA7AE __imp__DAQmxGetDevProductType@12
    AA73A _DAQmxGetDevProductNum@8
    AA73A __imp__DAQmxGetDevProductNum@8
    AA824 _DAQmxGetDevSerialNum@8
    AA824 __imp__DAQmxGetDevSerialNum@8
    A92E4 _DAQmxGetDevAccessoryProductTypes@12
    A92E4 __imp__DAQmxGetDevAccessoryProductTypes@12
    A9264 _DAQmxGetDevAccessoryProductNums@12
    A9264 __imp__DAQmxGetDevAccessoryProductNums@12
    A9364 _DAQmxGetDevAccessorySerialNums@12
    A9364 __imp__DAQmxGetDevAccessorySerialNums@12
    A658A _DAQmxGetCarrierSerialNum@8
    A658A __imp__DAQmxGetCarrierSerialNum@8
    A9CEE _DAQmxGetDevChassisModuleDevNames@12
    A9CEE __imp__DAQmxGetDevChassisModuleDevNames@12
    A93E2 _DAQmxGetDevAnlgTrigSupported@8
    A93E2 __imp__DAQmxGetDevAnlgTrigSupported@8
    AA20A _DAQmxGetDevDigTrigSupported@8
    AA20A __imp__DAQmxGetDevDigTrigSupported@8
    A8836 _DAQmxGetDevAIPhysicalChans@12
    A8836 __imp__DAQmxGetDevAIPhysicalChans@12
    A8ABA _DAQmxGetDevAISupportedMeasTypes@12
    A8ABA __imp__DAQmxGetDevAISupportedMeasTypes@12
    A8744 _DAQmxGetDevAIMaxSingleChanRate@8
    A8744 __imp__DAQmxGetDevAIMaxSingleChanRate@8
    A86C8 _DAQmxGetDevAIMaxMultiChanRate@8
    A86C8 __imp__DAQmxGetDevAIMaxMultiChanRate@8
    A87C2 _DAQmxGetDevAIMinRate@8
    A87C2 __imp__DAQmxGetDevAIMinRate@8
    A89A2 _DAQmxGetDevAISimultaneousSamplingSupported@8
    A89A2 __imp__DAQmxGetDevAISimultaneousSamplingSupported@8
    A892C _DAQmxGetDevAISampModes@12
    A892C __imp__DAQmxGetDevAISampModes@12
    A8B3A _DAQmxGetDevAITrigUsage@8
    A8B3A __imp__DAQmxGetDevAITrigUsage@8
    A8CBE _DAQmxGetDevAIVoltageRngs@12
    A8CBE __imp__DAQmxGetDevAIVoltageRngs@12
    A8BB0 _DAQmxGetDevAIVoltageIntExcitDiscreteVals@12
    A8BB0 __imp__DAQmxGetDevAIVoltageIntExcitDiscreteVals@12
    A8C38 _DAQmxGetDevAIVoltageIntExcitRangeVals@12
    A8C38 __imp__DAQmxGetDevAIVoltageIntExcitRangeVals@12
    A8336 _DAQmxGetDevAICurrentRngs@12
    A8336 __imp__DAQmxGetDevAICurrentRngs@12
    A82AE _DAQmxGetDevAICurrentIntExcitDiscreteVals@12
    A82AE __imp__DAQmxGetDevAICurrentIntExcitDiscreteVals@12
    A81C0 _DAQmxGetDevAIBridgeRngs@12
    A81C0 __imp__DAQmxGetDevAIBridgeRngs@12
    A88B0 _DAQmxGetDevAIResistanceRngs@12
    A88B0 __imp__DAQmxGetDevAIResistanceRngs@12
    A84CE _DAQmxGetDevAIFreqRngs@12
    A84CE __imp__DAQmxGetDevAIFreqRngs@12
    A8544 _DAQmxGetDevAIGains@12
    A8544 __imp__DAQmxGetDevAIGains@12
    A8238 _DAQmxGetDevAICouplings@8
    A8238 __imp__DAQmxGetDevAICouplings@8
    A85B6 _DAQmxGetDevAILowpassCutoffFreqDiscreteVals@12
    A85B6 __imp__DAQmxGetDevAILowpassCutoffFreqDiscreteVals@12
    A8640 _DAQmxGetDevAILowpassCutoffFreqRangeVals@12
    A8640 __imp__DAQmxGetDevAILowpassCutoffFreqRangeVals@12
    9456C _DAQmxGetAIDigFltrTypes@12
    9456C __imp__DAQmxGetAIDigFltrTypes@12
    A83AE _DAQmxGetDevAIDigFltrLowpassCutoffFreqDiscreteVals@12
    A83AE __imp__DAQmxGetDevAIDigFltrLowpassCutoffFreqDiscreteVals@12
    A8440 _DAQmxGetDevAIDigFltrLowpassCutoffFreqRangeVals@12
    A8440 __imp__DAQmxGetDevAIDigFltrLowpassCutoffFreqRangeVals@12
    A8F08 _DAQmxGetDevAOPhysicalChans@12
    A8F08 __imp__DAQmxGetDevAOPhysicalChans@12
    A90F4 _DAQmxGetDevAOSupportedOutputTypes@12
    A90F4 __imp__DAQmxGetDevAOSupportedOutputTypes@12
    A8F82 _DAQmxGetDevAOSampClkSupported@8
    A8F82 __imp__DAQmxGetDevAOSampClkSupported@8
    A907E _DAQmxGetDevAOSampModes@12
    A907E __imp__DAQmxGetDevAOSampModes@12
    A8E20 _DAQmxGetDevAOMaxRate@8
    A8E20 __imp__DAQmxGetDevAOMaxRate@8
    A8E94 _DAQmxGetDevAOMinRate@8
    A8E94 __imp__DAQmxGetDevAOMinRate@8
    A9176 _DAQmxGetDevAOTrigUsage@8
    A9176 __imp__DAQmxGetDevAOTrigUsage@8
    A91EC _DAQmxGetDevAOVoltageRngs@12
    A91EC __imp__DAQmxGetDevAOVoltageRngs@12
    A8D36 _DAQmxGetDevAOCurrentRngs@12
    A8D36 __imp__DAQmxGetDevAOCurrentRngs@12
    A8DAE _DAQmxGetDevAOGains@12
    A8DAE __imp__DAQmxGetDevAOGains@12
    A9E6E _DAQmxGetDevDILines@12
    A9E6E __imp__DAQmxGetDevDILines@12
    A9F54 _DAQmxGetDevDIPorts@12
    A9F54 __imp__DAQmxGetDevDIPorts@12
    A9EE0 _DAQmxGetDevDIMaxRate@8
    A9EE0 __imp__DAQmxGetDevDIMaxRate@8
    A9FC6 _DAQmxGetDevDITrigUsage@8
    A9FC6 __imp__DAQmxGetDevDITrigUsage@8
    AA03C _DAQmxGetDevDOLines@12
    AA03C __imp__DAQmxGetDevDOLines@12
    AA122 _DAQmxGetDevDOPorts@12
    AA122 __imp__DAQmxGetDevDOPorts@12
    AA0AE _DAQmxGetDevDOMaxRate@8
    AA0AE __imp__DAQmxGetDevDOMaxRate@8
    AA194 _DAQmxGetDevDOTrigUsage@8
    AA194 __imp__DAQmxGetDevDOTrigUsage@8
    A963C _DAQmxGetDevCIPhysicalChans@12
    A963C __imp__DAQmxGetDevCIPhysicalChans@12
    A9828 _DAQmxGetDevCISupportedMeasTypes@12
    A9828 __imp__DAQmxGetDevCISupportedMeasTypes@12
    A98A8 _DAQmxGetDevCITrigUsage@8
    A98A8 __imp__DAQmxGetDevCITrigUsage@8
    A96B6 _DAQmxGetDevCISampClkSupported@8
    A96B6 __imp__DAQmxGetDevCISampClkSupported@8
    A97B2 _DAQmxGetDevCISampModes@12
    A97B2 __imp__DAQmxGetDevCISampModes@12
    A9550 _DAQmxGetDevCIMaxSize@8
    A9550 __imp__DAQmxGetDevCIMaxSize@8
    A95C4 _DAQmxGetDevCIMaxTimebase@8
    A95C4 __imp__DAQmxGetDevCIMaxTimebase@8
    A9A0A _DAQmxGetDevCOPhysicalChans@12
    A9A0A __imp__DAQmxGetDevCOPhysicalChans@12
    A9BF6 _DAQmxGetDevCOSupportedOutputTypes@12
    A9BF6 __imp__DAQmxGetDevCOSupportedOutputTypes@12
    A9A84 _DAQmxGetDevCOSampClkSupported@8
    A9A84 __imp__DAQmxGetDevCOSampClkSupported@8
    A9B80 _DAQmxGetDevCOSampModes@12
    A9B80 __imp__DAQmxGetDevCOSampModes@12
    A9C78 _DAQmxGetDevCOTrigUsage@8
    A9C78 __imp__DAQmxGetDevCOTrigUsage@8
    A991E _DAQmxGetDevCOMaxSize@8
    A991E __imp__DAQmxGetDevCOMaxSize@8
    A9992 _DAQmxGetDevCOMaxTimebase@8
    A9992 __imp__DAQmxGetDevCOMaxTimebase@8
    AAA04 _DAQmxGetDevTEDSHWTEDSSupported@8
    AAA04 __imp__DAQmxGetDevTEDSHWTEDSSupported@8
    AA476 _DAQmxGetDevNumDMAChans@8
    AA476 __imp__DAQmxGetDevNumDMAChans@8
    A94DE _DAQmxGetDevBusType@8
    A94DE __imp__DAQmxGetDevBusType@8
    AA4EC _DAQmxGetDevPCIBusNum@8
    AA4EC __imp__DAQmxGetDevPCIBusNum@8
    AA560 _DAQmxGetDevPCIDevNum@8
    AA560 __imp__DAQmxGetDevPCIDevNum@8
    AA5D4 _DAQmxGetDevPXIChassisNum@8
    AA5D4 __imp__DAQmxGetDevPXIChassisNum@8
    AA64C _DAQmxGetDevPXISlotNum@8
    AA64C __imp__DAQmxGetDevPXISlotNum@8
    A9D6E _DAQmxGetDevCompactDAQChassisDevName@12
    A9D6E __imp__DAQmxGetDevCompactDAQChassisDevName@12
    A9DF2 _DAQmxGetDevCompactDAQSlotNum@8
    A9DF2 __imp__DAQmxGetDevCompactDAQSlotNum@8
    AA912 _DAQmxGetDevTCPIPHostname@12
    AA912 __imp__DAQmxGetDevTCPIPHostname@12
    AA898 _DAQmxGetDevTCPIPEthernetIP@12
    AA898 __imp__DAQmxGetDevTCPIPEthernetIP@12
    AA98A _DAQmxGetDevTCPIPWirelessIP@12
    AA98A __imp__DAQmxGetDevTCPIPWirelessIP@12
    AAB04 _DAQmxGetDevTerminals@12
    AAB04 __imp__DAQmxGetDevTerminals@12
    B24DC _DAQmxGetReadRelativeTo@8
    B24DC __imp__DAQmxGetReadRelativeTo@8
    E920A _DAQmxSetReadRelativeTo@8
    E920A __imp__DAQmxSetReadRelativeTo@8
    D093A _DAQmxResetReadRelativeTo@4
    D093A __imp__DAQmxResetReadRelativeTo@4
    B1900 _DAQmxGetReadOffset@8
    B1900 __imp__DAQmxGetReadOffset@8
    E90A8 _DAQmxSetReadOffset@8
    E90A8 __imp__DAQmxSetReadOffset@8
    D07D2 _DAQmxResetReadOffset@4
    D07D2 __imp__DAQmxResetReadOffset@4
    B12F0 _DAQmxGetReadChannelsToRead@12
    B12F0 __imp__DAQmxGetReadChannelsToRead@12
    E902E _DAQmxSetReadChannelsToRead@8
    E902E __imp__DAQmxSetReadChannelsToRead@8
    D0756 _DAQmxResetReadChannelsToRead@4
    D0756 __imp__DAQmxResetReadChannelsToRead@4
    B23E0 _DAQmxGetReadReadAllAvailSamp@8
    B23E0 __imp__DAQmxGetReadReadAllAvailSamp@8
    E918E _DAQmxSetReadReadAllAvailSamp@8
    E918E __imp__DAQmxSetReadReadAllAvailSamp@8
    D08BC _DAQmxResetReadReadAllAvailSamp@4
    D08BC __imp__DAQmxResetReadReadAllAvailSamp@4
    B107C _DAQmxGetReadAutoStart@8
    B107C __imp__DAQmxGetReadAutoStart@8
    E8FBA _DAQmxSetReadAutoStart@8
    E8FBA __imp__DAQmxSetReadAutoStart@8
    D06E0 _DAQmxResetReadAutoStart@4
    D06E0 __imp__DAQmxResetReadAutoStart@4
    B1E68 _DAQmxGetReadOverWrite@8
    B1E68 __imp__DAQmxGetReadOverWrite@8
    E911A _DAQmxSetReadOverWrite@8
    E911A __imp__DAQmxSetReadOverWrite@8
    D0846 _DAQmxResetReadOverWrite@4
    D0846 __imp__DAQmxResetReadOverWrite@4
    AE980 _DAQmxGetLoggingFilePath@12
    AE980 __imp__DAQmxGetLoggingFilePath@12
    E8706 _DAQmxSetLoggingFilePath@8
    E8706 __imp__DAQmxSetLoggingFilePath@8
    CFF8C _DAQmxResetLoggingFilePath@4
    CFF8C __imp__DAQmxResetLoggingFilePath@4
    AEB80 _DAQmxGetLoggingMode@8
    AEB80 __imp__DAQmxGetLoggingMode@8
    E8904 _DAQmxSetLoggingMode@8
    E8904 __imp__DAQmxSetLoggingMode@8
    D0108 _DAQmxResetLoggingMode@4
    D0108 __imp__DAQmxResetLoggingMode@4
    AEDD6 _DAQmxGetLoggingTDMSGroupName@12
    AEDD6 __imp__DAQmxGetLoggingTDMSGroupName@12
    E8AE4 _DAQmxSetLoggingTDMSGroupName@8
    E8AE4 __imp__DAQmxSetLoggingTDMSGroupName@8
    D026E _DAQmxResetLoggingTDMSGroupName@4
    D026E __imp__DAQmxResetLoggingTDMSGroupName@4
    AEE52 _DAQmxGetLoggingTDMSOperation@8
    AEE52 __imp__DAQmxGetLoggingTDMSOperation@8
    E8B60 _DAQmxSetLoggingTDMSOperation@8
    E8B60 __imp__DAQmxSetLoggingTDMSOperation@8
    D02EC _DAQmxResetLoggingTDMSOperation@4
    D02EC __imp__DAQmxResetLoggingTDMSOperation@4
    AEBF2 _DAQmxGetLoggingPause@8
    AEBF2 __imp__DAQmxGetLoggingPause@8
    E8976 _DAQmxSetLoggingPause@8
    E8976 __imp__DAQmxSetLoggingPause@8
    D017C _DAQmxResetLoggingPause@4
    D017C __imp__DAQmxResetLoggingPause@4
    AECDE _DAQmxGetLoggingSampsPerFile@8
    AECDE __imp__DAQmxGetLoggingSampsPerFile@8
    E89EA _DAQmxSetLoggingSampsPerFile@12
    E89EA __imp__DAQmxSetLoggingSampsPerFile@12
    D01F2 _DAQmxResetLoggingSampsPerFile@4
    D01F2 __imp__DAQmxResetLoggingSampsPerFile@4
    AEB04 _DAQmxGetLoggingFileWriteSize@8
    AEB04 __imp__DAQmxGetLoggingFileWriteSize@8
    E8888 _DAQmxSetLoggingFileWriteSize@8
    E8888 __imp__DAQmxSetLoggingFileWriteSize@8
    D008A _DAQmxResetLoggingFileWriteSize@4
    D008A __imp__DAQmxResetLoggingFileWriteSize@4
    AE9F8 _DAQmxGetLoggingFilePreallocationSize@8
    AE9F8 __imp__DAQmxGetLoggingFilePreallocationSize@8
    E877C _DAQmxSetLoggingFilePreallocationSize@12
    E877C __imp__DAQmxSetLoggingFilePreallocationSize@12
    D0004 _DAQmxResetLoggingFilePreallocationSize@4
    D0004 __imp__DAQmxResetLoggingFilePreallocationSize@4
    B1508 _DAQmxGetReadCurrReadPos@8
    B1508 __imp__DAQmxGetReadCurrReadPos@8
    B1168 _DAQmxGetReadAvailSampPerChan@8
    B1168 __imp__DAQmxGetReadAvailSampPerChan@8
    B25C6 _DAQmxGetReadTotalSampPerChanAcquired@8
    B25C6 __imp__DAQmxGetReadTotalSampPerChanAcquired@8
    B13F0 _DAQmxGetReadCommonModeRangeErrorChansExist@8
    B13F0 __imp__DAQmxGetReadCommonModeRangeErrorChansExist@8
    B136A _DAQmxGetReadCommonModeRangeErrorChans@12
    B136A __imp__DAQmxGetReadCommonModeRangeErrorChans@12
    B1788 _DAQmxGetReadExcitFaultChansExist@8
    B1788 __imp__DAQmxGetReadExcitFaultChansExist@8
    B170C _DAQmxGetReadExcitFaultChans@12
    B170C __imp__DAQmxGetReadExcitFaultChans@12
    B1F58 _DAQmxGetReadOvercurrentChansExist@8
    B1F58 __imp__DAQmxGetReadOvercurrentChansExist@8
    B1EDC _DAQmxGetReadOvercurrentChans@12
    B1EDC __imp__DAQmxGetReadOvercurrentChans@12
    B225C _DAQmxGetReadOvertemperatureChansExist@8
    B225C __imp__DAQmxGetReadOvertemperatureChansExist@8
    B21DC _DAQmxGetReadOvertemperatureChans@12
    B21DC __imp__DAQmxGetReadOvertemperatureChans@12
    B1A64 _DAQmxGetReadOpenChansExist@8
    B1A64 __imp__DAQmxGetReadOpenChansExist@8
    B1972 _DAQmxGetReadOpenChans@12
    B1972 __imp__DAQmxGetReadOpenChans@12
    B19E8 _DAQmxGetReadOpenChansDetails@12
    B19E8 __imp__DAQmxGetReadOpenChansDetails@12
    B1BDC _DAQmxGetReadOpenCurrentLoopChansExist@8
    B1BDC __imp__DAQmxGetReadOpenCurrentLoopChansExist@8
    B1B5C _DAQmxGetReadOpenCurrentLoopChans@12
    B1B5C __imp__DAQmxGetReadOpenCurrentLoopChans@12
    B1D64 _DAQmxGetReadOpenThrmcplChansExist@8
    B1D64 __imp__DAQmxGetReadOpenThrmcplChansExist@8
    B1CE8 _DAQmxGetReadOpenThrmcplChans@12
    B1CE8 __imp__DAQmxGetReadOpenThrmcplChans@12
    B20D8 _DAQmxGetReadOverloadedChansExist@8
    B20D8 __imp__DAQmxGetReadOverloadedChansExist@8
    B205C _DAQmxGetReadOverloadedChans@12
    B205C __imp__DAQmxGetReadOverloadedChans@12
    B0EEA _DAQmxGetReadAccessoryInsertionOrRemovalDetected@8
    B0EEA __imp__DAQmxGetReadAccessoryInsertionOrRemovalDetected@8
    B15F8 _DAQmxGetReadDevsWithInsertedOrRemovedAccessories@12
    B15F8 __imp__DAQmxGetReadDevsWithInsertedOrRemovedAccessories@12
    B11E4 _DAQmxGetReadChangeDetectHasOverflowed@8
    B11E4 __imp__DAQmxGetReadChangeDetectHasOverflowed@8
    B2368 _DAQmxGetReadRawDataWidth@8
    B2368 __imp__DAQmxGetReadRawDataWidth@8
    B188C _DAQmxGetReadNumChans@8
    B188C __imp__DAQmxGetReadNumChans@8
    B1688 _DAQmxGetReadDigitalLinesBytesPerChan@8
    B1688 __imp__DAQmxGetReadDigitalLinesBytesPerChan@8
    B26D2 _DAQmxGetReadWaitMode@8
    B26D2 __imp__DAQmxGetReadWaitMode@8
    E92F6 _DAQmxSetReadWaitMode@8
    E92F6 __imp__DAQmxSetReadWaitMode@8
    D0A28 _DAQmxResetReadWaitMode@4
    D0A28 __imp__DAQmxResetReadWaitMode@4
    B2552 _DAQmxGetReadSleepTime@8
    B2552 __imp__DAQmxGetReadSleepTime@8
    E9280 _DAQmxSetReadSleepTime@12
    E9280 __imp__DAQmxSetReadSleepTime@12
    D09B2 _DAQmxResetReadSleepTime@4
    D09B2 __imp__DAQmxResetReadSleepTime@4
    B27BC _DAQmxGetRealTimeConvLateErrorsToWarnings@8
    B27BC __imp__DAQmxGetRealTimeConvLateErrorsToWarnings@8
    E93E0 _DAQmxSetRealTimeConvLateErrorsToWarnings@8
    E93E0 __imp__DAQmxSetRealTimeConvLateErrorsToWarnings@8
    D0B18 _DAQmxResetRealTimeConvLateErrorsToWarnings@4
    D0B18 __imp__DAQmxResetRealTimeConvLateErrorsToWarnings@4
    B28D0 _DAQmxGetRealTimeNumOfWarmupIters@8
    B28D0 __imp__DAQmxGetRealTimeNumOfWarmupIters@8
    E9468 _DAQmxSetRealTimeNumOfWarmupIters@8
    E9468 __imp__DAQmxSetRealTimeNumOfWarmupIters@8
    D0BA2 _DAQmxResetRealTimeNumOfWarmupIters@4
    D0BA2 __imp__DAQmxResetRealTimeNumOfWarmupIters@4
    B2A54 _DAQmxGetRealTimeWaitForNextSampClkWaitMode@8
    B2A54 __imp__DAQmxGetRealTimeWaitForNextSampClkWaitMode@8
    E9568 _DAQmxSetRealTimeWaitForNextSampClkWaitMode@8
    E9568 __imp__DAQmxSetRealTimeWaitForNextSampClkWaitMode@8
    D0CA6 _DAQmxResetRealTimeWaitForNextSampClkWaitMode@4
    D0CA6 __imp__DAQmxResetRealTimeWaitForNextSampClkWaitMode@4
    B2950 _DAQmxGetRealTimeReportMissedSamp@8
    B2950 __imp__DAQmxGetRealTimeReportMissedSamp@8
    E94E8 _DAQmxSetRealTimeReportMissedSamp@8
    E94E8 __imp__DAQmxSetRealTimeReportMissedSamp@8
    D0C24 _DAQmxResetRealTimeReportMissedSamp@4
    D0C24 __imp__DAQmxResetRealTimeReportMissedSamp@4
    B2ADE _DAQmxGetRealTimeWriteRecoveryMode@8
    B2ADE __imp__DAQmxGetRealTimeWriteRecoveryMode@8
    E95F2 _DAQmxSetRealTimeWriteRecoveryMode@8
    E95F2 __imp__DAQmxSetRealTimeWriteRecoveryMode@8
    D0D32 _DAQmxResetRealTimeWriteRecoveryMode@4
    D0D32 __imp__DAQmxResetRealTimeWriteRecoveryMode@4
    B5184 _DAQmxGetSwitchChanUsage@8
    B5184 __imp__DAQmxGetSwitchChanUsage@8
    EAE72 _DAQmxSetSwitchChanUsage@8
    EAE72 __imp__DAQmxSetSwitchChanUsage@8
    B4A04 _DAQmxGetSwitchChanAnlgBusSharingEnable@8
    B4A04 __imp__DAQmxGetSwitchChanAnlgBusSharingEnable@8
    EAD74 _DAQmxSetSwitchChanAnlgBusSharingEnable@8
    EAD74 __imp__DAQmxSetSwitchChanAnlgBusSharingEnable@8
    B4C80 _DAQmxGetSwitchChanMaxACCarryCurrent@8
    B4C80 __imp__DAQmxGetSwitchChanMaxACCarryCurrent@8
    B4D80 _DAQmxGetSwitchChanMaxACSwitchCurrent@8
    B4D80 __imp__DAQmxGetSwitchChanMaxACSwitchCurrent@8
    B4D02 _DAQmxGetSwitchChanMaxACCarryPwr@8
    B4D02 __imp__DAQmxGetSwitchChanMaxACCarryPwr@8
    B4E04 _DAQmxGetSwitchChanMaxACSwitchPwr@8
    B4E04 __imp__DAQmxGetSwitchChanMaxACSwitchPwr@8
    B4F02 _DAQmxGetSwitchChanMaxDCCarryCurrent@8
    B4F02 __imp__DAQmxGetSwitchChanMaxDCCarryCurrent@8
    B5002 _DAQmxGetSwitchChanMaxDCSwitchCurrent@8
    B5002 __imp__DAQmxGetSwitchChanMaxDCSwitchCurrent@8
    B4F84 _DAQmxGetSwitchChanMaxDCCarryPwr@8
    B4F84 __imp__DAQmxGetSwitchChanMaxDCCarryPwr@8
    B5086 _DAQmxGetSwitchChanMaxDCSwitchPwr@8
    B5086 __imp__DAQmxGetSwitchChanMaxDCSwitchPwr@8
    B4E84 _DAQmxGetSwitchChanMaxACVoltage@8
    B4E84 __imp__DAQmxGetSwitchChanMaxACVoltage@8
    B5106 _DAQmxGetSwitchChanMaxDCVoltage@8
    B5106 __imp__DAQmxGetSwitchChanMaxDCVoltage@8
    B51FA _DAQmxGetSwitchChanWireMode@8
    B51FA __imp__DAQmxGetSwitchChanWireMode@8
    B4B8C _DAQmxGetSwitchChanBandwidth@8
    B4B8C __imp__DAQmxGetSwitchChanBandwidth@8
    B4C06 _DAQmxGetSwitchChanImpedance@8
    B4C06 __imp__DAQmxGetSwitchChanImpedance@8
    B57F4 _DAQmxGetSwitchDevSettlingTime@8
    B57F4 __imp__DAQmxGetSwitchDevSettlingTime@8
    EAFF8 _DAQmxSetSwitchDevSettlingTime@12
    EAFF8 __imp__DAQmxSetSwitchDevSettlingTime@12
    B5274 _DAQmxGetSwitchDevAutoConnAnlgBus@8
    B5274 __imp__DAQmxGetSwitchDevAutoConnAnlgBus@8
    EAEE8 _DAQmxSetSwitchDevAutoConnAnlgBus@8
    EAEE8 __imp__DAQmxSetSwitchDevAutoConnAnlgBus@8
    B5562 _DAQmxGetSwitchDevPwrDownLatchRelaysAfterSettling@8
    B5562 __imp__DAQmxGetSwitchDevPwrDownLatchRelaysAfterSettling@8
    EAF68 _DAQmxSetSwitchDevPwrDownLatchRelaysAfterSettling@8
    EAF68 __imp__DAQmxSetSwitchDevPwrDownLatchRelaysAfterSettling@8
    B5700 _DAQmxGetSwitchDevSettled@8
    B5700 __imp__DAQmxGetSwitchDevSettled@8
    B5686 _DAQmxGetSwitchDevRelayList@12
    B5686 __imp__DAQmxGetSwitchDevRelayList@12
    B53F2 _DAQmxGetSwitchDevNumRelays@8
    B53F2 __imp__DAQmxGetSwitchDevNumRelays@8
    B5870 _DAQmxGetSwitchDevSwitchChanList@12
    B5870 __imp__DAQmxGetSwitchDevSwitchChanList@12
    B54E4 _DAQmxGetSwitchDevNumSwitchChans@8
    B54E4 __imp__DAQmxGetSwitchDevNumSwitchChans@8
    B546C _DAQmxGetSwitchDevNumRows@8
    B546C __imp__DAQmxGetSwitchDevNumRows@8
    B5378 _DAQmxGetSwitchDevNumColumns@8
    B5378 __imp__DAQmxGetSwitchDevNumColumns@8
    B596C _DAQmxGetSwitchDevTopology@12
    B596C __imp__DAQmxGetSwitchDevTopology@12
    B58F0 _DAQmxGetSwitchDevTemperature@8
    B58F0 __imp__DAQmxGetSwitchDevTemperature@8
    B5AD8 _DAQmxGetSwitchScanBreakMode@8
    B5AD8 __imp__DAQmxGetSwitchScanBreakMode@8
    EB168 _DAQmxSetSwitchScanBreakMode@8
    EB168 __imp__DAQmxSetSwitchScanBreakMode@8
    D1D44 _DAQmxResetSwitchScanBreakMode@4
    D1D44 __imp__DAQmxResetSwitchScanBreakMode@4
    B5B52 _DAQmxGetSwitchScanRepeatMode@8
    B5B52 __imp__DAQmxGetSwitchScanRepeatMode@8
    EB1E2 _DAQmxSetSwitchScanRepeatMode@8
    EB1E2 __imp__DAQmxSetSwitchScanRepeatMode@8
    D1DC0 _DAQmxResetSwitchScanRepeatMode@4
    D1DC0 __imp__DAQmxResetSwitchScanRepeatMode@4
    B5BCE _DAQmxGetSwitchScanWaitingForAdv@8
    B5BCE __imp__DAQmxGetSwitchScanWaitingForAdv@8
    B3EA0 _DAQmxGetScaleDescr@12
    B3EA0 __imp__DAQmxGetScaleDescr@12
    EA55A _DAQmxSetScaleDescr@8
    EA55A __imp__DAQmxSetScaleDescr@8
    B435E _DAQmxGetScaleScaledUnits@12
    B435E __imp__DAQmxGetScaleScaledUnits@12
    EAA1E _DAQmxSetScaleScaledUnits@8
    EAA1E __imp__DAQmxSetScaleScaledUnits@8
    B42E4 _DAQmxGetScalePreScaledUnits@8
    B42E4 __imp__DAQmxGetScalePreScaledUnits@8
    EA9A4 _DAQmxSetScalePreScaledUnits@8
    EA9A4 __imp__DAQmxSetScalePreScaledUnits@8
    B44D2 _DAQmxGetScaleType@8
    B44D2 __imp__DAQmxGetScaleType@8
    B3F12 _DAQmxGetScaleLinSlope@8
    B3F12 __imp__DAQmxGetScaleLinSlope@8
    EA5CC _DAQmxSetScaleLinSlope@12
    EA5CC __imp__DAQmxSetScaleLinSlope@12
    B3F86 _DAQmxGetScaleLinYIntercept@8
    B3F86 __imp__DAQmxGetScaleLinYIntercept@8
    EA642 _DAQmxSetScaleLinYIntercept@12
    EA642 __imp__DAQmxSetScaleLinYIntercept@12
    B40F8 _DAQmxGetScaleMapScaledMax@8
    B40F8 __imp__DAQmxGetScaleMapScaledMax@8
    EA7B4 _DAQmxSetScaleMapScaledMax@12
    EA7B4 __imp__DAQmxSetScaleMapScaledMax@12
    B4000 _DAQmxGetScaleMapPreScaledMax@8
    B4000 __imp__DAQmxGetScaleMapPreScaledMax@8
    EA6BC _DAQmxSetScaleMapPreScaledMax@12
    EA6BC __imp__DAQmxSetScaleMapPreScaledMax@12
    B4170 _DAQmxGetScaleMapScaledMin@8
    B4170 __imp__DAQmxGetScaleMapScaledMin@8
    EA82E _DAQmxSetScaleMapScaledMin@12
    EA82E __imp__DAQmxSetScaleMapScaledMin@12
    B407C _DAQmxGetScaleMapPreScaledMin@8
    B407C __imp__DAQmxGetScaleMapPreScaledMin@8
    EA738 _DAQmxSetScaleMapPreScaledMin@12
    EA738 __imp__DAQmxSetScaleMapPreScaledMin@12
    B41E8 _DAQmxGetScalePolyForwardCoeff@12
    B41E8 __imp__DAQmxGetScalePolyForwardCoeff@12
    EA8A8 _DAQmxSetScalePolyForwardCoeff@12
    EA8A8 __imp__DAQmxSetScalePolyForwardCoeff@12
    B4266 _DAQmxGetScalePolyReverseCoeff@12
    B4266 __imp__DAQmxGetScalePolyReverseCoeff@12
    EA926 _DAQmxSetScalePolyReverseCoeff@12
    EA926 __imp__DAQmxSetScalePolyReverseCoeff@12
    B4456 _DAQmxGetScaleTableScaledVals@12
    B4456 __imp__DAQmxGetScaleTableScaledVals@12
    EAB16 _DAQmxSetScaleTableScaledVals@12
    EAB16 __imp__DAQmxSetScaleTableScaledVals@12
    B43D6 _DAQmxGetScaleTablePreScaledVals@12
    B43D6 __imp__DAQmxGetScaleTablePreScaledVals@12
    EAA96 _DAQmxSetScaleTablePreScaledVals@12
    EAA96 __imp__DAQmxSetScaleTablePreScaledVals@12
    B608C _DAQmxGetSysGlobalChans@8
    B608C __imp__DAQmxGetSysGlobalChans@8
    B6276 _DAQmxGetSysScales@8
    B6276 __imp__DAQmxGetSysScales@8
    B62E6 _DAQmxGetSysTasks@8
    B62E6 __imp__DAQmxGetSysTasks@8
    B601A _DAQmxGetSysDevNames@8
    B601A __imp__DAQmxGetSysDevNames@8
    B6102 _DAQmxGetSysNIDAQMajorVersion@4
    B6102 __imp__DAQmxGetSysNIDAQMajorVersion@4
    B617E _DAQmxGetSysNIDAQMinorVersion@4
    B617E __imp__DAQmxGetSysNIDAQMinorVersion@4
    B61FA _DAQmxGetSysNIDAQUpdateVersion@4
    B61FA __imp__DAQmxGetSysNIDAQUpdateVersion@4
    B6686 _DAQmxGetTaskName@12
    B6686 __imp__DAQmxGetTaskName@12
    B64B2 _DAQmxGetTaskChannels@12
    B64B2 __imp__DAQmxGetTaskChannels@12
    B66F6 _DAQmxGetTaskNumChans@8
    B66F6 __imp__DAQmxGetTaskNumChans@8
    B6612 _DAQmxGetTaskDevices@12
    B6612 __imp__DAQmxGetTaskDevices@12
    B676A _DAQmxGetTaskNumDevices@8
    B676A __imp__DAQmxGetTaskNumDevices@8
    B6526 _DAQmxGetTaskComplete@8
    B6526 __imp__DAQmxGetTaskComplete@8
    B3BCA _DAQmxGetSampQuantSampMode@8
    B3BCA __imp__DAQmxGetSampQuantSampMode@8
    EA284 _DAQmxSetSampQuantSampMode@8
    EA284 __imp__DAQmxSetSampQuantSampMode@8
    D18F4 _DAQmxResetSampQuantSampMode@4
    D18F4 __imp__DAQmxResetSampQuantSampMode@4
    B3C42 _DAQmxGetSampQuantSampPerChan@8
    B3C42 __imp__DAQmxGetSampQuantSampPerChan@8
    EA2FC _DAQmxSetSampQuantSampPerChan@12
    EA2FC __imp__DAQmxSetSampQuantSampPerChan@12
    D196E _DAQmxResetSampQuantSampPerChan@4
    D196E __imp__DAQmxResetSampQuantSampPerChan@4
    B3DB6 _DAQmxGetSampTimingType@8
    B3DB6 __imp__DAQmxGetSampTimingType@8
    EA470 _DAQmxSetSampTimingType@8
    EA470 __imp__DAQmxSetSampTimingType@8
    D1A66 _DAQmxResetSampTimingType@4
    D1A66 __imp__DAQmxResetSampTimingType@4
    B3570 _DAQmxGetSampClkRate@8
    B3570 __imp__DAQmxGetSampClkRate@8
    E9DA0 _DAQmxSetSampClkRate@12
    E9DA0 __imp__DAQmxSetSampClkRate@12
    D1400 _DAQmxResetSampClkRate@4
    D1400 __imp__DAQmxResetSampClkRate@4
    B347C _DAQmxGetSampClkMaxRate@8
    B347C __imp__DAQmxGetSampClkMaxRate@8
    B35E2 _DAQmxGetSampClkSrc@12
    B35E2 __imp__DAQmxGetSampClkSrc@12
    E9E14 _DAQmxSetSampClkSrc@8
    E9E14 __imp__DAQmxSetSampClkSrc@8
    D1474 _DAQmxResetSampClkSrc@4
    D1474 __imp__DAQmxResetSampClkSrc@4
    B3086 _DAQmxGetSampClkActiveEdge@8
    B3086 __imp__DAQmxGetSampClkActiveEdge@8
    E9A2C _DAQmxSetSampClkActiveEdge@8
    E9A2C __imp__DAQmxSetSampClkActiveEdge@8
    D1080 _DAQmxResetSampClkActiveEdge@4
    D1080 __imp__DAQmxResetSampClkActiveEdge@4
    B34F2 _DAQmxGetSampClkOverrunBehavior@8
    B34F2 __imp__DAQmxGetSampClkOverrunBehavior@8
    E9D22 _DAQmxSetSampClkOverrunBehavior@8
    E9D22 __imp__DAQmxSetSampClkOverrunBehavior@8
    D1380 _DAQmxResetSampClkOverrunBehavior@4
    D1380 __imp__DAQmxResetSampClkOverrunBehavior@4
    B3A3A _DAQmxGetSampClkUnderflowBehavior@8
    B3A3A __imp__DAQmxGetSampClkUnderflowBehavior@8
    EA17E _DAQmxSetSampClkUnderflowBehavior@8
    EA17E __imp__DAQmxSetSampClkUnderflowBehavior@8
    D17EA _DAQmxResetSampClkUnderflowBehavior@4
    D17EA __imp__DAQmxResetSampClkUnderflowBehavior@4
    B3748 _DAQmxGetSampClkTimebaseDiv@8
    B3748 __imp__DAQmxGetSampClkTimebaseDiv@8
    E9F06 _DAQmxSetSampClkTimebaseDiv@8
    E9F06 __imp__DAQmxSetSampClkTimebaseDiv@8
    D156A _DAQmxResetSampClkTimebaseDiv@4
    D156A __imp__DAQmxResetSampClkTimebaseDiv@4
    B3654 _DAQmxGetSampClkTerm@12
    B3654 __imp__DAQmxGetSampClkTerm@12
    B384A _DAQmxGetSampClkTimebaseRate@8
    B384A __imp__DAQmxGetSampClkTimebaseRate@8
    EA008 _DAQmxSetSampClkTimebaseRate@12
    EA008 __imp__DAQmxSetSampClkTimebaseRate@12
    D1670 _DAQmxResetSampClkTimebaseRate@4
    D1670 __imp__DAQmxResetSampClkTimebaseRate@4
    B38C4 _DAQmxGetSampClkTimebaseSrc@12
    B38C4 __imp__DAQmxGetSampClkTimebaseSrc@12
    EA084 _DAQmxSetSampClkTimebaseSrc@8
    EA084 __imp__DAQmxSetSampClkTimebaseSrc@8
    D16EC _DAQmxResetSampClkTimebaseSrc@4
    D16EC __imp__DAQmxResetSampClkTimebaseSrc@4
    B36C8 _DAQmxGetSampClkTimebaseActiveEdge@8
    B36C8 __imp__DAQmxGetSampClkTimebaseActiveEdge@8
    E9E86 _DAQmxSetSampClkTimebaseActiveEdge@8
    E9E86 __imp__DAQmxSetSampClkTimebaseActiveEdge@8
    D14E8 _DAQmxResetSampClkTimebaseActiveEdge@4
    D14E8 __imp__DAQmxResetSampClkTimebaseActiveEdge@4
    B37C2 _DAQmxGetSampClkTimebaseMasterTimebaseDiv@8
    B37C2 __imp__DAQmxGetSampClkTimebaseMasterTimebaseDiv@8
    E9F80 _DAQmxSetSampClkTimebaseMasterTimebaseDiv@8
    E9F80 __imp__DAQmxSetSampClkTimebaseMasterTimebaseDiv@8
    D15E6 _DAQmxResetSampClkTimebaseMasterTimebaseDiv@4
    D15E6 __imp__DAQmxResetSampClkTimebaseMasterTimebaseDiv@4
    B393E _DAQmxGetSampClkTimebaseTerm@12
    B393E __imp__DAQmxGetSampClkTimebaseTerm@12
    B30FE _DAQmxGetSampClkDigFltrEnable@8
    B30FE __imp__DAQmxGetSampClkDigFltrEnable@8
    E9AA4 _DAQmxSetSampClkDigFltrEnable@8
    E9AA4 __imp__DAQmxSetSampClkDigFltrEnable@8
    D10FA _DAQmxResetSampClkDigFltrEnable@4
    D10FA __imp__DAQmxResetSampClkDigFltrEnable@4
    B31FA _DAQmxGetSampClkDigFltrMinPulseWidth@8
    B31FA __imp__DAQmxGetSampClkDigFltrMinPulseWidth@8
    E9B20 _DAQmxSetSampClkDigFltrMinPulseWidth@12
    E9B20 __imp__DAQmxSetSampClkDigFltrMinPulseWidth@12
    D1178 _DAQmxResetSampClkDigFltrMinPulseWidth@4
    D1178 __imp__DAQmxResetSampClkDigFltrMinPulseWidth@4
    B32FE _DAQmxGetSampClkDigFltrTimebaseSrc@12
    B32FE __imp__DAQmxGetSampClkDigFltrTimebaseSrc@12
    E9C26 _DAQmxSetSampClkDigFltrTimebaseSrc@8
    E9C26 __imp__DAQmxSetSampClkDigFltrTimebaseSrc@8
    D1280 _DAQmxResetSampClkDigFltrTimebaseSrc@4
    D1280 __imp__DAQmxResetSampClkDigFltrTimebaseSrc@4
    B327C _DAQmxGetSampClkDigFltrTimebaseRate@8
    B327C __imp__DAQmxGetSampClkDigFltrTimebaseRate@8
    E9BA4 _DAQmxSetSampClkDigFltrTimebaseRate@12
    E9BA4 __imp__DAQmxSetSampClkDigFltrTimebaseRate@12
    D11FC _DAQmxResetSampClkDigFltrTimebaseRate@4
    D11FC __imp__DAQmxResetSampClkDigFltrTimebaseRate@4
    B3380 _DAQmxGetSampClkDigSyncEnable@8
    B3380 __imp__DAQmxGetSampClkDigSyncEnable@8
    E9CA6 _DAQmxSetSampClkDigSyncEnable@8
    E9CA6 __imp__DAQmxSetSampClkDigSyncEnable@8
    D1302 _DAQmxResetSampClkDigSyncEnable@4
    D1302 __imp__DAQmxResetSampClkDigSyncEnable@4
    B3ABA _DAQmxGetSampClkWriteWfmUseInitialWfmDT@8
    B3ABA __imp__DAQmxGetSampClkWriteWfmUseInitialWfmDT@8
    EA1FE _DAQmxSetSampClkWriteWfmUseInitialWfmDT@8
    EA1FE __imp__DAQmxSetSampClkWriteWfmUseInitialWfmDT@8
    D186C _DAQmxResetSampClkWriteWfmUseInitialWfmDT@4
    D186C __imp__DAQmxResetSampClkWriteWfmUseInitialWfmDT@4
    AE61C _DAQmxGetHshkDelayAfterXfer@8
    AE61C __imp__DAQmxGetHshkDelayAfterXfer@8
    E83A2 _DAQmxSetHshkDelayAfterXfer@12
    E83A2 __imp__DAQmxSetHshkDelayAfterXfer@12
    CFC1A _DAQmxResetHshkDelayAfterXfer@4
    CFC1A __imp__DAQmxResetHshkDelayAfterXfer@4
    AE714 _DAQmxGetHshkStartCond@8
    AE714 __imp__DAQmxGetHshkStartCond@8
    E849A _DAQmxSetHshkStartCond@8
    E849A __imp__DAQmxSetHshkStartCond@8
    CFD16 _DAQmxResetHshkStartCond@4
    CFD16 __imp__DAQmxResetHshkStartCond@4
    AE696 _DAQmxGetHshkSampleInputDataWhen@8
    AE696 __imp__DAQmxGetHshkSampleInputDataWhen@8
    E841C _DAQmxSetHshkSampleInputDataWhen@8
    E841C __imp__DAQmxSetHshkSampleInputDataWhen@8
    CFC96 _DAQmxResetHshkSampleInputDataWhen@4
    CFC96 __imp__DAQmxResetHshkSampleInputDataWhen@4
    A68D0 _DAQmxGetChangeDetectDIRisingEdgePhysicalChans@12
    A68D0 __imp__DAQmxGetChangeDetectDIRisingEdgePhysicalChans@12
    E3F98 _DAQmxSetChangeDetectDIRisingEdgePhysicalChans@8
    E3F98 __imp__DAQmxSetChangeDetectDIRisingEdgePhysicalChans@8
    CB958 _DAQmxResetChangeDetectDIRisingEdgePhysicalChans@4
    CB958 __imp__DAQmxResetChangeDetectDIRisingEdgePhysicalChans@4
    A6842 _DAQmxGetChangeDetectDIFallingEdgePhysicalChans@12
    A6842 __imp__DAQmxGetChangeDetectDIFallingEdgePhysicalChans@12
    E3F0A _DAQmxSetChangeDetectDIFallingEdgePhysicalChans@8
    E3F0A __imp__DAQmxSetChangeDetectDIFallingEdgePhysicalChans@8
    CB8C8 _DAQmxResetChangeDetectDIFallingEdgePhysicalChans@4
    CB8C8 __imp__DAQmxResetChangeDetectDIFallingEdgePhysicalChans@4
    A695E _DAQmxGetChangeDetectDITristate@8
    A695E __imp__DAQmxGetChangeDetectDITristate@8
    E4024 _DAQmxSetChangeDetectDITristate@8
    E4024 __imp__DAQmxSetChangeDetectDITristate@8
    CB9E6 _DAQmxResetChangeDetectDITristate@4
    CB9E6 __imp__DAQmxResetChangeDetectDITristate@4
    AF1AA _DAQmxGetOnDemandSimultaneousAOEnable@8
    AF1AA __imp__DAQmxGetOnDemandSimultaneousAOEnable@8
    E8D50 _DAQmxSetOnDemandSimultaneousAOEnable@8
    E8D50 __imp__DAQmxSetOnDemandSimultaneousAOEnable@8
    D04E4 _DAQmxResetOnDemandSimultaneousAOEnable@4
    D04E4 __imp__DAQmxResetOnDemandSimultaneousAOEnable@4
    AE7FC _DAQmxGetImplicitUnderflowBehavior@8
    AE7FC __imp__DAQmxGetImplicitUnderflowBehavior@8
    E8582 _DAQmxSetImplicitUnderflowBehavior@8
    E8582 __imp__DAQmxSetImplicitUnderflowBehavior@8
    CFE02 _DAQmxResetImplicitUnderflowBehavior@4
    CFE02 __imp__DAQmxResetImplicitUnderflowBehavior@4
    936AE _DAQmxGetAIConvRate@8
    936AE __imp__DAQmxGetAIConvRate@8
    D4C1E _DAQmxSetAIConvRate@12
    D4C1E __imp__DAQmxSetAIConvRate@12
    BC6BE _DAQmxResetAIConvRate@4
    BC6BE __imp__DAQmxResetAIConvRate@4
    93720 _DAQmxGetAIConvRateEx@12
    93720 __imp__DAQmxGetAIConvRateEx@12
    D4C90 _DAQmxSetAIConvRateEx@16
    D4C90 __imp__DAQmxSetAIConvRateEx@16
    BC732 _DAQmxResetAIConvRateEx@8
    BC732 __imp__DAQmxResetAIConvRateEx@8
    935C2 _DAQmxGetAIConvMaxRate@8
    935C2 __imp__DAQmxGetAIConvMaxRate@8
    93636 _DAQmxGetAIConvMaxRateEx@12
    93636 __imp__DAQmxGetAIConvMaxRateEx@12
    93794 _DAQmxGetAIConvSrc@12
    93794 __imp__DAQmxGetAIConvSrc@12
    D4D04 _DAQmxSetAIConvSrc@8
    D4D04 __imp__DAQmxSetAIConvSrc@8
    BC7A8 _DAQmxResetAIConvSrc@4
    BC7A8 __imp__DAQmxResetAIConvSrc@4
    93806 _DAQmxGetAIConvSrcEx@16
    93806 __imp__DAQmxGetAIConvSrcEx@16
    D4D74 _DAQmxSetAIConvSrcEx@12
    D4D74 __imp__DAQmxSetAIConvSrcEx@12
    BC81A _DAQmxResetAIConvSrcEx@8
    BC81A __imp__DAQmxResetAIConvSrcEx@8
    92ED8 _DAQmxGetAIConvActiveEdge@8
    92ED8 __imp__DAQmxGetAIConvActiveEdge@8
    D462E _DAQmxSetAIConvActiveEdge@8
    D462E __imp__DAQmxSetAIConvActiveEdge@8
    BC0BE _DAQmxResetAIConvActiveEdge@4
    BC0BE __imp__DAQmxResetAIConvActiveEdge@4
    92F50 _DAQmxGetAIConvActiveEdgeEx@12
    92F50 __imp__DAQmxGetAIConvActiveEdgeEx@12
    D46A6 _DAQmxSetAIConvActiveEdgeEx@12
    D46A6 __imp__DAQmxSetAIConvActiveEdgeEx@12
    BC138 _DAQmxResetAIConvActiveEdgeEx@8
    BC138 __imp__DAQmxResetAIConvActiveEdgeEx@8
    9387A _DAQmxGetAIConvTimebaseDiv@8
    9387A __imp__DAQmxGetAIConvTimebaseDiv@8
    D4DE8 _DAQmxSetAIConvTimebaseDiv@8
    D4DE8 __imp__DAQmxSetAIConvTimebaseDiv@8
    BC88E _DAQmxResetAIConvTimebaseDiv@4
    BC88E __imp__DAQmxResetAIConvTimebaseDiv@4
    938F2 _DAQmxGetAIConvTimebaseDivEx@12
    938F2 __imp__DAQmxGetAIConvTimebaseDivEx@12
    D4E60 _DAQmxSetAIConvTimebaseDivEx@12
    D4E60 __imp__DAQmxSetAIConvTimebaseDivEx@12
    BC908 _DAQmxResetAIConvTimebaseDivEx@8
    BC908 __imp__DAQmxResetAIConvTimebaseDivEx@8
    9396E _DAQmxGetAIConvTimebaseSrc@8
    9396E __imp__DAQmxGetAIConvTimebaseSrc@8
    D4EDC _DAQmxSetAIConvTimebaseSrc@8
    D4EDC __imp__DAQmxSetAIConvTimebaseSrc@8
    BC984 _DAQmxResetAIConvTimebaseSrc@4
    BC984 __imp__DAQmxResetAIConvTimebaseSrc@4
    939E6 _DAQmxGetAIConvTimebaseSrcEx@12
    939E6 __imp__DAQmxGetAIConvTimebaseSrcEx@12
    D4F54 _DAQmxSetAIConvTimebaseSrcEx@12
    D4F54 __imp__DAQmxSetAIConvTimebaseSrcEx@12
    BC9FE _DAQmxResetAIConvTimebaseSrcEx@8
    BC9FE __imp__DAQmxResetAIConvTimebaseSrcEx@8
    A80BA _DAQmxGetDelayFromSampClkDelayUnits@8
    A80BA __imp__DAQmxGetDelayFromSampClkDelayUnits@8
    E50CA _DAQmxSetDelayFromSampClkDelayUnits@8
    E50CA __imp__DAQmxSetDelayFromSampClkDelayUnits@8
    CCAAA _DAQmxResetDelayFromSampClkDelayUnits@4
    CCAAA __imp__DAQmxResetDelayFromSampClkDelayUnits@4
    A813C _DAQmxGetDelayFromSampClkDelayUnitsEx@12
    A813C __imp__DAQmxGetDelayFromSampClkDelayUnitsEx@12
    E514C _DAQmxSetDelayFromSampClkDelayUnitsEx@12
    E514C __imp__DAQmxSetDelayFromSampClkDelayUnitsEx@12
    CCB2E _DAQmxResetDelayFromSampClkDelayUnitsEx@8
    CCB2E __imp__DAQmxResetDelayFromSampClkDelayUnitsEx@8
    A7FBE _DAQmxGetDelayFromSampClkDelay@8
    A7FBE __imp__DAQmxGetDelayFromSampClkDelay@8
    E4FCC _DAQmxSetDelayFromSampClkDelay@12
    E4FCC __imp__DAQmxSetDelayFromSampClkDelay@12
    CC9AC _DAQmxResetDelayFromSampClkDelay@4
    CC9AC __imp__DAQmxResetDelayFromSampClkDelay@4
    A803A _DAQmxGetDelayFromSampClkDelayEx@12
    A803A __imp__DAQmxGetDelayFromSampClkDelayEx@12
    E504A _DAQmxSetDelayFromSampClkDelayEx@16
    E504A __imp__DAQmxSetDelayFromSampClkDelayEx@16
    CCA2A _DAQmxResetDelayFromSampClkDelayEx@8
    CCA2A __imp__DAQmxResetDelayFromSampClkDelayEx@8
    92FCA _DAQmxGetAIConvDigFltrEnable@8
    92FCA __imp__DAQmxGetAIConvDigFltrEnable@8
    D4720 _DAQmxSetAIConvDigFltrEnable@8
    D4720 __imp__DAQmxSetAIConvDigFltrEnable@8
    BC1B4 _DAQmxResetAIConvDigFltrEnable@4
    BC1B4 __imp__DAQmxResetAIConvDigFltrEnable@4
    93044 _DAQmxGetAIConvDigFltrEnableEx@12
    93044 __imp__DAQmxGetAIConvDigFltrEnableEx@12
    D479A _DAQmxSetAIConvDigFltrEnableEx@12
    D479A __imp__DAQmxSetAIConvDigFltrEnableEx@12
    BC230 _DAQmxResetAIConvDigFltrEnableEx@8
    BC230 __imp__DAQmxResetAIConvDigFltrEnableEx@8
    93140 _DAQmxGetAIConvDigFltrMinPulseWidth@8
    93140 __imp__DAQmxGetAIConvDigFltrMinPulseWidth@8
    D4818 _DAQmxSetAIConvDigFltrMinPulseWidth@12
    D4818 __imp__DAQmxSetAIConvDigFltrMinPulseWidth@12
    BC2AE _DAQmxResetAIConvDigFltrMinPulseWidth@4
    BC2AE __imp__DAQmxResetAIConvDigFltrMinPulseWidth@4
    931C2 _DAQmxGetAIConvDigFltrMinPulseWidthEx@12
    931C2 __imp__DAQmxGetAIConvDigFltrMinPulseWidthEx@12
    D489A _DAQmxSetAIConvDigFltrMinPulseWidthEx@16
    D489A __imp__DAQmxSetAIConvDigFltrMinPulseWidthEx@16
    BC332 _DAQmxResetAIConvDigFltrMinPulseWidthEx@8
    BC332 __imp__DAQmxResetAIConvDigFltrMinPulseWidthEx@8
    9334A _DAQmxGetAIConvDigFltrTimebaseSrc@12
    9334A __imp__DAQmxGetAIConvDigFltrTimebaseSrc@12
    D4A24 _DAQmxSetAIConvDigFltrTimebaseSrc@8
    D4A24 __imp__DAQmxSetAIConvDigFltrTimebaseSrc@8
    BC4BE _DAQmxResetAIConvDigFltrTimebaseSrc@4
    BC4BE __imp__DAQmxResetAIConvDigFltrTimebaseSrc@4
    933CA _DAQmxGetAIConvDigFltrTimebaseSrcEx@16
    933CA __imp__DAQmxGetAIConvDigFltrTimebaseSrcEx@16
    D4AA4 _DAQmxSetAIConvDigFltrTimebaseSrcEx@12
    D4AA4 __imp__DAQmxSetAIConvDigFltrTimebaseSrcEx@12
    BC540 _DAQmxResetAIConvDigFltrTimebaseSrcEx@8
    BC540 __imp__DAQmxResetAIConvDigFltrTimebaseSrcEx@8
    93246 _DAQmxGetAIConvDigFltrTimebaseRate@8
    93246 __imp__DAQmxGetAIConvDigFltrTimebaseRate@8
    D491E _DAQmxSetAIConvDigFltrTimebaseRate@12
    D491E __imp__DAQmxSetAIConvDigFltrTimebaseRate@12
    BC3B8 _DAQmxResetAIConvDigFltrTimebaseRate@4
    BC3B8 __imp__DAQmxResetAIConvDigFltrTimebaseRate@4
    932C6 _DAQmxGetAIConvDigFltrTimebaseRateEx@12
    932C6 __imp__DAQmxGetAIConvDigFltrTimebaseRateEx@12
    D49A0 _DAQmxSetAIConvDigFltrTimebaseRateEx@16
    D49A0 __imp__DAQmxSetAIConvDigFltrTimebaseRateEx@16
    BC43A _DAQmxResetAIConvDigFltrTimebaseRateEx@8
    BC43A __imp__DAQmxResetAIConvDigFltrTimebaseRateEx@8
    9344C _DAQmxGetAIConvDigSyncEnable@8
    9344C __imp__DAQmxGetAIConvDigSyncEnable@8
    D4B26 _DAQmxSetAIConvDigSyncEnable@8
    D4B26 __imp__DAQmxSetAIConvDigSyncEnable@8
    BC5C4 _DAQmxResetAIConvDigSyncEnable@4
    BC5C4 __imp__DAQmxResetAIConvDigSyncEnable@4
    934C6 _DAQmxGetAIConvDigSyncEnableEx@12
    934C6 __imp__DAQmxGetAIConvDigSyncEnableEx@12
    D4BA0 _DAQmxSetAIConvDigSyncEnableEx@12
    D4BA0 __imp__DAQmxSetAIConvDigSyncEnableEx@12
    BC640 _DAQmxResetAIConvDigSyncEnableEx@8
    BC640 __imp__DAQmxResetAIConvDigSyncEnableEx@8
    AEF50 _DAQmxGetMasterTimebaseRate@8
    AEF50 __imp__DAQmxGetMasterTimebaseRate@8
    E8C5E _DAQmxSetMasterTimebaseRate@12
    E8C5E __imp__DAQmxSetMasterTimebaseRate@12
    D03EE _DAQmxResetMasterTimebaseRate@4
    D03EE __imp__DAQmxResetMasterTimebaseRate@4
    AEFCA _DAQmxGetMasterTimebaseSrc@12
    AEFCA __imp__DAQmxGetMasterTimebaseSrc@12
    E8CD8 _DAQmxSetMasterTimebaseSrc@8
    E8CD8 __imp__DAQmxSetMasterTimebaseSrc@8
    D046A _DAQmxResetMasterTimebaseSrc@4
    D046A __imp__DAQmxResetMasterTimebaseSrc@4
    B2B5E _DAQmxGetRefClkRate@8
    B2B5E __imp__DAQmxGetRefClkRate@8
    E9672 _DAQmxSetRefClkRate@12
    E9672 __imp__DAQmxSetRefClkRate@12
    D0DB4 _DAQmxResetRefClkRate@4
    D0DB4 __imp__DAQmxResetRefClkRate@4
    B2BD0 _DAQmxGetRefClkSrc@12
    B2BD0 __imp__DAQmxGetRefClkSrc@12
    E96E4 _DAQmxSetRefClkSrc@8
    E96E4 __imp__DAQmxSetRefClkSrc@8
    D0E28 _DAQmxResetRefClkSrc@4
    D0E28 __imp__DAQmxResetRefClkSrc@4
    B5EB8 _DAQmxGetSyncPulseSrc@12
    B5EB8 __imp__DAQmxGetSyncPulseSrc@12
    EB3D0 _DAQmxSetSyncPulseSrc@8
    EB3D0 __imp__DAQmxSetSyncPulseSrc@8
    D1FB4 _DAQmxResetSyncPulseSrc@4
    D1FB4 __imp__DAQmxResetSyncPulseSrc@4
    B5F2C _DAQmxGetSyncPulseSyncTime@8
    B5F2C __imp__DAQmxGetSyncPulseSyncTime@8
    B5D44 _DAQmxGetSyncPulseMinDelayToStart@8
    B5D44 __imp__DAQmxGetSyncPulseMinDelayToStart@8
    EB2D4 _DAQmxSetSyncPulseMinDelayToStart@12
    EB2D4 __imp__DAQmxSetSyncPulseMinDelayToStart@12
    D1EB6 _DAQmxResetSyncPulseMinDelayToStart@4
    D1EB6 __imp__DAQmxResetSyncPulseMinDelayToStart@4
    B5E3E _DAQmxGetSyncPulseResetTime@8
    B5E3E __imp__DAQmxGetSyncPulseResetTime@8
    B5DC4 _DAQmxGetSyncPulseResetDelay@8
    B5DC4 __imp__DAQmxGetSyncPulseResetDelay@8
    EB354 _DAQmxSetSyncPulseResetDelay@12
    EB354 __imp__DAQmxSetSyncPulseResetDelay@12
    D1F38 _DAQmxResetSyncPulseResetDelay@4
    D1F38 __imp__DAQmxResetSyncPulseResetDelay@4
    B5FA4 _DAQmxGetSyncPulseTerm@12
    B5FA4 __imp__DAQmxGetSyncPulseTerm@12
    B5CCE _DAQmxGetSyncClkInterval@8
    B5CCE __imp__DAQmxGetSyncClkInterval@8
    EB25E _DAQmxSetSyncClkInterval@8
    EB25E __imp__DAQmxSetSyncClkInterval@8
    D1E3E _DAQmxResetSyncClkInterval@4
    D1E3E __imp__DAQmxResetSyncClkInterval@4
    B3D3E _DAQmxGetSampTimingEngine@8
    B3D3E __imp__DAQmxGetSampTimingEngine@8
    EA3F8 _DAQmxSetSampTimingEngine@8
    EA3F8 __imp__DAQmxSetSampTimingEngine@8
    D19EC _DAQmxResetSampTimingEngine@4
    D19EC __imp__DAQmxResetSampTimingEngine@4
    B4990 _DAQmxGetStartTrigType@8
    B4990 __imp__DAQmxGetStartTrigType@8
    EAD00 _DAQmxSetStartTrigType@8
    EAD00 __imp__DAQmxSetStartTrigType@8
    D1C52 _DAQmxResetStartTrigType@4
    D1C52 __imp__DAQmxResetStartTrigType@4
    B491A _DAQmxGetStartTrigTerm@12
    B491A __imp__DAQmxGetStartTrigTerm@12
    ABB88 _DAQmxGetDigEdgeStartTrigSrc@12
    ABB88 __imp__DAQmxGetDigEdgeStartTrigSrc@12
    E5E36 _DAQmxSetDigEdgeStartTrigSrc@8
    E5E36 __imp__DAQmxSetDigEdgeStartTrigSrc@8
    CD82E _DAQmxResetDigEdgeStartTrigSrc@4
    CD82E __imp__DAQmxResetDigEdgeStartTrigSrc@4
    ABB0C _DAQmxGetDigEdgeStartTrigEdge@8
    ABB0C __imp__DAQmxGetDigEdgeStartTrigEdge@8
    E5DBA _DAQmxSetDigEdgeStartTrigEdge@8
    E5DBA __imp__DAQmxSetDigEdgeStartTrigEdge@8
    CD7B0 _DAQmxResetDigEdgeStartTrigEdge@4
    CD7B0 __imp__DAQmxResetDigEdgeStartTrigEdge@4
    AB754 _DAQmxGetDigEdgeStartTrigDigFltrEnable@8
    AB754 __imp__DAQmxGetDigEdgeStartTrigDigFltrEnable@8
    E5B10 _DAQmxSetDigEdgeStartTrigDigFltrEnable@8
    E5B10 __imp__DAQmxSetDigEdgeStartTrigDigFltrEnable@8
    CD4FE _DAQmxResetDigEdgeStartTrigDigFltrEnable@4
    CD4FE __imp__DAQmxResetDigEdgeStartTrigDigFltrEnable@4
    AB860 _DAQmxGetDigEdgeStartTrigDigFltrMinPulseWidth@8
    AB860 __imp__DAQmxGetDigEdgeStartTrigDigFltrMinPulseWidth@8
    E5B94 _DAQmxSetDigEdgeStartTrigDigFltrMinPulseWidth@12
    E5B94 __imp__DAQmxSetDigEdgeStartTrigDigFltrMinPulseWidth@12
    CD584 _DAQmxResetDigEdgeStartTrigDigFltrMinPulseWidth@4
    CD584 __imp__DAQmxResetDigEdgeStartTrigDigFltrMinPulseWidth@4
    AB976 _DAQmxGetDigEdgeStartTrigDigFltrTimebaseSrc@12
    AB976 __imp__DAQmxGetDigEdgeStartTrigDigFltrTimebaseSrc@12
    E5CAC _DAQmxSetDigEdgeStartTrigDigFltrTimebaseSrc@8
    E5CAC __imp__DAQmxSetDigEdgeStartTrigDigFltrTimebaseSrc@8
    CD69E _DAQmxResetDigEdgeStartTrigDigFltrTimebaseSrc@4
    CD69E __imp__DAQmxResetDigEdgeStartTrigDigFltrTimebaseSrc@4
    AB8EC _DAQmxGetDigEdgeStartTrigDigFltrTimebaseRate@8
    AB8EC __imp__DAQmxGetDigEdgeStartTrigDigFltrTimebaseRate@8
    E5C20 _DAQmxSetDigEdgeStartTrigDigFltrTimebaseRate@12
    E5C20 __imp__DAQmxSetDigEdgeStartTrigDigFltrTimebaseRate@12
    CD612 _DAQmxResetDigEdgeStartTrigDigFltrTimebaseRate@4
    CD612 __imp__DAQmxResetDigEdgeStartTrigDigFltrTimebaseRate@4
    ABA00 _DAQmxGetDigEdgeStartTrigDigSyncEnable@8
    ABA00 __imp__DAQmxGetDigEdgeStartTrigDigSyncEnable@8
    E5D36 _DAQmxSetDigEdgeStartTrigDigSyncEnable@8
    E5D36 __imp__DAQmxSetDigEdgeStartTrigDigSyncEnable@8
    CD72A _DAQmxResetDigEdgeStartTrigDigSyncEnable@4
    CD72A __imp__DAQmxResetDigEdgeStartTrigDigSyncEnable@4
    AC52E _DAQmxGetDigPatternStartTrigSrc@12
    AC52E __imp__DAQmxGetDigPatternStartTrigSrc@12
    E66C8 _DAQmxSetDigPatternStartTrigSrc@8
    E66C8 __imp__DAQmxSetDigPatternStartTrigSrc@8
    CE0E0 _DAQmxResetDigPatternStartTrigSrc@4
    CE0E0 __imp__DAQmxResetDigPatternStartTrigSrc@4
    AC4AC _DAQmxGetDigPatternStartTrigPattern@12
    AC4AC __imp__DAQmxGetDigPatternStartTrigPattern@12
    E6646 _DAQmxSetDigPatternStartTrigPattern@8
    E6646 __imp__DAQmxSetDigPatternStartTrigPattern@8
    CE05C _DAQmxResetDigPatternStartTrigPattern@4
    CE05C __imp__DAQmxResetDigPatternStartTrigPattern@4
    AC5AC _DAQmxGetDigPatternStartTrigWhen@8
    AC5AC __imp__DAQmxGetDigPatternStartTrigWhen@8
    E6746 _DAQmxSetDigPatternStartTrigWhen@8
    E6746 __imp__DAQmxSetDigPatternStartTrigWhen@8
    CE160 _DAQmxResetDigPatternStartTrigWhen@4
    CE160 __imp__DAQmxResetDigPatternStartTrigWhen@4
    9A4FE _DAQmxGetAnlgEdgeStartTrigSrc@12
    9A4FE __imp__DAQmxGetAnlgEdgeStartTrigSrc@12
    DA3EA _DAQmxSetAnlgEdgeStartTrigSrc@8
    DA3EA __imp__DAQmxSetAnlgEdgeStartTrigSrc@8
    C1DC6 _DAQmxResetAnlgEdgeStartTrigSrc@4
    C1DC6 __imp__DAQmxResetAnlgEdgeStartTrigSrc@4
    9A480 _DAQmxGetAnlgEdgeStartTrigSlope@8
    9A480 __imp__DAQmxGetAnlgEdgeStartTrigSlope@8
    DA36C _DAQmxSetAnlgEdgeStartTrigSlope@8
    DA36C __imp__DAQmxSetAnlgEdgeStartTrigSlope@8
    C1D46 _DAQmxResetAnlgEdgeStartTrigSlope@4
    C1D46 __imp__DAQmxResetAnlgEdgeStartTrigSlope@4
    9A404 _DAQmxGetAnlgEdgeStartTrigLvl@8
    9A404 __imp__DAQmxGetAnlgEdgeStartTrigLvl@8
    DA2F0 _DAQmxSetAnlgEdgeStartTrigLvl@12
    DA2F0 __imp__DAQmxSetAnlgEdgeStartTrigLvl@12
    C1CC8 _DAQmxResetAnlgEdgeStartTrigLvl@4
    C1CC8 __imp__DAQmxResetAnlgEdgeStartTrigLvl@4
    9A388 _DAQmxGetAnlgEdgeStartTrigHyst@8
    9A388 __imp__DAQmxGetAnlgEdgeStartTrigHyst@8
    DA272 _DAQmxSetAnlgEdgeStartTrigHyst@12
    DA272 __imp__DAQmxSetAnlgEdgeStartTrigHyst@12
    C1C4A _DAQmxResetAnlgEdgeStartTrigHyst@4
    C1C4A __imp__DAQmxResetAnlgEdgeStartTrigHyst@4
    99F44 _DAQmxGetAnlgEdgeStartTrigCoupling@8
    99F44 __imp__DAQmxGetAnlgEdgeStartTrigCoupling@8
    D9F42 _DAQmxSetAnlgEdgeStartTrigCoupling@8
    D9F42 __imp__DAQmxSetAnlgEdgeStartTrigCoupling@8
    C1910 _DAQmxResetAnlgEdgeStartTrigCoupling@4
    C1910 __imp__DAQmxResetAnlgEdgeStartTrigCoupling@4
    99FC4 _DAQmxGetAnlgEdgeStartTrigDigFltrEnable@8
    99FC4 __imp__DAQmxGetAnlgEdgeStartTrigDigFltrEnable@8
    D9FC2 _DAQmxSetAnlgEdgeStartTrigDigFltrEnable@8
    D9FC2 __imp__DAQmxSetAnlgEdgeStartTrigDigFltrEnable@8
    C1992 _DAQmxResetAnlgEdgeStartTrigDigFltrEnable@4
    C1992 __imp__DAQmxResetAnlgEdgeStartTrigDigFltrEnable@4
    9A0D4 _DAQmxGetAnlgEdgeStartTrigDigFltrMinPulseWidth@8
    9A0D4 __imp__DAQmxGetAnlgEdgeStartTrigDigFltrMinPulseWidth@8
    DA048 _DAQmxSetAnlgEdgeStartTrigDigFltrMinPulseWidth@12
    DA048 __imp__DAQmxSetAnlgEdgeStartTrigDigFltrMinPulseWidth@12
    C1A1A _DAQmxResetAnlgEdgeStartTrigDigFltrMinPulseWidth@4
    C1A1A __imp__DAQmxResetAnlgEdgeStartTrigDigFltrMinPulseWidth@4
    9A1EC _DAQmxGetAnlgEdgeStartTrigDigFltrTimebaseSrc@12
    9A1EC __imp__DAQmxGetAnlgEdgeStartTrigDigFltrTimebaseSrc@12
    DA162 _DAQmxSetAnlgEdgeStartTrigDigFltrTimebaseSrc@8
    DA162 __imp__DAQmxSetAnlgEdgeStartTrigDigFltrTimebaseSrc@8
    C1B36 _DAQmxResetAnlgEdgeStartTrigDigFltrTimebaseSrc@4
    C1B36 __imp__DAQmxResetAnlgEdgeStartTrigDigFltrTimebaseSrc@4
    9A160 _DAQmxGetAnlgEdgeStartTrigDigFltrTimebaseRate@8
    9A160 __imp__DAQmxGetAnlgEdgeStartTrigDigFltrTimebaseRate@8
    DA0D6 _DAQmxSetAnlgEdgeStartTrigDigFltrTimebaseRate@12
    DA0D6 __imp__DAQmxSetAnlgEdgeStartTrigDigFltrTimebaseRate@12
    C1AA8 _DAQmxResetAnlgEdgeStartTrigDigFltrTimebaseRate@4
    C1AA8 __imp__DAQmxResetAnlgEdgeStartTrigDigFltrTimebaseRate@4
    9A278 _DAQmxGetAnlgEdgeStartTrigDigSyncEnable@8
    9A278 __imp__DAQmxGetAnlgEdgeStartTrigDigSyncEnable@8
    DA1EC _DAQmxSetAnlgEdgeStartTrigDigSyncEnable@8
    DA1EC __imp__DAQmxSetAnlgEdgeStartTrigDigSyncEnable@8
    C1BC2 _DAQmxResetAnlgEdgeStartTrigDigSyncEnable@4
    C1BC2 __imp__DAQmxResetAnlgEdgeStartTrigDigSyncEnable@4
    9BC82 _DAQmxGetAnlgWinStartTrigSrc@12
    9BC82 __imp__DAQmxGetAnlgWinStartTrigSrc@12
    DB740 _DAQmxSetAnlgWinStartTrigSrc@8
    DB740 __imp__DAQmxSetAnlgWinStartTrigSrc@8
    C3154 _DAQmxResetAnlgWinStartTrigSrc@4
    C3154 __imp__DAQmxResetAnlgWinStartTrigSrc@4
    9BD78 _DAQmxGetAnlgWinStartTrigWhen@8
    9BD78 __imp__DAQmxGetAnlgWinStartTrigWhen@8
    DB836 _DAQmxSetAnlgWinStartTrigWhen@8
    DB836 __imp__DAQmxSetAnlgWinStartTrigWhen@8
    C324C _DAQmxResetAnlgWinStartTrigWhen@4
    C324C __imp__DAQmxResetAnlgWinStartTrigWhen@4
    9BCFE _DAQmxGetAnlgWinStartTrigTop@8
    9BCFE __imp__DAQmxGetAnlgWinStartTrigTop@8
    DB7BA _DAQmxSetAnlgWinStartTrigTop@12
    DB7BA __imp__DAQmxSetAnlgWinStartTrigTop@12
    C31D0 _DAQmxResetAnlgWinStartTrigTop@4
    C31D0 __imp__DAQmxResetAnlgWinStartTrigTop@4
    9B7D0 _DAQmxGetAnlgWinStartTrigBtm@8
    9B7D0 __imp__DAQmxGetAnlgWinStartTrigBtm@8
    DB39A _DAQmxSetAnlgWinStartTrigBtm@12
    DB39A __imp__DAQmxSetAnlgWinStartTrigBtm@12
    C2DA4 _DAQmxResetAnlgWinStartTrigBtm@4
    C2DA4 __imp__DAQmxResetAnlgWinStartTrigBtm@4
    9B84A _DAQmxGetAnlgWinStartTrigCoupling@8
    9B84A __imp__DAQmxGetAnlgWinStartTrigCoupling@8
    DB416 _DAQmxSetAnlgWinStartTrigCoupling@8
    DB416 __imp__DAQmxSetAnlgWinStartTrigCoupling@8
    C2E20 _DAQmxResetAnlgWinStartTrigCoupling@4
    C2E20 __imp__DAQmxResetAnlgWinStartTrigCoupling@4
    9B8CA _DAQmxGetAnlgWinStartTrigDigFltrEnable@8
    9B8CA __imp__DAQmxGetAnlgWinStartTrigDigFltrEnable@8
    DB496 _DAQmxSetAnlgWinStartTrigDigFltrEnable@8
    DB496 __imp__DAQmxSetAnlgWinStartTrigDigFltrEnable@8
    C2EA2 _DAQmxResetAnlgWinStartTrigDigFltrEnable@4
    C2EA2 __imp__DAQmxResetAnlgWinStartTrigDigFltrEnable@4
    9B9D6 _DAQmxGetAnlgWinStartTrigDigFltrMinPulseWidth@8
    9B9D6 __imp__DAQmxGetAnlgWinStartTrigDigFltrMinPulseWidth@8
    DB51A _DAQmxSetAnlgWinStartTrigDigFltrMinPulseWidth@12
    DB51A __imp__DAQmxSetAnlgWinStartTrigDigFltrMinPulseWidth@12
    C2F28 _DAQmxResetAnlgWinStartTrigDigFltrMinPulseWidth@4
    C2F28 __imp__DAQmxResetAnlgWinStartTrigDigFltrMinPulseWidth@4
    9BAEC _DAQmxGetAnlgWinStartTrigDigFltrTimebaseSrc@12
    9BAEC __imp__DAQmxGetAnlgWinStartTrigDigFltrTimebaseSrc@12
    DB632 _DAQmxSetAnlgWinStartTrigDigFltrTimebaseSrc@8
    DB632 __imp__DAQmxSetAnlgWinStartTrigDigFltrTimebaseSrc@8
    C3042 _DAQmxResetAnlgWinStartTrigDigFltrTimebaseSrc@4
    C3042 __imp__DAQmxResetAnlgWinStartTrigDigFltrTimebaseSrc@4
    9BA62 _DAQmxGetAnlgWinStartTrigDigFltrTimebaseRate@8
    9BA62 __imp__DAQmxGetAnlgWinStartTrigDigFltrTimebaseRate@8
    DB5A6 _DAQmxSetAnlgWinStartTrigDigFltrTimebaseRate@12
    DB5A6 __imp__DAQmxSetAnlgWinStartTrigDigFltrTimebaseRate@12
    C2FB6 _DAQmxResetAnlgWinStartTrigDigFltrTimebaseRate@4
    C2FB6 __imp__DAQmxResetAnlgWinStartTrigDigFltrTimebaseRate@4
    9BB76 _DAQmxGetAnlgWinStartTrigDigSyncEnable@8
    9BB76 __imp__DAQmxGetAnlgWinStartTrigDigSyncEnable@8
    DB6BC _DAQmxSetAnlgWinStartTrigDigSyncEnable@8
    DB6BC __imp__DAQmxSetAnlgWinStartTrigDigSyncEnable@8
    C30CE _DAQmxResetAnlgWinStartTrigDigSyncEnable@4
    C30CE __imp__DAQmxResetAnlgWinStartTrigDigSyncEnable@4
    B472A _DAQmxGetStartTrigDelay@8
    B472A __imp__DAQmxGetStartTrigDelay@8
    EAB92 _DAQmxSetStartTrigDelay@12
    EAB92 __imp__DAQmxSetStartTrigDelay@12
    D1ADE _DAQmxResetStartTrigDelay@4
    D1ADE __imp__DAQmxResetStartTrigDelay@4
    B47A0 _DAQmxGetStartTrigDelayUnits@8
    B47A0 __imp__DAQmxGetStartTrigDelayUnits@8
    EAC08 _DAQmxSetStartTrigDelayUnits@8
    EAC08 __imp__DAQmxSetStartTrigDelayUnits@8
    D1B56 _DAQmxResetStartTrigDelayUnits@4
    D1B56 __imp__DAQmxResetStartTrigDelayUnits@4
    B481A _DAQmxGetStartTrigRetriggerable@8
    B481A __imp__DAQmxGetStartTrigRetriggerable@8
    EAC82 _DAQmxSetStartTrigRetriggerable@8
    EAC82 __imp__DAQmxSetStartTrigRetriggerable@8
    D1BD2 _DAQmxResetStartTrigRetriggerable@4
    D1BD2 __imp__DAQmxResetStartTrigRetriggerable@4
    B2F9E _DAQmxGetRefTrigType@8
    B2F9E __imp__DAQmxGetRefTrigType@8
    E98C0 _DAQmxSetRefTrigType@8
    E98C0 __imp__DAQmxSetRefTrigType@8
    D100C _DAQmxResetRefTrigType@4
    D100C __imp__DAQmxResetRefTrigType@4
    B2EAE _DAQmxGetRefTrigPretrigSamples@8
    B2EAE __imp__DAQmxGetRefTrigPretrigSamples@8
    E9844 _DAQmxSetRefTrigPretrigSamples@8
    E9844 __imp__DAQmxSetRefTrigPretrigSamples@8
    D0F8E _DAQmxResetRefTrigPretrigSamples@4
    D0F8E __imp__DAQmxResetRefTrigPretrigSamples@4
    B2F2A _DAQmxGetRefTrigTerm@12
    B2F2A __imp__DAQmxGetRefTrigTerm@12
    AB6DA _DAQmxGetDigEdgeRefTrigSrc@12
    AB6DA __imp__DAQmxGetDigEdgeRefTrigSrc@12
    E5A98 _DAQmxSetDigEdgeRefTrigSrc@8
    E5A98 __imp__DAQmxSetDigEdgeRefTrigSrc@8
    CD484 _DAQmxResetDigEdgeRefTrigSrc@4
    CD484 __imp__DAQmxResetDigEdgeRefTrigSrc@4
    AB660 _DAQmxGetDigEdgeRefTrigEdge@8
    AB660 __imp__DAQmxGetDigEdgeRefTrigEdge@8
    E5A1E _DAQmxSetDigEdgeRefTrigEdge@8
    E5A1E __imp__DAQmxSetDigEdgeRefTrigEdge@8
    CD408 _DAQmxResetDigEdgeRefTrigEdge@4
    CD408 __imp__DAQmxResetDigEdgeRefTrigEdge@4
    AB2B6 _DAQmxGetDigEdgeRefTrigDigFltrEnable@8
    AB2B6 __imp__DAQmxGetDigEdgeRefTrigDigFltrEnable@8
    E577E _DAQmxSetDigEdgeRefTrigDigFltrEnable@8
    E577E __imp__DAQmxSetDigEdgeRefTrigDigFltrEnable@8
    CD160 _DAQmxResetDigEdgeRefTrigDigFltrEnable@4
    CD160 __imp__DAQmxResetDigEdgeRefTrigDigFltrEnable@4
    AB3BE _DAQmxGetDigEdgeRefTrigDigFltrMinPulseWidth@8
    AB3BE __imp__DAQmxGetDigEdgeRefTrigDigFltrMinPulseWidth@8
    E5800 _DAQmxSetDigEdgeRefTrigDigFltrMinPulseWidth@12
    E5800 __imp__DAQmxSetDigEdgeRefTrigDigFltrMinPulseWidth@12
    CD1E4 _DAQmxResetDigEdgeRefTrigDigFltrMinPulseWidth@4
    CD1E4 __imp__DAQmxResetDigEdgeRefTrigDigFltrMinPulseWidth@4
    AB4D0 _DAQmxGetDigEdgeRefTrigDigFltrTimebaseSrc@12
    AB4D0 __imp__DAQmxGetDigEdgeRefTrigDigFltrTimebaseSrc@12
    E5914 _DAQmxSetDigEdgeRefTrigDigFltrTimebaseSrc@8
    E5914 __imp__DAQmxSetDigEdgeRefTrigDigFltrTimebaseSrc@8
    CD2FA _DAQmxResetDigEdgeRefTrigDigFltrTimebaseSrc@4
    CD2FA __imp__DAQmxResetDigEdgeRefTrigDigFltrTimebaseSrc@4
    AB448 _DAQmxGetDigEdgeRefTrigDigFltrTimebaseRate@8
    AB448 __imp__DAQmxGetDigEdgeRefTrigDigFltrTimebaseRate@8
    E588A _DAQmxSetDigEdgeRefTrigDigFltrTimebaseRate@12
    E588A __imp__DAQmxSetDigEdgeRefTrigDigFltrTimebaseRate@12
    CD270 _DAQmxResetDigEdgeRefTrigDigFltrTimebaseRate@4
    CD270 __imp__DAQmxResetDigEdgeRefTrigDigFltrTimebaseRate@4
    AB558 _DAQmxGetDigEdgeRefTrigDigSyncEnable@8
    AB558 __imp__DAQmxGetDigEdgeRefTrigDigSyncEnable@8
    E599C _DAQmxSetDigEdgeRefTrigDigSyncEnable@8
    E599C __imp__DAQmxSetDigEdgeRefTrigDigSyncEnable@8
    CD384 _DAQmxResetDigEdgeRefTrigDigSyncEnable@4
    CD384 __imp__DAQmxResetDigEdgeRefTrigDigSyncEnable@4
    AC3B4 _DAQmxGetDigPatternRefTrigSrc@12
    AC3B4 __imp__DAQmxGetDigPatternRefTrigSrc@12
    E654E _DAQmxSetDigPatternRefTrigSrc@8
    E654E __imp__DAQmxSetDigPatternRefTrigSrc@8
    CDF60 _DAQmxResetDigPatternRefTrigSrc@4
    CDF60 __imp__DAQmxResetDigPatternRefTrigSrc@4
    AC334 _DAQmxGetDigPatternRefTrigPattern@12
    AC334 __imp__DAQmxGetDigPatternRefTrigPattern@12
    E64CE _DAQmxSetDigPatternRefTrigPattern@8
    E64CE __imp__DAQmxSetDigPatternRefTrigPattern@8
    CDEDE _DAQmxResetDigPatternRefTrigPattern@4
    CDEDE __imp__DAQmxResetDigPatternRefTrigPattern@4
    AC430 _DAQmxGetDigPatternRefTrigWhen@8
    AC430 __imp__DAQmxGetDigPatternRefTrigWhen@8
    E65CA _DAQmxSetDigPatternRefTrigWhen@8
    E65CA __imp__DAQmxSetDigPatternRefTrigWhen@8
    CDFDE _DAQmxResetDigPatternRefTrigWhen@4
    CDFDE __imp__DAQmxResetDigPatternRefTrigWhen@4
    99ECA _DAQmxGetAnlgEdgeRefTrigSrc@12
    99ECA __imp__DAQmxGetAnlgEdgeRefTrigSrc@12
    D9EC8 _DAQmxSetAnlgEdgeRefTrigSrc@8
    D9EC8 __imp__DAQmxSetAnlgEdgeRefTrigSrc@8
    C1894 _DAQmxResetAnlgEdgeRefTrigSrc@4
    C1894 __imp__DAQmxResetAnlgEdgeRefTrigSrc@4
    99E4E _DAQmxGetAnlgEdgeRefTrigSlope@8
    99E4E __imp__DAQmxGetAnlgEdgeRefTrigSlope@8
    D9E4C _DAQmxSetAnlgEdgeRefTrigSlope@8
    D9E4C __imp__DAQmxSetAnlgEdgeRefTrigSlope@8
    C1816 _DAQmxResetAnlgEdgeRefTrigSlope@4
    C1816 __imp__DAQmxResetAnlgEdgeRefTrigSlope@4
    99DD4 _DAQmxGetAnlgEdgeRefTrigLvl@8
    99DD4 __imp__DAQmxGetAnlgEdgeRefTrigLvl@8
    D9DD2 _DAQmxSetAnlgEdgeRefTrigLvl@12
    D9DD2 __imp__DAQmxSetAnlgEdgeRefTrigLvl@12
    C179A _DAQmxResetAnlgEdgeRefTrigLvl@4
    C179A __imp__DAQmxResetAnlgEdgeRefTrigLvl@4
    99D5A _DAQmxGetAnlgEdgeRefTrigHyst@8
    99D5A __imp__DAQmxGetAnlgEdgeRefTrigHyst@8
    D9D56 _DAQmxSetAnlgEdgeRefTrigHyst@12
    D9D56 __imp__DAQmxSetAnlgEdgeRefTrigHyst@12
    C171E _DAQmxResetAnlgEdgeRefTrigHyst@4
    C171E __imp__DAQmxResetAnlgEdgeRefTrigHyst@4
    99926 _DAQmxGetAnlgEdgeRefTrigCoupling@8
    99926 __imp__DAQmxGetAnlgEdgeRefTrigCoupling@8
    D9A32 _DAQmxSetAnlgEdgeRefTrigCoupling@8
    D9A32 __imp__DAQmxSetAnlgEdgeRefTrigCoupling@8
    C13F0 _DAQmxResetAnlgEdgeRefTrigCoupling@4
    C13F0 __imp__DAQmxResetAnlgEdgeRefTrigCoupling@4
    999A4 _DAQmxGetAnlgEdgeRefTrigDigFltrEnable@8
    999A4 __imp__DAQmxGetAnlgEdgeRefTrigDigFltrEnable@8
    D9AB0 _DAQmxSetAnlgEdgeRefTrigDigFltrEnable@8
    D9AB0 __imp__DAQmxSetAnlgEdgeRefTrigDigFltrEnable@8
    C1470 _DAQmxResetAnlgEdgeRefTrigDigFltrEnable@4
    C1470 __imp__DAQmxResetAnlgEdgeRefTrigDigFltrEnable@4
    99AB0 _DAQmxGetAnlgEdgeRefTrigDigFltrMinPulseWidth@8
    99AB0 __imp__DAQmxGetAnlgEdgeRefTrigDigFltrMinPulseWidth@8
    D9B34 _DAQmxSetAnlgEdgeRefTrigDigFltrMinPulseWidth@12
    D9B34 __imp__DAQmxSetAnlgEdgeRefTrigDigFltrMinPulseWidth@12
    C14F6 _DAQmxResetAnlgEdgeRefTrigDigFltrMinPulseWidth@4
    C14F6 __imp__DAQmxResetAnlgEdgeRefTrigDigFltrMinPulseWidth@4
    99BC4 _DAQmxGetAnlgEdgeRefTrigDigFltrTimebaseSrc@12
    99BC4 __imp__DAQmxGetAnlgEdgeRefTrigDigFltrTimebaseSrc@12
    D9C4A _DAQmxSetAnlgEdgeRefTrigDigFltrTimebaseSrc@8
    D9C4A __imp__DAQmxSetAnlgEdgeRefTrigDigFltrTimebaseSrc@8
    C160E _DAQmxResetAnlgEdgeRefTrigDigFltrTimebaseSrc@4
    C160E __imp__DAQmxResetAnlgEdgeRefTrigDigFltrTimebaseSrc@4
    99B3A _DAQmxGetAnlgEdgeRefTrigDigFltrTimebaseRate@8
    99B3A __imp__DAQmxGetAnlgEdgeRefTrigDigFltrTimebaseRate@8
    D9BC0 _DAQmxSetAnlgEdgeRefTrigDigFltrTimebaseRate@12
    D9BC0 __imp__DAQmxSetAnlgEdgeRefTrigDigFltrTimebaseRate@12
    C1582 _DAQmxResetAnlgEdgeRefTrigDigFltrTimebaseRate@4
    C1582 __imp__DAQmxResetAnlgEdgeRefTrigDigFltrTimebaseRate@4
    99C4E _DAQmxGetAnlgEdgeRefTrigDigSyncEnable@8
    99C4E __imp__DAQmxGetAnlgEdgeRefTrigDigSyncEnable@8
    D9CD2 _DAQmxSetAnlgEdgeRefTrigDigSyncEnable@8
    D9CD2 __imp__DAQmxSetAnlgEdgeRefTrigDigSyncEnable@8
    C1698 _DAQmxResetAnlgEdgeRefTrigDigSyncEnable@4
    C1698 __imp__DAQmxResetAnlgEdgeRefTrigDigSyncEnable@4
    9B664 _DAQmxGetAnlgWinRefTrigSrc@12
    9B664 __imp__DAQmxGetAnlgWinRefTrigSrc@12
    DB22E _DAQmxSetAnlgWinRefTrigSrc@8
    DB22E __imp__DAQmxSetAnlgWinRefTrigSrc@8
    C2C34 _DAQmxResetAnlgWinRefTrigSrc@4
    C2C34 __imp__DAQmxResetAnlgWinRefTrigSrc@4
    9B756 _DAQmxGetAnlgWinRefTrigWhen@8
    9B756 __imp__DAQmxGetAnlgWinRefTrigWhen@8
    DB320 _DAQmxSetAnlgWinRefTrigWhen@8
    DB320 __imp__DAQmxSetAnlgWinRefTrigWhen@8
    C2D28 _DAQmxResetAnlgWinRefTrigWhen@4
    C2D28 __imp__DAQmxResetAnlgWinRefTrigWhen@4
    9B6DE _DAQmxGetAnlgWinRefTrigTop@8
    9B6DE __imp__DAQmxGetAnlgWinRefTrigTop@8
    DB2A6 _DAQmxSetAnlgWinRefTrigTop@12
    DB2A6 __imp__DAQmxSetAnlgWinRefTrigTop@12
    C2CAE _DAQmxResetAnlgWinRefTrigTop@4
    C2CAE __imp__DAQmxResetAnlgWinRefTrigTop@4
    9B1C4 _DAQmxGetAnlgWinRefTrigBtm@8
    9B1C4 __imp__DAQmxGetAnlgWinRefTrigBtm@8
    DAE96 _DAQmxSetAnlgWinRefTrigBtm@12
    DAE96 __imp__DAQmxSetAnlgWinRefTrigBtm@12
    C2892 _DAQmxResetAnlgWinRefTrigBtm@4
    C2892 __imp__DAQmxResetAnlgWinRefTrigBtm@4
    9B23C _DAQmxGetAnlgWinRefTrigCoupling@8
    9B23C __imp__DAQmxGetAnlgWinRefTrigCoupling@8
    DAF10 _DAQmxSetAnlgWinRefTrigCoupling@8
    DAF10 __imp__DAQmxSetAnlgWinRefTrigCoupling@8
    C290C _DAQmxResetAnlgWinRefTrigCoupling@4
    C290C __imp__DAQmxResetAnlgWinRefTrigCoupling@4
    9B2BA _DAQmxGetAnlgWinRefTrigDigFltrEnable@8
    9B2BA __imp__DAQmxGetAnlgWinRefTrigDigFltrEnable@8
    DAF8E _DAQmxSetAnlgWinRefTrigDigFltrEnable@8
    DAF8E __imp__DAQmxSetAnlgWinRefTrigDigFltrEnable@8
    C298C _DAQmxResetAnlgWinRefTrigDigFltrEnable@4
    C298C __imp__DAQmxResetAnlgWinRefTrigDigFltrEnable@4
    9B3C2 _DAQmxGetAnlgWinRefTrigDigFltrMinPulseWidth@8
    9B3C2 __imp__DAQmxGetAnlgWinRefTrigDigFltrMinPulseWidth@8
    DB010 _DAQmxSetAnlgWinRefTrigDigFltrMinPulseWidth@12
    DB010 __imp__DAQmxSetAnlgWinRefTrigDigFltrMinPulseWidth@12
    C2A10 _DAQmxResetAnlgWinRefTrigDigFltrMinPulseWidth@4
    C2A10 __imp__DAQmxResetAnlgWinRefTrigDigFltrMinPulseWidth@4
    9B4D4 _DAQmxGetAnlgWinRefTrigDigFltrTimebaseSrc@12
    9B4D4 __imp__DAQmxGetAnlgWinRefTrigDigFltrTimebaseSrc@12
    DB124 _DAQmxSetAnlgWinRefTrigDigFltrTimebaseSrc@8
    DB124 __imp__DAQmxSetAnlgWinRefTrigDigFltrTimebaseSrc@8
    C2B26 _DAQmxResetAnlgWinRefTrigDigFltrTimebaseSrc@4
    C2B26 __imp__DAQmxResetAnlgWinRefTrigDigFltrTimebaseSrc@4
    9B44C _DAQmxGetAnlgWinRefTrigDigFltrTimebaseRate@8
    9B44C __imp__DAQmxGetAnlgWinRefTrigDigFltrTimebaseRate@8
    DB09A _DAQmxSetAnlgWinRefTrigDigFltrTimebaseRate@12
    DB09A __imp__DAQmxSetAnlgWinRefTrigDigFltrTimebaseRate@12
    C2A9C _DAQmxResetAnlgWinRefTrigDigFltrTimebaseRate@4
    C2A9C __imp__DAQmxResetAnlgWinRefTrigDigFltrTimebaseRate@4
    9B55C _DAQmxGetAnlgWinRefTrigDigSyncEnable@8
    9B55C __imp__DAQmxGetAnlgWinRefTrigDigSyncEnable@8
    DB1AC _DAQmxSetAnlgWinRefTrigDigSyncEnable@8
    DB1AC __imp__DAQmxSetAnlgWinRefTrigDigSyncEnable@8
    C2BB0 _DAQmxResetAnlgWinRefTrigDigSyncEnable@4
    C2BB0 __imp__DAQmxResetAnlgWinRefTrigDigSyncEnable@4
    B2C42 _DAQmxGetRefTrigAutoTrigEnable@8
    B2C42 __imp__DAQmxGetRefTrigAutoTrigEnable@8
    E9754 _DAQmxSetRefTrigAutoTrigEnable@8
    E9754 __imp__DAQmxSetRefTrigAutoTrigEnable@8
    D0E9A _DAQmxResetRefTrigAutoTrigEnable@4
    D0E9A __imp__DAQmxResetRefTrigAutoTrigEnable@4
    B2D3E _DAQmxGetRefTrigAutoTriggered@8
    B2D3E __imp__DAQmxGetRefTrigAutoTriggered@8
    B2E3A _DAQmxGetRefTrigDelay@8
    B2E3A __imp__DAQmxGetRefTrigDelay@8
    E97D0 _DAQmxSetRefTrigDelay@12
    E97D0 __imp__DAQmxSetRefTrigDelay@12
    D0F18 _DAQmxResetRefTrigDelay@4
    D0F18 __imp__DAQmxResetRefTrigDelay@4
    997B6 _DAQmxGetAdvTrigType@8
    997B6 __imp__DAQmxGetAdvTrigType@8
    D9842 _DAQmxSetAdvTrigType@8
    D9842 __imp__DAQmxSetAdvTrigType@8
    C137C _DAQmxResetAdvTrigType@4
    C137C __imp__DAQmxResetAdvTrigType@4
    AAD6E _DAQmxGetDigEdgeAdvTrigSrc@12
    AAD6E __imp__DAQmxGetDigEdgeAdvTrigSrc@12
    E5350 _DAQmxSetDigEdgeAdvTrigSrc@8
    E5350 __imp__DAQmxSetDigEdgeAdvTrigSrc@8
    CCD24 _DAQmxResetDigEdgeAdvTrigSrc@4
    CCD24 __imp__DAQmxResetDigEdgeAdvTrigSrc@4
    AACF4 _DAQmxGetDigEdgeAdvTrigEdge@8
    AACF4 __imp__DAQmxGetDigEdgeAdvTrigEdge@8
    E52D6 _DAQmxSetDigEdgeAdvTrigEdge@8
    E52D6 __imp__DAQmxSetDigEdgeAdvTrigEdge@8
    CCCA8 _DAQmxResetDigEdgeAdvTrigEdge@4
    CCCA8 __imp__DAQmxResetDigEdgeAdvTrigEdge@4
    AABEC _DAQmxGetDigEdgeAdvTrigDigFltrEnable@8
    AABEC __imp__DAQmxGetDigEdgeAdvTrigDigFltrEnable@8
    E5254 _DAQmxSetDigEdgeAdvTrigDigFltrEnable@8
    E5254 __imp__DAQmxSetDigEdgeAdvTrigDigFltrEnable@8
    CCC24 _DAQmxResetDigEdgeAdvTrigDigFltrEnable@4
    CCC24 __imp__DAQmxResetDigEdgeAdvTrigDigFltrEnable@4
    AE788 _DAQmxGetHshkTrigType@8
    AE788 __imp__DAQmxGetHshkTrigType@8
    E850E _DAQmxSetHshkTrigType@8
    E850E __imp__DAQmxSetHshkTrigType@8
    CFD8C _DAQmxResetHshkTrigType@4
    CFD8C __imp__DAQmxResetHshkTrigType@4
    AE902 _DAQmxGetInterlockedHshkTrigSrc@12
    AE902 __imp__DAQmxGetInterlockedHshkTrigSrc@12
    E8688 _DAQmxSetInterlockedHshkTrigSrc@8
    E8688 __imp__DAQmxSetInterlockedHshkTrigSrc@8
    CFF0C _DAQmxResetInterlockedHshkTrigSrc@4
    CFF0C __imp__DAQmxResetInterlockedHshkTrigSrc@4
    AE87C _DAQmxGetInterlockedHshkTrigAssertedLvl@8
    AE87C __imp__DAQmxGetInterlockedHshkTrigAssertedLvl@8
    E8602 _DAQmxSetInterlockedHshkTrigAssertedLvl@8
    E8602 __imp__DAQmxSetInterlockedHshkTrigAssertedLvl@8
    CFE84 _DAQmxResetInterlockedHshkTrigAssertedLvl@4
    CFE84 __imp__DAQmxResetInterlockedHshkTrigAssertedLvl@4
    AF32C _DAQmxGetPauseTrigType@8
    AF32C __imp__DAQmxGetPauseTrigType@8
    E8DD4 _DAQmxSetPauseTrigType@8
    E8DD4 __imp__DAQmxSetPauseTrigType@8
    D056A _DAQmxResetPauseTrigType@4
    D056A __imp__DAQmxResetPauseTrigType@4
    AF2B6 _DAQmxGetPauseTrigTerm@12
    AF2B6 __imp__DAQmxGetPauseTrigTerm@12
    9AAA8 _DAQmxGetAnlgLvlPauseTrigSrc@12
    9AAA8 __imp__DAQmxGetAnlgLvlPauseTrigSrc@12
    DA888 _DAQmxSetAnlgLvlPauseTrigSrc@8
    DA888 __imp__DAQmxSetAnlgLvlPauseTrigSrc@8
    C2272 _DAQmxResetAnlgLvlPauseTrigSrc@4
    C2272 __imp__DAQmxResetAnlgLvlPauseTrigSrc@4
    9AB24 _DAQmxGetAnlgLvlPauseTrigWhen@8
    9AB24 __imp__DAQmxGetAnlgLvlPauseTrigWhen@8
    DA902 _DAQmxSetAnlgLvlPauseTrigWhen@8
    DA902 __imp__DAQmxSetAnlgLvlPauseTrigWhen@8
    C22EE _DAQmxResetAnlgLvlPauseTrigWhen@4
    C22EE __imp__DAQmxResetAnlgLvlPauseTrigWhen@4
    9AA2E _DAQmxGetAnlgLvlPauseTrigLvl@8
    9AA2E __imp__DAQmxGetAnlgLvlPauseTrigLvl@8
    DA80C _DAQmxSetAnlgLvlPauseTrigLvl@12
    DA80C __imp__DAQmxSetAnlgLvlPauseTrigLvl@12
    C21F6 _DAQmxResetAnlgLvlPauseTrigLvl@4
    C21F6 __imp__DAQmxResetAnlgLvlPauseTrigLvl@4
    9A9B2 _DAQmxGetAnlgLvlPauseTrigHyst@8
    9A9B2 __imp__DAQmxGetAnlgLvlPauseTrigHyst@8
    DA790 _DAQmxSetAnlgLvlPauseTrigHyst@12
    DA790 __imp__DAQmxSetAnlgLvlPauseTrigHyst@12
    C2178 _DAQmxResetAnlgLvlPauseTrigHyst@4
    C2178 __imp__DAQmxResetAnlgLvlPauseTrigHyst@4
    9A57A _DAQmxGetAnlgLvlPauseTrigCoupling@8
    9A57A __imp__DAQmxGetAnlgLvlPauseTrigCoupling@8
    DA466 _DAQmxSetAnlgLvlPauseTrigCoupling@8
    DA466 __imp__DAQmxSetAnlgLvlPauseTrigCoupling@8
    C1E44 _DAQmxResetAnlgLvlPauseTrigCoupling@4
    C1E44 __imp__DAQmxResetAnlgLvlPauseTrigCoupling@4
    9A5FA _DAQmxGetAnlgLvlPauseTrigDigFltrEnable@8
    9A5FA __imp__DAQmxGetAnlgLvlPauseTrigDigFltrEnable@8
    DA4E6 _DAQmxSetAnlgLvlPauseTrigDigFltrEnable@8
    DA4E6 __imp__DAQmxSetAnlgLvlPauseTrigDigFltrEnable@8
    C1EC6 _DAQmxResetAnlgLvlPauseTrigDigFltrEnable@4
    C1EC6 __imp__DAQmxResetAnlgLvlPauseTrigDigFltrEnable@4
    9A706 _DAQmxGetAnlgLvlPauseTrigDigFltrMinPulseWidth@8
    9A706 __imp__DAQmxGetAnlgLvlPauseTrigDigFltrMinPulseWidth@8
    DA56A _DAQmxSetAnlgLvlPauseTrigDigFltrMinPulseWidth@12
    DA56A __imp__DAQmxSetAnlgLvlPauseTrigDigFltrMinPulseWidth@12
    C1F4C _DAQmxResetAnlgLvlPauseTrigDigFltrMinPulseWidth@4
    C1F4C __imp__DAQmxResetAnlgLvlPauseTrigDigFltrMinPulseWidth@4
    9A81C _DAQmxGetAnlgLvlPauseTrigDigFltrTimebaseSrc@12
    9A81C __imp__DAQmxGetAnlgLvlPauseTrigDigFltrTimebaseSrc@12
    DA682 _DAQmxSetAnlgLvlPauseTrigDigFltrTimebaseSrc@8
    DA682 __imp__DAQmxSetAnlgLvlPauseTrigDigFltrTimebaseSrc@8
    C2066 _DAQmxResetAnlgLvlPauseTrigDigFltrTimebaseSrc@4
    C2066 __imp__DAQmxResetAnlgLvlPauseTrigDigFltrTimebaseSrc@4
    9A792 _DAQmxGetAnlgLvlPauseTrigDigFltrTimebaseRate@8
    9A792 __imp__DAQmxGetAnlgLvlPauseTrigDigFltrTimebaseRate@8
    DA5F6 _DAQmxSetAnlgLvlPauseTrigDigFltrTimebaseRate@12
    DA5F6 __imp__DAQmxSetAnlgLvlPauseTrigDigFltrTimebaseRate@12
    C1FDA _DAQmxResetAnlgLvlPauseTrigDigFltrTimebaseRate@4
    C1FDA __imp__DAQmxResetAnlgLvlPauseTrigDigFltrTimebaseRate@4
    9A8A6 _DAQmxGetAnlgLvlPauseTrigDigSyncEnable@8
    9A8A6 __imp__DAQmxGetAnlgLvlPauseTrigDigSyncEnable@8
    DA70C _DAQmxSetAnlgLvlPauseTrigDigSyncEnable@8
    DA70C __imp__DAQmxSetAnlgLvlPauseTrigDigSyncEnable@8
    C20F2 _DAQmxResetAnlgLvlPauseTrigDigSyncEnable@4
    C20F2 __imp__DAQmxResetAnlgLvlPauseTrigDigSyncEnable@4
    9B052 _DAQmxGetAnlgWinPauseTrigSrc@12
    9B052 __imp__DAQmxGetAnlgWinPauseTrigSrc@12
    DAD24 _DAQmxSetAnlgWinPauseTrigSrc@8
    DAD24 __imp__DAQmxSetAnlgWinPauseTrigSrc@8
    C271C _DAQmxResetAnlgWinPauseTrigSrc@4
    C271C __imp__DAQmxResetAnlgWinPauseTrigSrc@4
    9B148 _DAQmxGetAnlgWinPauseTrigWhen@8
    9B148 __imp__DAQmxGetAnlgWinPauseTrigWhen@8
    DAE1A _DAQmxSetAnlgWinPauseTrigWhen@8
    DAE1A __imp__DAQmxSetAnlgWinPauseTrigWhen@8
    C2814 _DAQmxResetAnlgWinPauseTrigWhen@4
    C2814 __imp__DAQmxResetAnlgWinPauseTrigWhen@4
    9B0CE _DAQmxGetAnlgWinPauseTrigTop@8
    9B0CE __imp__DAQmxGetAnlgWinPauseTrigTop@8
    DAD9E _DAQmxSetAnlgWinPauseTrigTop@12
    DAD9E __imp__DAQmxSetAnlgWinPauseTrigTop@12
    C2798 _DAQmxResetAnlgWinPauseTrigTop@4
    C2798 __imp__DAQmxResetAnlgWinPauseTrigTop@4
    9ABA0 _DAQmxGetAnlgWinPauseTrigBtm@8
    9ABA0 __imp__DAQmxGetAnlgWinPauseTrigBtm@8
    DA97E _DAQmxSetAnlgWinPauseTrigBtm@12
    DA97E __imp__DAQmxSetAnlgWinPauseTrigBtm@12
    C236C _DAQmxResetAnlgWinPauseTrigBtm@4
    C236C __imp__DAQmxResetAnlgWinPauseTrigBtm@4
    9AC1A _DAQmxGetAnlgWinPauseTrigCoupling@8
    9AC1A __imp__DAQmxGetAnlgWinPauseTrigCoupling@8
    DA9FA _DAQmxSetAnlgWinPauseTrigCoupling@8
    DA9FA __imp__DAQmxSetAnlgWinPauseTrigCoupling@8
    C23E8 _DAQmxResetAnlgWinPauseTrigCoupling@4
    C23E8 __imp__DAQmxResetAnlgWinPauseTrigCoupling@4
    9AC9A _DAQmxGetAnlgWinPauseTrigDigFltrEnable@8
    9AC9A __imp__DAQmxGetAnlgWinPauseTrigDigFltrEnable@8
    DAA7A _DAQmxSetAnlgWinPauseTrigDigFltrEnable@8
    DAA7A __imp__DAQmxSetAnlgWinPauseTrigDigFltrEnable@8
    C246A _DAQmxResetAnlgWinPauseTrigDigFltrEnable@4
    C246A __imp__DAQmxResetAnlgWinPauseTrigDigFltrEnable@4
    9ADA6 _DAQmxGetAnlgWinPauseTrigDigFltrMinPulseWidth@8
    9ADA6 __imp__DAQmxGetAnlgWinPauseTrigDigFltrMinPulseWidth@8
    DAAFE _DAQmxSetAnlgWinPauseTrigDigFltrMinPulseWidth@12
    DAAFE __imp__DAQmxSetAnlgWinPauseTrigDigFltrMinPulseWidth@12
    C24F0 _DAQmxResetAnlgWinPauseTrigDigFltrMinPulseWidth@4
    C24F0 __imp__DAQmxResetAnlgWinPauseTrigDigFltrMinPulseWidth@4
    9AEBC _DAQmxGetAnlgWinPauseTrigDigFltrTimebaseSrc@12
    9AEBC __imp__DAQmxGetAnlgWinPauseTrigDigFltrTimebaseSrc@12
    DAC16 _DAQmxSetAnlgWinPauseTrigDigFltrTimebaseSrc@8
    DAC16 __imp__DAQmxSetAnlgWinPauseTrigDigFltrTimebaseSrc@8
    C260A _DAQmxResetAnlgWinPauseTrigDigFltrTimebaseSrc@4
    C260A __imp__DAQmxResetAnlgWinPauseTrigDigFltrTimebaseSrc@4
    9AE32 _DAQmxGetAnlgWinPauseTrigDigFltrTimebaseRate@8
    9AE32 __imp__DAQmxGetAnlgWinPauseTrigDigFltrTimebaseRate@8
    DAB8A _DAQmxSetAnlgWinPauseTrigDigFltrTimebaseRate@12
    DAB8A __imp__DAQmxSetAnlgWinPauseTrigDigFltrTimebaseRate@12
    C257E _DAQmxResetAnlgWinPauseTrigDigFltrTimebaseRate@4
    C257E __imp__DAQmxResetAnlgWinPauseTrigDigFltrTimebaseRate@4
    9AF46 _DAQmxGetAnlgWinPauseTrigDigSyncEnable@8
    9AF46 __imp__DAQmxGetAnlgWinPauseTrigDigSyncEnable@8
    DACA0 _DAQmxSetAnlgWinPauseTrigDigSyncEnable@8
    DACA0 __imp__DAQmxSetAnlgWinPauseTrigDigSyncEnable@8
    C2696 _DAQmxResetAnlgWinPauseTrigDigSyncEnable@4
    C2696 __imp__DAQmxResetAnlgWinPauseTrigDigSyncEnable@4
    AC0C2 _DAQmxGetDigLvlPauseTrigSrc@12
    AC0C2 __imp__DAQmxGetDigLvlPauseTrigSrc@12
    E625C _DAQmxSetDigLvlPauseTrigSrc@8
    E625C __imp__DAQmxSetDigLvlPauseTrigSrc@8
    CDC62 _DAQmxResetDigLvlPauseTrigSrc@4
    CDC62 __imp__DAQmxResetDigLvlPauseTrigSrc@4
    AC13C _DAQmxGetDigLvlPauseTrigWhen@8
    AC13C __imp__DAQmxGetDigLvlPauseTrigWhen@8
    E62D6 _DAQmxSetDigLvlPauseTrigWhen@8
    E62D6 __imp__DAQmxSetDigLvlPauseTrigWhen@8
    CDCDE _DAQmxResetDigLvlPauseTrigWhen@4
    CDCDE __imp__DAQmxResetDigLvlPauseTrigWhen@4
    ABD0C _DAQmxGetDigLvlPauseTrigDigFltrEnable@8
    ABD0C __imp__DAQmxGetDigLvlPauseTrigDigFltrEnable@8
    E5FB6 _DAQmxSetDigLvlPauseTrigDigFltrEnable@8
    E5FB6 __imp__DAQmxSetDigLvlPauseTrigDigFltrEnable@8
    CD9B4 _DAQmxResetDigLvlPauseTrigDigFltrEnable@4
    CD9B4 __imp__DAQmxResetDigLvlPauseTrigDigFltrEnable@4
    ABE18 _DAQmxGetDigLvlPauseTrigDigFltrMinPulseWidth@8
    ABE18 __imp__DAQmxGetDigLvlPauseTrigDigFltrMinPulseWidth@8
    E603A _DAQmxSetDigLvlPauseTrigDigFltrMinPulseWidth@12
    E603A __imp__DAQmxSetDigLvlPauseTrigDigFltrMinPulseWidth@12
    CDA3A _DAQmxResetDigLvlPauseTrigDigFltrMinPulseWidth@4
    CDA3A __imp__DAQmxResetDigLvlPauseTrigDigFltrMinPulseWidth@4
    ABF2C _DAQmxGetDigLvlPauseTrigDigFltrTimebaseSrc@12
    ABF2C __imp__DAQmxGetDigLvlPauseTrigDigFltrTimebaseSrc@12
    E6150 _DAQmxSetDigLvlPauseTrigDigFltrTimebaseSrc@8
    E6150 __imp__DAQmxSetDigLvlPauseTrigDigFltrTimebaseSrc@8
    CDB52 _DAQmxResetDigLvlPauseTrigDigFltrTimebaseSrc@4
    CDB52 __imp__DAQmxResetDigLvlPauseTrigDigFltrTimebaseSrc@4
    ABEA2 _DAQmxGetDigLvlPauseTrigDigFltrTimebaseRate@8
    ABEA2 __imp__DAQmxGetDigLvlPauseTrigDigFltrTimebaseRate@8
    E60C6 _DAQmxSetDigLvlPauseTrigDigFltrTimebaseRate@12
    E60C6 __imp__DAQmxSetDigLvlPauseTrigDigFltrTimebaseRate@12
    CDAC6 _DAQmxResetDigLvlPauseTrigDigFltrTimebaseRate@4
    CDAC6 __imp__DAQmxResetDigLvlPauseTrigDigFltrTimebaseRate@4
    ABFB6 _DAQmxGetDigLvlPauseTrigDigSyncEnable@8
    ABFB6 __imp__DAQmxGetDigLvlPauseTrigDigSyncEnable@8
    E61D8 _DAQmxSetDigLvlPauseTrigDigSyncEnable@8
    E61D8 __imp__DAQmxSetDigLvlPauseTrigDigSyncEnable@8
    CDBDC _DAQmxResetDigLvlPauseTrigDigSyncEnable@4
    CDBDC __imp__DAQmxResetDigLvlPauseTrigDigSyncEnable@4
    AC238 _DAQmxGetDigPatternPauseTrigSrc@12
    AC238 __imp__DAQmxGetDigPatternPauseTrigSrc@12
    E63D2 _DAQmxSetDigPatternPauseTrigSrc@8
    E63D2 __imp__DAQmxSetDigPatternPauseTrigSrc@8
    CDDDE _DAQmxResetDigPatternPauseTrigSrc@4
    CDDDE __imp__DAQmxResetDigPatternPauseTrigSrc@4
    AC1B6 _DAQmxGetDigPatternPauseTrigPattern@12
    AC1B6 __imp__DAQmxGetDigPatternPauseTrigPattern@12
    E6350 _DAQmxSetDigPatternPauseTrigPattern@8
    E6350 __imp__DAQmxSetDigPatternPauseTrigPattern@8
    CDD5A _DAQmxResetDigPatternPauseTrigPattern@4
    CDD5A __imp__DAQmxResetDigPatternPauseTrigPattern@4
    AC2B6 _DAQmxGetDigPatternPauseTrigWhen@8
    AC2B6 __imp__DAQmxGetDigPatternPauseTrigWhen@8
    E6450 _DAQmxSetDigPatternPauseTrigWhen@8
    E6450 __imp__DAQmxSetDigPatternPauseTrigWhen@8
    CDE5E _DAQmxResetDigPatternPauseTrigWhen@4
    CDE5E __imp__DAQmxResetDigPatternPauseTrigWhen@4
    9BE68 _DAQmxGetArmStartTrigType@8
    9BE68 __imp__DAQmxGetArmStartTrigType@8
    DB8B2 _DAQmxSetArmStartTrigType@8
    DB8B2 __imp__DAQmxSetArmStartTrigType@8
    C32CA _DAQmxResetArmStartTrigType@4
    C32CA __imp__DAQmxResetArmStartTrigType@4
    9BDF4 _DAQmxGetArmStartTerm@12
    9BDF4 __imp__DAQmxGetArmStartTerm@12
    AB238 _DAQmxGetDigEdgeArmStartTrigSrc@12
    AB238 __imp__DAQmxGetDigEdgeArmStartTrigSrc@12
    E5700 _DAQmxSetDigEdgeArmStartTrigSrc@8
    E5700 __imp__DAQmxSetDigEdgeArmStartTrigSrc@8
    CD0E0 _DAQmxResetDigEdgeArmStartTrigSrc@4
    CD0E0 __imp__DAQmxResetDigEdgeArmStartTrigSrc@4
    AB1BA _DAQmxGetDigEdgeArmStartTrigEdge@8
    AB1BA __imp__DAQmxGetDigEdgeArmStartTrigEdge@8
    E5682 _DAQmxSetDigEdgeArmStartTrigEdge@8
    E5682 __imp__DAQmxSetDigEdgeArmStartTrigEdge@8
    CD060 _DAQmxResetDigEdgeArmStartTrigEdge@4
    CD060 __imp__DAQmxResetDigEdgeArmStartTrigEdge@4
    AADE8 _DAQmxGetDigEdgeArmStartTrigDigFltrEnable@8
    AADE8 __imp__DAQmxGetDigEdgeArmStartTrigDigFltrEnable@8
    E53C8 _DAQmxSetDigEdgeArmStartTrigDigFltrEnable@8
    E53C8 __imp__DAQmxSetDigEdgeArmStartTrigDigFltrEnable@8
    CCD9E _DAQmxResetDigEdgeArmStartTrigDigFltrEnable@4
    CCD9E __imp__DAQmxResetDigEdgeArmStartTrigDigFltrEnable@4
    AAEFC _DAQmxGetDigEdgeArmStartTrigDigFltrMinPulseWidth@8
    AAEFC __imp__DAQmxGetDigEdgeArmStartTrigDigFltrMinPulseWidth@8
    E5450 _DAQmxSetDigEdgeArmStartTrigDigFltrMinPulseWidth@12
    E5450 __imp__DAQmxSetDigEdgeArmStartTrigDigFltrMinPulseWidth@12
    CCE28 _DAQmxResetDigEdgeArmStartTrigDigFltrMinPulseWidth@4
    CCE28 __imp__DAQmxResetDigEdgeArmStartTrigDigFltrMinPulseWidth@4
    AB018 _DAQmxGetDigEdgeArmStartTrigDigFltrTimebaseSrc@12
    AB018 __imp__DAQmxGetDigEdgeArmStartTrigDigFltrTimebaseSrc@12
    E556E _DAQmxSetDigEdgeArmStartTrigDigFltrTimebaseSrc@8
    E556E __imp__DAQmxSetDigEdgeArmStartTrigDigFltrTimebaseSrc@8
    CCF48 _DAQmxResetDigEdgeArmStartTrigDigFltrTimebaseSrc@4
    CCF48 __imp__DAQmxResetDigEdgeArmStartTrigDigFltrTimebaseSrc@4
    AAF8A _DAQmxGetDigEdgeArmStartTrigDigFltrTimebaseRate@8
    AAF8A __imp__DAQmxGetDigEdgeArmStartTrigDigFltrTimebaseRate@8
    E54E0 _DAQmxSetDigEdgeArmStartTrigDigFltrTimebaseRate@12
    E54E0 __imp__DAQmxSetDigEdgeArmStartTrigDigFltrTimebaseRate@12
    CCEB8 _DAQmxResetDigEdgeArmStartTrigDigFltrTimebaseRate@4
    CCEB8 __imp__DAQmxResetDigEdgeArmStartTrigDigFltrTimebaseRate@4
    AB0A6 _DAQmxGetDigEdgeArmStartTrigDigSyncEnable@8
    AB0A6 __imp__DAQmxGetDigEdgeArmStartTrigDigSyncEnable@8
    E55FA _DAQmxSetDigEdgeArmStartTrigDigSyncEnable@8
    E55FA __imp__DAQmxSetDigEdgeArmStartTrigDigSyncEnable@8
    CCFD6 _DAQmxResetDigEdgeArmStartTrigDigSyncEnable@4
    CCFD6 __imp__DAQmxResetDigEdgeArmStartTrigDigSyncEnable@4
    B693C _DAQmxGetTriggerSyncType@8
    B693C __imp__DAQmxGetTriggerSyncType@8
    EB5A0 _DAQmxSetTriggerSyncType@8
    EB5A0 __imp__DAQmxSetTriggerSyncType@8
    D2194 _DAQmxResetTriggerSyncType@4
    D2194 __imp__DAQmxResetTriggerSyncType@4
    B6EAC _DAQmxGetWatchdogTimeout@8
    B6EAC __imp__DAQmxGetWatchdogTimeout@8
    EB986 _DAQmxSetWatchdogTimeout@12
    EB986 __imp__DAQmxSetWatchdogTimeout@12
    D258E _DAQmxResetWatchdogTimeout@4
    D258E __imp__DAQmxResetWatchdogTimeout@4
    B6D38 _DAQmxGetWatchdogExpirTrigType@8
    B6D38 __imp__DAQmxGetWatchdogExpirTrigType@8
    EB90A _DAQmxSetWatchdogExpirTrigType@8
    EB90A __imp__DAQmxSetWatchdogExpirTrigType@8
    D2510 _DAQmxResetWatchdogExpirTrigType@4
    D2510 __imp__DAQmxResetWatchdogExpirTrigType@4
    B6C18 _DAQmxGetWatchdogExpirTrigTrigOnNetworkConnLoss@8
    B6C18 __imp__DAQmxGetWatchdogExpirTrigTrigOnNetworkConnLoss@8
    EB87C _DAQmxSetWatchdogExpirTrigTrigOnNetworkConnLoss@8
    EB87C __imp__DAQmxSetWatchdogExpirTrigTrigOnNetworkConnLoss@8
    D2480 _DAQmxResetWatchdogExpirTrigTrigOnNetworkConnLoss@4
    D2480 __imp__DAQmxResetWatchdogExpirTrigTrigOnNetworkConnLoss@4
    ABC88 _DAQmxGetDigEdgeWatchdogExpirTrigSrc@12
    ABC88 __imp__DAQmxGetDigEdgeWatchdogExpirTrigSrc@12
    E5F34 _DAQmxSetDigEdgeWatchdogExpirTrigSrc@8
    E5F34 __imp__DAQmxSetDigEdgeWatchdogExpirTrigSrc@8
    CD930 _DAQmxResetDigEdgeWatchdogExpirTrigSrc@4
    CD930 __imp__DAQmxResetDigEdgeWatchdogExpirTrigSrc@4
    ABC04 _DAQmxGetDigEdgeWatchdogExpirTrigEdge@8
    ABC04 __imp__DAQmxGetDigEdgeWatchdogExpirTrigEdge@8
    E5EB0 _DAQmxSetDigEdgeWatchdogExpirTrigEdge@8
    E5EB0 __imp__DAQmxSetDigEdgeWatchdogExpirTrigEdge@8
    CD8AA _DAQmxResetDigEdgeWatchdogExpirTrigEdge@4
    CD8AA __imp__DAQmxResetDigEdgeWatchdogExpirTrigEdge@4
    B6B9C _DAQmxGetWatchdogDOExpirState@12
    B6B9C __imp__DAQmxGetWatchdogDOExpirState@12
    EB800 _DAQmxSetWatchdogDOExpirState@12
    EB800 __imp__DAQmxSetWatchdogDOExpirState@12
    D2402 _DAQmxResetWatchdogDOExpirState@8
    D2402 __imp__DAQmxResetWatchdogDOExpirState@8
    B6A2E _DAQmxGetWatchdogAOOutputType@12
    B6A2E __imp__DAQmxGetWatchdogAOOutputType@12
    EB692 _DAQmxSetWatchdogAOOutputType@12
    EB692 __imp__DAQmxSetWatchdogAOOutputType@12
    D228A _DAQmxResetWatchdogAOOutputType@8
    D228A __imp__DAQmxResetWatchdogAOOutputType@8
    B69B2 _DAQmxGetWatchdogAOExpirState@12
    B69B2 __imp__DAQmxGetWatchdogAOExpirState@12
    EB616 _DAQmxSetWatchdogAOExpirState@16
    EB616 __imp__DAQmxSetWatchdogAOExpirState@16
    D220C _DAQmxResetWatchdogAOExpirState@8
    D220C __imp__DAQmxResetWatchdogAOExpirState@8
    B6B20 _DAQmxGetWatchdogCOExpirState@12
    B6B20 __imp__DAQmxGetWatchdogCOExpirState@12
    EB784 _DAQmxSetWatchdogCOExpirState@12
    EB784 __imp__DAQmxSetWatchdogCOExpirState@12
    D2384 _DAQmxResetWatchdogCOExpirState@8
    D2384 __imp__DAQmxResetWatchdogCOExpirState@8
    B6DB4 _DAQmxGetWatchdogHasExpired@8
    B6DB4 __imp__DAQmxGetWatchdogHasExpired@8
    B7DF2 _DAQmxGetWriteRelativeTo@8
    B7DF2 __imp__DAQmxGetWriteRelativeTo@8
    EBB5A _DAQmxSetWriteRelativeTo@8
    EBB5A __imp__DAQmxSetWriteRelativeTo@8
    D276A _DAQmxResetWriteRelativeTo@4
    D276A __imp__DAQmxResetWriteRelativeTo@4
    B74D6 _DAQmxGetWriteOffset@8
    B74D6 __imp__DAQmxGetWriteOffset@8
    EBA72 _DAQmxSetWriteOffset@8
    EBA72 __imp__DAQmxSetWriteOffset@8
    D267E _DAQmxResetWriteOffset@4
    D267E __imp__DAQmxResetWriteOffset@4
    B7D7C _DAQmxGetWriteRegenMode@8
    B7D7C __imp__DAQmxGetWriteRegenMode@8
    EBAE4 _DAQmxSetWriteRegenMode@8
    EBAE4 __imp__DAQmxSetWriteRegenMode@8
    D26F2 _DAQmxResetWriteRegenMode@4
    D26F2 __imp__DAQmxResetWriteRegenMode@4
    B70BA _DAQmxGetWriteCurrWritePos@8
    B70BA __imp__DAQmxGetWriteCurrWritePos@8
    B7758 _DAQmxGetWriteOvercurrentChansExist@8
    B7758 __imp__DAQmxGetWriteOvercurrentChansExist@8
    B76DA _DAQmxGetWriteOvercurrentChans@12
    B76DA __imp__DAQmxGetWriteOvercurrentChans@12
    B7A62 _DAQmxGetWriteOvertemperatureChansExist@8
    B7A62 __imp__DAQmxGetWriteOvertemperatureChansExist@8
    B79E0 _DAQmxGetWriteOvertemperatureChans@12
    B79E0 __imp__DAQmxGetWriteOvertemperatureChans@12
    B734A _DAQmxGetWriteExternalOvervoltageChansExist@8
    B734A __imp__DAQmxGetWriteExternalOvervoltageChansExist@8
    B72C4 _DAQmxGetWriteExternalOvervoltageChans@12
    B72C4 __imp__DAQmxGetWriteExternalOvervoltageChans@12
    B78DC _DAQmxGetWriteOverloadedChansExist@8
    B78DC __imp__DAQmxGetWriteOverloadedChansExist@8
    B7860 _DAQmxGetWriteOverloadedChans@12
    B7860 __imp__DAQmxGetWriteOverloadedChans@12
    B75CA _DAQmxGetWriteOpenCurrentLoopChansExist@8
    B75CA __imp__DAQmxGetWriteOpenCurrentLoopChansExist@8
    B7548 _DAQmxGetWriteOpenCurrentLoopChans@12
    B7548 __imp__DAQmxGetWriteOpenCurrentLoopChans@12
    B7BF4 _DAQmxGetWritePowerSupplyFaultChansExist@8
    B7BF4 __imp__DAQmxGetWritePowerSupplyFaultChansExist@8
    B7B72 _DAQmxGetWritePowerSupplyFaultChans@12
    B7B72 __imp__DAQmxGetWritePowerSupplyFaultChans@12
    B7EDE _DAQmxGetWriteSpaceAvail@8
    B7EDE __imp__DAQmxGetWriteSpaceAvail@8
    B7F54 _DAQmxGetWriteTotalSampPerChanGenerated@8
    B7F54 __imp__DAQmxGetWriteTotalSampPerChanGenerated@8
    B6F22 _DAQmxGetWriteAccessoryInsertionOrRemovalDetected@8
    B6F22 __imp__DAQmxGetWriteAccessoryInsertionOrRemovalDetected@8
    B71AE _DAQmxGetWriteDevsWithInsertedOrRemovedAccessories@12
    B71AE __imp__DAQmxGetWriteDevsWithInsertedOrRemovedAccessories@12
    B7D04 _DAQmxGetWriteRawDataWidth@8
    B7D04 __imp__DAQmxGetWriteRawDataWidth@8
    B7462 _DAQmxGetWriteNumChans@8
    B7462 __imp__DAQmxGetWriteNumChans@8
    B8064 _DAQmxGetWriteWaitMode@8
    B8064 __imp__DAQmxGetWriteWaitMode@8
    EBC46 _DAQmxSetWriteWaitMode@8
    EBC46 __imp__DAQmxSetWriteWaitMode@8
    D285A _DAQmxResetWriteWaitMode@4
    D285A __imp__DAQmxResetWriteWaitMode@4
    B7E68 _DAQmxGetWriteSleepTime@8
    B7E68 __imp__DAQmxGetWriteSleepTime@8
    EBBD0 _DAQmxSetWriteSleepTime@12
    EBBD0 __imp__DAQmxSetWriteSleepTime@12
    D27E2 _DAQmxResetWriteSleepTime@4
    D27E2 __imp__DAQmxResetWriteSleepTime@4
    B7240 _DAQmxGetWriteDigitalLinesBytesPerChan@8
    B7240 __imp__DAQmxGetWriteDigitalLinesBytesPerChan@8
    AFDB4 _DAQmxGetPhysicalChanAISupportedMeasTypes@12
    AFDB4 __imp__DAQmxGetPhysicalChanAISupportedMeasTypes@12
    AFE3C _DAQmxGetPhysicalChanAITermCfgs@8
    AFE3C __imp__DAQmxGetPhysicalChanAITermCfgs@8
    AFD34 _DAQmxGetPhysicalChanAIInputSrcs@12
    AFD34 __imp__DAQmxGetPhysicalChanAIInputSrcs@12
    B0204 _DAQmxGetPhysicalChanAOSupportedOutputTypes@12
    B0204 __imp__DAQmxGetPhysicalChanAOSupportedOutputTypes@12
    B028E _DAQmxGetPhysicalChanAOSupportedPowerUpOutputTypes@12
    B028E __imp__DAQmxGetPhysicalChanAOSupportedPowerUpOutputTypes@12
    B0320 _DAQmxGetPhysicalChanAOTermCfgs@8
    B0320 __imp__DAQmxGetPhysicalChanAOTermCfgs@8
    AFF46 _DAQmxGetPhysicalChanAOManualControlEnable@8
    AFF46 __imp__DAQmxGetPhysicalChanAOManualControlEnable@8
    E8E48 _DAQmxSetPhysicalChanAOManualControlEnable@8
    E8E48 __imp__DAQmxSetPhysicalChanAOManualControlEnable@8
    D05E0 _DAQmxResetPhysicalChanAOManualControlEnable@4
    D05E0 __imp__DAQmxResetPhysicalChanAOManualControlEnable@4
    B00E0 _DAQmxGetPhysicalChanAOManualControlShortDetected@8
    B00E0 __imp__DAQmxGetPhysicalChanAOManualControlShortDetected@8
    AFEBA _DAQmxGetPhysicalChanAOManualControlAmplitude@8
    AFEBA __imp__DAQmxGetPhysicalChanAOManualControlAmplitude@8
    B005A _DAQmxGetPhysicalChanAOManualControlFreq@8
    B005A __imp__DAQmxGetPhysicalChanAOManualControlFreq@8
    98F1C _DAQmxGetAOPowerAmpChannelEnable@8
    98F1C __imp__DAQmxGetAOPowerAmpChannelEnable@8
    D9400 _DAQmxSetAOPowerAmpChannelEnable@8
    D9400 __imp__DAQmxSetAOPowerAmpChannelEnable@8
    C0F32 _DAQmxResetAOPowerAmpChannelEnable@4
    C0F32 __imp__DAQmxResetAOPowerAmpChannelEnable@4
    99206 _DAQmxGetAOPowerAmpScalingCoeff@12
    99206 __imp__DAQmxGetAOPowerAmpScalingCoeff@12
    9910A _DAQmxGetAOPowerAmpOvercurrent@8
    9910A __imp__DAQmxGetAOPowerAmpOvercurrent@8
    9901C _DAQmxGetAOPowerAmpGain@8
    9901C __imp__DAQmxGetAOPowerAmpGain@8
    99092 _DAQmxGetAOPowerAmpOffset@8
    99092 __imp__DAQmxGetAOPowerAmpOffset@8
    B0642 _DAQmxGetPhysicalChanDIPortWidth@8
    B0642 __imp__DAQmxGetPhysicalChanDIPortWidth@8
    B06C0 _DAQmxGetPhysicalChanDISampClkSupported@8
    B06C0 __imp__DAQmxGetPhysicalChanDISampClkSupported@8
    B07D0 _DAQmxGetPhysicalChanDISampModes@12
    B07D0 __imp__DAQmxGetPhysicalChanDISampModes@12
    B052A _DAQmxGetPhysicalChanDIChangeDetectSupported@8
    B052A __imp__DAQmxGetPhysicalChanDIChangeDetectSupported@8
    B0850 _DAQmxGetPhysicalChanDOPortWidth@8
    B0850 __imp__DAQmxGetPhysicalChanDOPortWidth@8
    B08CE _DAQmxGetPhysicalChanDOSampClkSupported@8
    B08CE __imp__DAQmxGetPhysicalChanDOSampClkSupported@8
    B09DE _DAQmxGetPhysicalChanDOSampModes@12
    B09DE __imp__DAQmxGetPhysicalChanDOSampModes@12
    B0418 _DAQmxGetPhysicalChanCISupportedMeasTypes@12
    B0418 __imp__DAQmxGetPhysicalChanCISupportedMeasTypes@12
    B04A0 _DAQmxGetPhysicalChanCOSupportedOutputTypes@12
    B04A0 __imp__DAQmxGetPhysicalChanCOSupportedOutputTypes@12
    B0B58 _DAQmxGetPhysicalChanTEDSMfgID@8
    B0B58 __imp__DAQmxGetPhysicalChanTEDSMfgID@8
    B0BD4 _DAQmxGetPhysicalChanTEDSModelNum@8
    B0BD4 __imp__DAQmxGetPhysicalChanTEDSModelNum@8
    B0C54 _DAQmxGetPhysicalChanTEDSSerialNum@8
    B0C54 __imp__DAQmxGetPhysicalChanTEDSSerialNum@8
    B0DDE _DAQmxGetPhysicalChanTEDSVersionNum@8
    B0DDE __imp__DAQmxGetPhysicalChanTEDSVersionNum@8
    B0D58 _DAQmxGetPhysicalChanTEDSVersionLetter@12
    B0D58 __imp__DAQmxGetPhysicalChanTEDSVersionLetter@12
    B0AD6 _DAQmxGetPhysicalChanTEDSBitStream@12
    B0AD6 __imp__DAQmxGetPhysicalChanTEDSBitStream@12
    B0CD4 _DAQmxGetPhysicalChanTEDSTemplateIDs@12
    B0CD4 __imp__DAQmxGetPhysicalChanTEDSTemplateIDs@12
    AFCB8 _DAQmxGetPersistedTaskAuthor@12
    AFCB8 __imp__DAQmxGetPersistedTaskAuthor@12
    AFB20 _DAQmxGetPersistedTaskAllowInteractiveEditing@8
    AFB20 __imp__DAQmxGetPersistedTaskAllowInteractiveEditing@8
    AFA04 _DAQmxGetPersistedTaskAllowInteractiveDeletion@8
    AFA04 __imp__DAQmxGetPersistedTaskAllowInteractiveDeletion@8
    AF654 _DAQmxGetPersistedChanAuthor@12
    AF654 __imp__DAQmxGetPersistedChanAuthor@12
    AF4BC _DAQmxGetPersistedChanAllowInteractiveEditing@8
    AF4BC __imp__DAQmxGetPersistedChanAllowInteractiveEditing@8
    AF3A0 _DAQmxGetPersistedChanAllowInteractiveDeletion@8
    AF3A0 __imp__DAQmxGetPersistedChanAllowInteractiveDeletion@8
    AF988 _DAQmxGetPersistedScaleAuthor@12
    AF988 __imp__DAQmxGetPersistedScaleAuthor@12
    AF7F0 _DAQmxGetPersistedScaleAllowInteractiveEditing@8
    AF7F0 __imp__DAQmxGetPersistedScaleAllowInteractiveEditing@8
    AF6D0 _DAQmxGetPersistedScaleAllowInteractiveDeletion@8
    AF6D0 __imp__DAQmxGetPersistedScaleAllowInteractiveDeletion@8
    B39BA _DAQmxGetSampClkTimingResponseMode@8
    B39BA __imp__DAQmxGetSampClkTimingResponseMode@8
    EA0FE _DAQmxSetSampClkTimingResponseMode@8
    EA0FE __imp__DAQmxSetSampClkTimingResponseMode@8
    D1768 _DAQmxResetSampClkTimingResponseMode@4
    D1768 __imp__DAQmxResetSampClkTimingResponseMode@4
    8C954 _DAQmxCfgSampClkTiming_VB6@28
    8C954 __imp__DAQmxCfgSampClkTiming_VB6@28
    8C58A _DAQmxCfgHandshakingTiming_VB6@12
    8C58A __imp__DAQmxCfgHandshakingTiming_VB6@12
    8C128 _DAQmxCfgBurstHandshakingTimingImportClock_VB6@36
    8C128 __imp__DAQmxCfgBurstHandshakingTimingImportClock_VB6@36
    8C010 _DAQmxCfgBurstHandshakingTimingExportClock_VB6@36
    8C010 __imp__DAQmxCfgBurstHandshakingTimingExportClock_VB6@36
    8C234 _DAQmxCfgChangeDetectionTiming_VB6@20
    8C234 __imp__DAQmxCfgChangeDetectionTiming_VB6@20
    8C67E _DAQmxCfgImplicitTiming_VB6@12
    8C67E __imp__DAQmxCfgImplicitTiming_VB6@12
    8C85C _DAQmxCfgPipelinedSampClkTiming_VB6@28
    8C85C __imp__DAQmxCfgPipelinedSampClkTiming_VB6@28
    8F6C2 _DAQmxCreateWatchdogTimerTask_VB6@32
    8F6C2 __imp__DAQmxCreateWatchdogTimerTask_VB6@32
    E68C4 _DAQmxSetDigitalPowerUpStates_VB6@16
    E68C4 __imp__DAQmxSetDigitalPowerUpStates_VB6@16
    D99B2 _DAQmxSetAnalogPowerUpStates_VB6@20
    D99B2 __imp__DAQmxSetAnalogPowerUpStates_VB6@20
    B94A6 _DAQmxIsTaskDone_VB6@8
    B94A6 __imp__DAQmxIsTaskDone_VB6@8
    ED618 _DAQmxWaitForNextSampleClock_VB6@16
    ED618 __imp__DAQmxWaitForNextSampleClock_VB6@16
    8FA04 _DAQmxDeviceSupportsCal_VB6@8
    8FA04 __imp__DAQmxDeviceSupportsCal_VB6@8
    BA5CA _DAQmxRegisterEveryNSamplesEvent_VB6@24
    BA5CA __imp__DAQmxRegisterEveryNSamplesEvent_VB6@24
    BA4D0 _DAQmxRegisterDoneEvent_VB6@16
    BA4D0 __imp__DAQmxRegisterDoneEvent_VB6@16
    BA6C6 _DAQmxRegisterSignalEvent_VB6@20
    BA6C6 __imp__DAQmxRegisterSignalEvent_VB6@20
    B46AE _DAQmxGetSelfCalSupported_VB6@8
    B46AE __imp__DAQmxGetSelfCalSupported_VB6@8
    951BC _DAQmxGetAIForceReadFromChan_VB6@12
    951BC __imp__DAQmxGetAIForceReadFromChan_VB6@12
    9704E _DAQmxGetAIStrainGageForceReadFromChan_VB6@12
    9704E __imp__DAQmxGetAIStrainGageForceReadFromChan_VB6@12
    955D6 _DAQmxGetAIIsTEDS_VB6@12
    955D6 __imp__DAQmxGetAIIsTEDS_VB6@12
    91E88 _DAQmxGetAIBridgeShuntCalEnable_VB6@12
    91E88 __imp__DAQmxGetAIBridgeShuntCalEnable_VB6@12
    94C50 _DAQmxGetAIExcitUseForScaling_VB6@12
    94C50 __imp__DAQmxGetAIExcitUseForScaling_VB6@12
    94D4E _DAQmxGetAIExcitUseMultiplexed_VB6@12
    94D4E __imp__DAQmxGetAIExcitUseMultiplexed_VB6@12
    91376 _DAQmxGetAIACExcitSyncEnable_VB6@12
    91376 __imp__DAQmxGetAIACExcitSyncEnable_VB6@12
    9607A _DAQmxGetAIOpenThrmcplDetectEnable_VB6@12
    9607A __imp__DAQmxGetAIOpenThrmcplDetectEnable_VB6@12
    959B2 _DAQmxGetAILowpassEnable_VB6@12
    959B2 __imp__DAQmxGetAILowpassEnable_VB6@12
    94188 _DAQmxGetAIDigFltrEnable_VB6@12
    94188 __imp__DAQmxGetAIDigFltrEnable_VB6@12
    96774 _DAQmxGetAIRemoveFilterDelay_VB6@12
    96774 __imp__DAQmxGetAIRemoveFilterDelay_VB6@12
    94658 _DAQmxGetAIDitherEnable_VB6@12
    94658 __imp__DAQmxGetAIDitherEnable_VB6@12
    92A58 _DAQmxGetAIChanCalHasValidCalInfo_VB6@12
    92A58 __imp__DAQmxGetAIChanCalHasValidCalInfo_VB6@12
    928E2 _DAQmxGetAIChanCalEnableCal_VB6@12
    928E2 __imp__DAQmxGetAIChanCalEnableCal_VB6@12
    926F8 _DAQmxGetAIChanCalApplyCalIfExp_VB6@12
    926F8 __imp__DAQmxGetAIChanCalApplyCalIfExp_VB6@12
    96D4E _DAQmxGetAISampAndHoldEnable_VB6@12
    96D4E __imp__DAQmxGetAISampAndHoldEnable_VB6@12
    95D90 _DAQmxGetAIMemMapEnable_VB6@12
    95D90 __imp__DAQmxGetAIMemMapEnable_VB6@12
    948F4 _DAQmxGetAIEnhancedAliasRejectionEnable_VB6@12
    948F4 __imp__DAQmxGetAIEnhancedAliasRejectionEnable_VB6@12
    95F76 _DAQmxGetAIOpenChanDetectEnable_VB6@12
    95F76 __imp__DAQmxGetAIOpenChanDetectEnable_VB6@12
    980F8 _DAQmxGetAODACRefConnToGnd_VB6@12
    980F8 __imp__DAQmxGetAODACRefConnToGnd_VB6@12
    97FFC _DAQmxGetAODACRefAllowConnToGnd_VB6@12
    97FFC __imp__DAQmxGetAODACRefAllowConnToGnd_VB6@12
    992FC _DAQmxGetAOReglitchEnable_VB6@12
    992FC __imp__DAQmxGetAOReglitchEnable_VB6@12
    99644 _DAQmxGetAOUseOnlyOnBrdMem_VB6@12
    99644 __imp__DAQmxGetAOUseOnlyOnBrdMem_VB6@12
    98D46 _DAQmxGetAOMemMapEnable_VB6@12
    98D46 __imp__DAQmxGetAOMemMapEnable_VB6@12
    985AC _DAQmxGetAOEnhancedImageRejectionEnable_VB6@12
    985AC __imp__DAQmxGetAOEnhancedImageRejectionEnable_VB6@12
    A7098 _DAQmxGetDIInvertLines_VB6@12
    A7098 __imp__DAQmxGetDIInvertLines_VB6@12
    A6D3A _DAQmxGetDIDigFltrEnable_VB6@12
    A6D3A __imp__DAQmxGetDIDigFltrEnable_VB6@12
    A6CB8 _DAQmxGetDIDigFltrEnableBusMode_VB6@12
    A6CB8 __imp__DAQmxGetDIDigFltrEnableBusMode_VB6@12
    A6FA6 _DAQmxGetDIDigSyncEnable_VB6@12
    A6FA6 __imp__DAQmxGetDIDigSyncEnable_VB6@12
    A735C _DAQmxGetDITristate_VB6@12
    A735C __imp__DAQmxGetDITristate_VB6@12
    A71FE _DAQmxGetDIMemMapEnable_VB6@12
    A71FE __imp__DAQmxGetDIMemMapEnable_VB6@12
    A769E _DAQmxGetDOInvertLines_VB6@12
    A769E __imp__DAQmxGetDOInvertLines_VB6@12
    A7D5E _DAQmxGetDOTristate_VB6@12
    A7D5E __imp__DAQmxGetDOTristate_VB6@12
    A7B68 _DAQmxGetDOOvercurrentAutoReenable_VB6@12
    A7B68 __imp__DAQmxGetDOOvercurrentAutoReenable_VB6@12
    A7F40 _DAQmxGetDOUseOnlyOnBrdMem_VB6@12
    A7F40 __imp__DAQmxGetDOUseOnlyOnBrdMem_VB6@12
    A7980 _DAQmxGetDOMemMapEnable_VB6@12
    A7980 __imp__DAQmxGetDOMemMapEnable_VB6@12
    9FC28 _DAQmxGetCIFreqDigFltrEnable_VB6@12
    9FC28 __imp__DAQmxGetCIFreqDigFltrEnable_VB6@12
    9FEA8 _DAQmxGetCIFreqDigSyncEnable_VB6@12
    9FEA8 __imp__DAQmxGetCIFreqDigSyncEnable_VB6@12
    A0018 _DAQmxGetCIFreqEnableAveraging_VB6@12
    A0018 __imp__DAQmxGetCIFreqEnableAveraging_VB6@12
    A0A6A _DAQmxGetCIPeriodDigFltrEnable_VB6@12
    A0A6A __imp__DAQmxGetCIPeriodDigFltrEnable_VB6@12
    A0CF4 _DAQmxGetCIPeriodDigSyncEnable_VB6@12
    A0CF4 __imp__DAQmxGetCIPeriodDigSyncEnable_VB6@12
    A0E6A _DAQmxGetCIPeriodEnableAveraging_VB6@12
    A0E6A __imp__DAQmxGetCIPeriodEnableAveraging_VB6@12
    9D138 _DAQmxGetCICountEdgesDigFltrEnable_VB6@12
    9D138 __imp__DAQmxGetCICountEdgesDigFltrEnable_VB6@12
    9D3D6 _DAQmxGetCICountEdgesDigSyncEnable_VB6@12
    9D3D6 __imp__DAQmxGetCICountEdgesDigSyncEnable_VB6@12
    9C4B4 _DAQmxGetCICountEdgesCountDirDigFltrEnable_VB6@12
    9C4B4 __imp__DAQmxGetCICountEdgesCountDirDigFltrEnable_VB6@12
    9C77A _DAQmxGetCICountEdgesCountDirDigSyncEnable_VB6@12
    9C77A __imp__DAQmxGetCICountEdgesCountDirDigSyncEnable_VB6@12
    9CE10 _DAQmxGetCICountEdgesCountResetEnable_VB6@12
    9CE10 __imp__DAQmxGetCICountEdgesCountResetEnable_VB6@12
    9CA2C _DAQmxGetCICountEdgesCountResetDigFltrEnable_VB6@12
    9CA2C __imp__DAQmxGetCICountEdgesCountResetDigFltrEnable_VB6@12
    9CCFC _DAQmxGetCICountEdgesCountResetDigSyncEnable_VB6@12
    9CCFC __imp__DAQmxGetCICountEdgesCountResetDigSyncEnable_VB6@12
    9D880 _DAQmxGetCICountEdgesGateEnable_VB6@12
    9D880 __imp__DAQmxGetCICountEdgesGateEnable_VB6@12
    9D5D6 _DAQmxGetCICountEdgesGateDigFltrEnable_VB6@12
    9D5D6 __imp__DAQmxGetCICountEdgesGateDigFltrEnable_VB6@12
    9E57C _DAQmxGetCIDutyCycleDigFltrEnable_VB6@12
    9E57C __imp__DAQmxGetCIDutyCycleDigFltrEnable_VB6@12
    9EA0E _DAQmxGetCIEncoderAInputDigFltrEnable_VB6@12
    9EA0E __imp__DAQmxGetCIEncoderAInputDigFltrEnable_VB6@12
    9ECBA _DAQmxGetCIEncoderAInputDigSyncEnable_VB6@12
    9ECBA __imp__DAQmxGetCIEncoderAInputDigSyncEnable_VB6@12
    9EF48 _DAQmxGetCIEncoderBInputDigFltrEnable_VB6@12
    9EF48 __imp__DAQmxGetCIEncoderBInputDigFltrEnable_VB6@12
    9F1F4 _DAQmxGetCIEncoderBInputDigSyncEnable_VB6@12
    9F1F4 __imp__DAQmxGetCIEncoderBInputDigSyncEnable_VB6@12
    9F6F6 _DAQmxGetCIEncoderZInputDigFltrEnable_VB6@12
    9F6F6 __imp__DAQmxGetCIEncoderZInputDigFltrEnable_VB6@12
    9F9A2 _DAQmxGetCIEncoderZInputDigSyncEnable_VB6@12
    9F9A2 __imp__DAQmxGetCIEncoderZInputDigSyncEnable_VB6@12
    9F4FA _DAQmxGetCIEncoderZIndexEnable_VB6@12
    9F4FA __imp__DAQmxGetCIEncoderZIndexEnable_VB6@12
    A24DA _DAQmxGetCIPulseWidthDigFltrEnable_VB6@12
    A24DA __imp__DAQmxGetCIPulseWidthDigFltrEnable_VB6@12
    A2778 _DAQmxGetCIPulseWidthDigSyncEnable_VB6@12
    A2778 __imp__DAQmxGetCIPulseWidthDigSyncEnable_VB6@12
    A4306 _DAQmxGetCIVelocityEncoderAInputDigFltrEnable_VB6@12
    A4306 __imp__DAQmxGetCIVelocityEncoderAInputDigFltrEnable_VB6@12
    A4774 _DAQmxGetCIVelocityEncoderBInputDigFltrEnable_VB6@12
    A4774 __imp__DAQmxGetCIVelocityEncoderBInputDigFltrEnable_VB6@12
    A3470 _DAQmxGetCITwoEdgeSepFirstDigFltrEnable_VB6@12
    A3470 __imp__DAQmxGetCITwoEdgeSepFirstDigFltrEnable_VB6@12
    A3726 _DAQmxGetCITwoEdgeSepFirstDigSyncEnable_VB6@12
    A3726 __imp__DAQmxGetCITwoEdgeSepFirstDigSyncEnable_VB6@12
    A3A3E _DAQmxGetCITwoEdgeSepSecondDigFltrEnable_VB6@12
    A3A3E __imp__DAQmxGetCITwoEdgeSepSecondDigFltrEnable_VB6@12
    A3CFA _DAQmxGetCITwoEdgeSepSecondDigSyncEnable_VB6@12
    A3CFA __imp__DAQmxGetCITwoEdgeSepSecondDigSyncEnable_VB6@12
    A2BF6 _DAQmxGetCISemiPeriodDigFltrEnable_VB6@12
    A2BF6 __imp__DAQmxGetCISemiPeriodDigFltrEnable_VB6@12
    A2E94 _DAQmxGetCISemiPeriodDigSyncEnable_VB6@12
    A2E94 __imp__DAQmxGetCISemiPeriodDigSyncEnable_VB6@12
    A1330 _DAQmxGetCIPulseFreqDigFltrEnable_VB6@12
    A1330 __imp__DAQmxGetCIPulseFreqDigFltrEnable_VB6@12
    A15C8 _DAQmxGetCIPulseFreqDigSyncEnable_VB6@12
    A15C8 __imp__DAQmxGetCIPulseFreqDigSyncEnable_VB6@12
    A1ED2 _DAQmxGetCIPulseTimeDigFltrEnable_VB6@12
    A1ED2 __imp__DAQmxGetCIPulseTimeDigFltrEnable_VB6@12
    A216A _DAQmxGetCIPulseTimeDigSyncEnable_VB6@12
    A216A __imp__DAQmxGetCIPulseTimeDigSyncEnable_VB6@12
    A1938 _DAQmxGetCIPulseTicksDigFltrEnable_VB6@12
    A1938 __imp__DAQmxGetCIPulseTicksDigFltrEnable_VB6@12
    A1BD6 _DAQmxGetCIPulseTicksDigSyncEnable_VB6@12
    A1BD6 __imp__DAQmxGetCIPulseTicksDigSyncEnable_VB6@12
    9DDFA _DAQmxGetCICtrTimebaseDigFltrEnable_VB6@12
    9DDFA __imp__DAQmxGetCICtrTimebaseDigFltrEnable_VB6@12
    9E09C _DAQmxGetCICtrTimebaseDigSyncEnable_VB6@12
    9E09C __imp__DAQmxGetCICtrTimebaseDigSyncEnable_VB6@12
    A3200 _DAQmxGetCITCReached_VB6@12
    A3200 __imp__DAQmxGetCITCReached_VB6@12
    A080C _DAQmxGetCIMemMapEnable_VB6@12
    A080C __imp__DAQmxGetCIMemMapEnable_VB6@12
    9E47E _DAQmxGetCIDupCountPrevent_VB6@12
    9E47E __imp__DAQmxGetCIDupCountPrevent_VB6@12
    A4FC4 _DAQmxGetCOCtrTimebaseDigFltrEnable_VB6@12
    A4FC4 __imp__DAQmxGetCOCtrTimebaseDigFltrEnable_VB6@12
    A5266 _DAQmxGetCOCtrTimebaseDigSyncEnable_VB6@12
    A5266 __imp__DAQmxGetCOCtrTimebaseDigSyncEnable_VB6@12
    A592A _DAQmxGetCOPulseDone_VB6@12
    A592A __imp__DAQmxGetCOPulseDone_VB6@12
    A55DC _DAQmxGetCOEnableInitialDelayOnRetrigger_VB6@12
    A55DC __imp__DAQmxGetCOEnableInitialDelayOnRetrigger_VB6@12
    A6222 _DAQmxGetCOUseOnlyOnBrdMem_VB6@12
    A6222 __imp__DAQmxGetCOUseOnlyOnBrdMem_VB6@12
    A56DE _DAQmxGetCOMemMapEnable_VB6@12
    A56DE __imp__DAQmxGetCOMemMapEnable_VB6@12
    A603C _DAQmxGetCORdyForNewVal_VB6@12
    A603C __imp__DAQmxGetCORdyForNewVal_VB6@12
    A675A _DAQmxGetChanIsGlobal_VB6@12
    A675A __imp__DAQmxGetChanIsGlobal_VB6@12
    AD5DE _DAQmxGetExportedHshkEventInterlockedAssertOnStart_VB6@8
    AD5DE __imp__DAQmxGetExportedHshkEventInterlockedAssertOnStart_VB6@8
    AA378 _DAQmxGetDevIsSimulated_VB6@8
    AA378 __imp__DAQmxGetDevIsSimulated_VB6@8
    A945E _DAQmxGetDevAnlgTrigSupported_VB6@8
    A945E __imp__DAQmxGetDevAnlgTrigSupported_VB6@8
    AA284 _DAQmxGetDevDigTrigSupported_VB6@8
    AA284 __imp__DAQmxGetDevDigTrigSupported_VB6@8
    A8A2C _DAQmxGetDevAISimultaneousSamplingSupported_VB6@8
    A8A2C __imp__DAQmxGetDevAISimultaneousSamplingSupported_VB6@8
    A8FFE _DAQmxGetDevAOSampClkSupported_VB6@8
    A8FFE __imp__DAQmxGetDevAOSampClkSupported_VB6@8
    A9732 _DAQmxGetDevCISampClkSupported_VB6@8
    A9732 __imp__DAQmxGetDevCISampClkSupported_VB6@8
    A9B00 _DAQmxGetDevCOSampClkSupported_VB6@8
    A9B00 __imp__DAQmxGetDevCOSampClkSupported_VB6@8
    AAA82 _DAQmxGetDevTEDSHWTEDSSupported_VB6@8
    AAA82 __imp__DAQmxGetDevTEDSHWTEDSSupported_VB6@8
    B245C _DAQmxGetReadReadAllAvailSamp_VB6@8
    B245C __imp__DAQmxGetReadReadAllAvailSamp_VB6@8
    B10F0 _DAQmxGetReadAutoStart_VB6@8
    B10F0 __imp__DAQmxGetReadAutoStart_VB6@8
    AEC66 _DAQmxGetLoggingPause_VB6@8
    AEC66 __imp__DAQmxGetLoggingPause_VB6@8
    AED58 _DAQmxGetLoggingSampsPerFile_VB6@8
    AED58 __imp__DAQmxGetLoggingSampsPerFile_VB6@8
    E8A66 _DAQmxSetLoggingSampsPerFile_VB6@8
    E8A66 __imp__DAQmxSetLoggingSampsPerFile_VB6@8
    AEA7C _DAQmxGetLoggingFilePreallocationSize_VB6@8
    AEA7C __imp__DAQmxGetLoggingFilePreallocationSize_VB6@8
    E8800 _DAQmxSetLoggingFilePreallocationSize_VB6@8
    E8800 __imp__DAQmxSetLoggingFilePreallocationSize_VB6@8
    B157E _DAQmxGetReadCurrReadPos_VB6@8
    B157E __imp__DAQmxGetReadCurrReadPos_VB6@8
    B264A _DAQmxGetReadTotalSampPerChanAcquired_VB6@8
    B264A __imp__DAQmxGetReadTotalSampPerChanAcquired_VB6@8
    B147A _DAQmxGetReadCommonModeRangeErrorChansExist_VB6@8
    B147A __imp__DAQmxGetReadCommonModeRangeErrorChansExist_VB6@8
    B1808 _DAQmxGetReadExcitFaultChansExist_VB6@8
    B1808 __imp__DAQmxGetReadExcitFaultChansExist_VB6@8
    B1FD8 _DAQmxGetReadOvercurrentChansExist_VB6@8
    B1FD8 __imp__DAQmxGetReadOvercurrentChansExist_VB6@8
    B22E0 _DAQmxGetReadOvertemperatureChansExist_VB6@8
    B22E0 __imp__DAQmxGetReadOvertemperatureChansExist_VB6@8
    B1ADE _DAQmxGetReadOpenChansExist_VB6@8
    B1ADE __imp__DAQmxGetReadOpenChansExist_VB6@8
    B1C60 _DAQmxGetReadOpenCurrentLoopChansExist_VB6@8
    B1C60 __imp__DAQmxGetReadOpenCurrentLoopChansExist_VB6@8
    B1DE4 _DAQmxGetReadOpenThrmcplChansExist_VB6@8
    B1DE4 __imp__DAQmxGetReadOpenThrmcplChansExist_VB6@8
    B2158 _DAQmxGetReadOverloadedChansExist_VB6@8
    B2158 __imp__DAQmxGetReadOverloadedChansExist_VB6@8
    B0F78 _DAQmxGetReadAccessoryInsertionOrRemovalDetected_VB6@8
    B0F78 __imp__DAQmxGetReadAccessoryInsertionOrRemovalDetected_VB6@8
    B1268 _DAQmxGetReadChangeDetectHasOverflowed_VB6@8
    B1268 __imp__DAQmxGetReadChangeDetectHasOverflowed_VB6@8
    B2844 _DAQmxGetRealTimeConvLateErrorsToWarnings_VB6@8
    B2844 __imp__DAQmxGetRealTimeConvLateErrorsToWarnings_VB6@8
    B29D0 _DAQmxGetRealTimeReportMissedSamp_VB6@8
    B29D0 __imp__DAQmxGetRealTimeReportMissedSamp_VB6@8
    B4A8A _DAQmxGetSwitchChanAnlgBusSharingEnable_VB6@8
    B4A8A __imp__DAQmxGetSwitchChanAnlgBusSharingEnable_VB6@8
    B52F4 _DAQmxGetSwitchDevAutoConnAnlgBus_VB6@8
    B52F4 __imp__DAQmxGetSwitchDevAutoConnAnlgBus_VB6@8
    B55F2 _DAQmxGetSwitchDevPwrDownLatchRelaysAfterSettling_VB6@8
    B55F2 __imp__DAQmxGetSwitchDevPwrDownLatchRelaysAfterSettling_VB6@8
    B5778 _DAQmxGetSwitchDevSettled_VB6@8
    B5778 __imp__DAQmxGetSwitchDevSettled_VB6@8
    B5C4C _DAQmxGetSwitchScanWaitingForAdv_VB6@8
    B5C4C __imp__DAQmxGetSwitchScanWaitingForAdv_VB6@8
    B659A _DAQmxGetTaskComplete_VB6@8
    B659A __imp__DAQmxGetTaskComplete_VB6@8
    B3CBE _DAQmxGetSampQuantSampPerChan_VB6@8
    B3CBE __imp__DAQmxGetSampQuantSampPerChan_VB6@8
    EA378 _DAQmxSetSampQuantSampPerChan_VB6@8
    EA378 __imp__DAQmxSetSampQuantSampPerChan_VB6@8
    B317A _DAQmxGetSampClkDigFltrEnable_VB6@8
    B317A __imp__DAQmxGetSampClkDigFltrEnable_VB6@8
    B33FC _DAQmxGetSampClkDigSyncEnable_VB6@8
    B33FC __imp__DAQmxGetSampClkDigSyncEnable_VB6@8
    B3B40 _DAQmxGetSampClkWriteWfmUseInitialWfmDT_VB6@8
    B3B40 __imp__DAQmxGetSampClkWriteWfmUseInitialWfmDT_VB6@8
    A69DC _DAQmxGetChangeDetectDITristate_VB6@8
    A69DC __imp__DAQmxGetChangeDetectDITristate_VB6@8
    AF22E _DAQmxGetOnDemandSimultaneousAOEnable_VB6@8
    AF22E __imp__DAQmxGetOnDemandSimultaneousAOEnable_VB6@8
    930C2 _DAQmxGetAIConvDigFltrEnable_VB6@8
    930C2 __imp__DAQmxGetAIConvDigFltrEnable_VB6@8
    93544 _DAQmxGetAIConvDigSyncEnable_VB6@8
    93544 __imp__DAQmxGetAIConvDigSyncEnable_VB6@8
    AB7D8 _DAQmxGetDigEdgeStartTrigDigFltrEnable_VB6@8
    AB7D8 __imp__DAQmxGetDigEdgeStartTrigDigFltrEnable_VB6@8
    ABA84 _DAQmxGetDigEdgeStartTrigDigSyncEnable_VB6@8
    ABA84 __imp__DAQmxGetDigEdgeStartTrigDigSyncEnable_VB6@8
    9A04A _DAQmxGetAnlgEdgeStartTrigDigFltrEnable_VB6@8
    9A04A __imp__DAQmxGetAnlgEdgeStartTrigDigFltrEnable_VB6@8
    9A2FE _DAQmxGetAnlgEdgeStartTrigDigSyncEnable_VB6@8
    9A2FE __imp__DAQmxGetAnlgEdgeStartTrigDigSyncEnable_VB6@8
    9B94E _DAQmxGetAnlgWinStartTrigDigFltrEnable_VB6@8
    9B94E __imp__DAQmxGetAnlgWinStartTrigDigFltrEnable_VB6@8
    9BBFA _DAQmxGetAnlgWinStartTrigDigSyncEnable_VB6@8
    9BBFA __imp__DAQmxGetAnlgWinStartTrigDigSyncEnable_VB6@8
    B4898 _DAQmxGetStartTrigRetriggerable_VB6@8
    B4898 __imp__DAQmxGetStartTrigRetriggerable_VB6@8
    AB338 _DAQmxGetDigEdgeRefTrigDigFltrEnable_VB6@8
    AB338 __imp__DAQmxGetDigEdgeRefTrigDigFltrEnable_VB6@8
    AB5DA _DAQmxGetDigEdgeRefTrigDigSyncEnable_VB6@8
    AB5DA __imp__DAQmxGetDigEdgeRefTrigDigSyncEnable_VB6@8
    99A28 _DAQmxGetAnlgEdgeRefTrigDigFltrEnable_VB6@8
    99A28 __imp__DAQmxGetAnlgEdgeRefTrigDigFltrEnable_VB6@8
    99CD2 _DAQmxGetAnlgEdgeRefTrigDigSyncEnable_VB6@8
    99CD2 __imp__DAQmxGetAnlgEdgeRefTrigDigSyncEnable_VB6@8
    9B33C _DAQmxGetAnlgWinRefTrigDigFltrEnable_VB6@8
    9B33C __imp__DAQmxGetAnlgWinRefTrigDigFltrEnable_VB6@8
    9B5DE _DAQmxGetAnlgWinRefTrigDigSyncEnable_VB6@8
    9B5DE __imp__DAQmxGetAnlgWinRefTrigDigSyncEnable_VB6@8
    B2CBE _DAQmxGetRefTrigAutoTrigEnable_VB6@8
    B2CBE __imp__DAQmxGetRefTrigAutoTrigEnable_VB6@8
    B2DBA _DAQmxGetRefTrigAutoTriggered_VB6@8
    B2DBA __imp__DAQmxGetRefTrigAutoTriggered_VB6@8
    AAC6E _DAQmxGetDigEdgeAdvTrigDigFltrEnable_VB6@8
    AAC6E __imp__DAQmxGetDigEdgeAdvTrigDigFltrEnable_VB6@8
    9A67E _DAQmxGetAnlgLvlPauseTrigDigFltrEnable_VB6@8
    9A67E __imp__DAQmxGetAnlgLvlPauseTrigDigFltrEnable_VB6@8
    9A92A _DAQmxGetAnlgLvlPauseTrigDigSyncEnable_VB6@8
    9A92A __imp__DAQmxGetAnlgLvlPauseTrigDigSyncEnable_VB6@8
    9AD1E _DAQmxGetAnlgWinPauseTrigDigFltrEnable_VB6@8
    9AD1E __imp__DAQmxGetAnlgWinPauseTrigDigFltrEnable_VB6@8
    9AFCA _DAQmxGetAnlgWinPauseTrigDigSyncEnable_VB6@8
    9AFCA __imp__DAQmxGetAnlgWinPauseTrigDigSyncEnable_VB6@8
    ABD90 _DAQmxGetDigLvlPauseTrigDigFltrEnable_VB6@8
    ABD90 __imp__DAQmxGetDigLvlPauseTrigDigFltrEnable_VB6@8
    AC03A _DAQmxGetDigLvlPauseTrigDigSyncEnable_VB6@8
    AC03A __imp__DAQmxGetDigLvlPauseTrigDigSyncEnable_VB6@8
    AAE70 _DAQmxGetDigEdgeArmStartTrigDigFltrEnable_VB6@8
    AAE70 __imp__DAQmxGetDigEdgeArmStartTrigDigFltrEnable_VB6@8
    AB12E _DAQmxGetDigEdgeArmStartTrigDigSyncEnable_VB6@8
    AB12E __imp__DAQmxGetDigEdgeArmStartTrigDigSyncEnable_VB6@8
    B6CA6 _DAQmxGetWatchdogExpirTrigTrigOnNetworkConnLoss_VB6@8
    B6CA6 __imp__DAQmxGetWatchdogExpirTrigTrigOnNetworkConnLoss_VB6@8
    B6E2E _DAQmxGetWatchdogHasExpired_VB6@8
    B6E2E __imp__DAQmxGetWatchdogHasExpired_VB6@8
    B7132 _DAQmxGetWriteCurrWritePos_VB6@8
    B7132 __imp__DAQmxGetWriteCurrWritePos_VB6@8
    B77DA _DAQmxGetWriteOvercurrentChansExist_VB6@8
    B77DA __imp__DAQmxGetWriteOvercurrentChansExist_VB6@8
    B7AE8 _DAQmxGetWriteOvertemperatureChansExist_VB6@8
    B7AE8 __imp__DAQmxGetWriteOvertemperatureChansExist_VB6@8
    B73D4 _DAQmxGetWriteExternalOvervoltageChansExist_VB6@8
    B73D4 __imp__DAQmxGetWriteExternalOvervoltageChansExist_VB6@8
    B795C _DAQmxGetWriteOverloadedChansExist_VB6@8
    B795C __imp__DAQmxGetWriteOverloadedChansExist_VB6@8
    B7650 _DAQmxGetWriteOpenCurrentLoopChansExist_VB6@8
    B7650 __imp__DAQmxGetWriteOpenCurrentLoopChansExist_VB6@8
    B7C7A _DAQmxGetWritePowerSupplyFaultChansExist_VB6@8
    B7C7A __imp__DAQmxGetWritePowerSupplyFaultChansExist_VB6@8
    B7FDA _DAQmxGetWriteTotalSampPerChanGenerated_VB6@8
    B7FDA __imp__DAQmxGetWriteTotalSampPerChanGenerated_VB6@8
    B6FB2 _DAQmxGetWriteAccessoryInsertionOrRemovalDetected_VB6@8
    B6FB2 __imp__DAQmxGetWriteAccessoryInsertionOrRemovalDetected_VB6@8
    AFFCE _DAQmxGetPhysicalChanAOManualControlEnable_VB6@8
    AFFCE __imp__DAQmxGetPhysicalChanAOManualControlEnable_VB6@8
    B0170 _DAQmxGetPhysicalChanAOManualControlShortDetected_VB6@8
    B0170 __imp__DAQmxGetPhysicalChanAOManualControlShortDetected_VB6@8
    98F9A _DAQmxGetAOPowerAmpChannelEnable_VB6@8
    98F9A __imp__DAQmxGetAOPowerAmpChannelEnable_VB6@8
    99186 _DAQmxGetAOPowerAmpOvercurrent_VB6@8
    99186 __imp__DAQmxGetAOPowerAmpOvercurrent_VB6@8
    B0746 _DAQmxGetPhysicalChanDISampClkSupported_VB6@8
    B0746 __imp__DAQmxGetPhysicalChanDISampClkSupported_VB6@8
    B05B4 _DAQmxGetPhysicalChanDIChangeDetectSupported_VB6@8
    B05B4 __imp__DAQmxGetPhysicalChanDIChangeDetectSupported_VB6@8
    B0954 _DAQmxGetPhysicalChanDOSampClkSupported_VB6@8
    B0954 __imp__DAQmxGetPhysicalChanDOSampClkSupported_VB6@8
    AFBAC _DAQmxGetPersistedTaskAllowInteractiveEditing_VB6@8
    AFBAC __imp__DAQmxGetPersistedTaskAllowInteractiveEditing_VB6@8
    AFA90 _DAQmxGetPersistedTaskAllowInteractiveDeletion_VB6@8
    AFA90 __imp__DAQmxGetPersistedTaskAllowInteractiveDeletion_VB6@8
    AF548 _DAQmxGetPersistedChanAllowInteractiveEditing_VB6@8
    AF548 __imp__DAQmxGetPersistedChanAllowInteractiveEditing_VB6@8
    AF42C _DAQmxGetPersistedChanAllowInteractiveDeletion_VB6@8
    AF42C __imp__DAQmxGetPersistedChanAllowInteractiveDeletion_VB6@8
    AF87C _DAQmxGetPersistedScaleAllowInteractiveEditing_VB6@8
    AF87C __imp__DAQmxGetPersistedScaleAllowInteractiveEditing_VB6@8
    AF75E _DAQmxGetPersistedScaleAllowInteractiveDeletion_VB6@8
    AF75E __imp__DAQmxGetPersistedScaleAllowInteractiveDeletion_VB6@8
    B8148 _DAQmxInternalCreateTaskFromString@16
    B8148 __imp__DAQmxInternalCreateTaskFromString@16
    B9344 _DAQmxInternalSaveTaskToString@20
    B9344 __imp__DAQmxInternalSaveTaskToString@20
    B92C4 _DAQmxInternalReadAnalogWaveform@48
    B92C4 __imp__DAQmxInternalReadAnalogWaveform@48
    B8798 _DAQmxInternalGetLocalizedErrorString@16
    B8798 __imp__DAQmxInternalGetLocalizedErrorString@16
    B8714 _DAQmxInternalGetLastErrorDescription@16
    B8714 __imp__DAQmxInternalGetLastErrorDescription@16
    B8252 _DAQmxInternalGetChanAttributeDefaultI32@16
    B8252 __imp__DAQmxInternalGetChanAttributeDefaultI32@16
    B8364 _DAQmxInternalGetChanAttributeDefaultU32@16
    B8364 __imp__DAQmxInternalGetChanAttributeDefaultU32@16
    B83EC _DAQmxInternalGetChanAttributeDefaultU64@16
    B83EC __imp__DAQmxInternalGetChanAttributeDefaultU64@16
    B81CA _DAQmxInternalGetChanAttributeDefaultF64@16
    B81CA __imp__DAQmxInternalGetChanAttributeDefaultF64@16
    B82DA _DAQmxInternalGetChanAttributeDefaultString@20
    B82DA __imp__DAQmxInternalGetChanAttributeDefaultString@20
    B8E02 _DAQmxInternalGetTrigAttributeDefaultI32@12
    B8E02 __imp__DAQmxInternalGetTrigAttributeDefaultI32@12
    B8F14 _DAQmxInternalGetTrigAttributeDefaultU32@12
    B8F14 __imp__DAQmxInternalGetTrigAttributeDefaultU32@12
    B8F9C _DAQmxInternalGetTrigAttributeDefaultU64@12
    B8F9C __imp__DAQmxInternalGetTrigAttributeDefaultU64@12
    B8D7A _DAQmxInternalGetTrigAttributeDefaultF64@12
    B8D7A __imp__DAQmxInternalGetTrigAttributeDefaultF64@12
    B8E8A _DAQmxInternalGetTrigAttributeDefaultString@16
    B8E8A __imp__DAQmxInternalGetTrigAttributeDefaultString@16
    B88A6 _DAQmxInternalGetTimingAttributeDefaultI32@12
    B88A6 __imp__DAQmxInternalGetTimingAttributeDefaultI32@12
    B89BC _DAQmxInternalGetTimingAttributeDefaultU32@12
    B89BC __imp__DAQmxInternalGetTimingAttributeDefaultU32@12
    B8A46 _DAQmxInternalGetTimingAttributeDefaultU64@12
    B8A46 __imp__DAQmxInternalGetTimingAttributeDefaultU64@12
    B881C _DAQmxInternalGetTimingAttributeDefaultF64@12
    B881C __imp__DAQmxInternalGetTimingAttributeDefaultF64@12
    B8930 _DAQmxInternalGetTimingAttributeDefaultString@16
    B8930 __imp__DAQmxInternalGetTimingAttributeDefaultString@16
    B84FA _DAQmxInternalGetChanAttributeRangeI32@20
    B84FA __imp__DAQmxInternalGetChanAttributeRangeI32@20
    B8608 _DAQmxInternalGetChanAttributeRangeU32@20
    B8608 __imp__DAQmxInternalGetChanAttributeRangeU32@20
    B868E _DAQmxInternalGetChanAttributeRangeU64@20
    B868E __imp__DAQmxInternalGetChanAttributeRangeU64@20
    B8474 _DAQmxInternalGetChanAttributeRangeF64@20
    B8474 __imp__DAQmxInternalGetChanAttributeRangeF64@20
    B8580 _DAQmxInternalGetChanAttributeRangeString@20
    B8580 __imp__DAQmxInternalGetChanAttributeRangeString@20
    B90AA _DAQmxInternalGetTrigAttributeRangeI32@16
    B90AA __imp__DAQmxInternalGetTrigAttributeRangeI32@16
    B91B8 _DAQmxInternalGetTrigAttributeRangeU32@16
    B91B8 __imp__DAQmxInternalGetTrigAttributeRangeU32@16
    B923E _DAQmxInternalGetTrigAttributeRangeU64@16
    B923E __imp__DAQmxInternalGetTrigAttributeRangeU64@16
    B9024 _DAQmxInternalGetTrigAttributeRangeF64@16
    B9024 __imp__DAQmxInternalGetTrigAttributeRangeF64@16
    B9130 _DAQmxInternalGetTrigAttributeRangeString@16
    B9130 __imp__DAQmxInternalGetTrigAttributeRangeString@16
    B8B58 _DAQmxInternalGetTimingAttributeRangeI32@16
    B8B58 __imp__DAQmxInternalGetTimingAttributeRangeI32@16
    B8C6A _DAQmxInternalGetTimingAttributeRangeU32@16
    B8C6A __imp__DAQmxInternalGetTimingAttributeRangeU32@16
    B8CF2 _DAQmxInternalGetTimingAttributeRangeU64@16
    B8CF2 __imp__DAQmxInternalGetTimingAttributeRangeU64@16
    B8AD0 _DAQmxInternalGetTimingAttributeRangeF64@16
    B8AD0 __imp__DAQmxInternalGetTimingAttributeRangeF64@16
    B8BE0 _DAQmxInternalGetTimingAttributeRangeString@16
    B8BE0 __imp__DAQmxInternalGetTimingAttributeRangeString@16
    EF60A ___DAQmxSetTimingAttributeExFromParmInfo
    EF60A __imp____DAQmxSetTimingAttributeExFromParmInfo
    EEC30 ___DAQmxGetTimingAttributeExFromParmInfo
    EEC30 __imp____DAQmxGetTimingAttributeExFromParmInfo
    EF814 ___DAQmxSetWriteAttributeFromParmInfo
    EF814 __imp____DAQmxSetWriteAttributeFromParmInfo
    EF790 ___DAQmxSetWatchdogAttributeFromParmInfo
    EF790 __imp____DAQmxSetWatchdogAttributeFromParmInfo
    EF710 ___DAQmxSetTrigAttributeFromParmInfo
    EF710 __imp____DAQmxSetTrigAttributeFromParmInfo
    EF68E ___DAQmxSetTimingAttributeFromParmInfo
    EF68E __imp____DAQmxSetTimingAttributeFromParmInfo
    EF3F4 ___DAQmxSetScaleAttributeFromParmInfo
    EF3F4 __imp____DAQmxSetScaleAttributeFromParmInfo
    EF584 ___DAQmxSetSwitchScanAttributeFromParmInfo
    EF584 __imp____DAQmxSetSwitchScanAttributeFromParmInfo
    EF4FC ___DAQmxSetSwitchDeviceAttributeFromParmInfo
    EF4FC __imp____DAQmxSetSwitchDeviceAttributeFromParmInfo
    EF476 ___DAQmxSetSwitchChanAttributeFromParmInfo
    EF476 __imp____DAQmxSetSwitchChanAttributeFromParmInfo
    EF370 ___DAQmxSetRealTimeAttributeFromParmInfo
    EF370 __imp____DAQmxSetRealTimeAttributeFromParmInfo
    EF2F0 ___DAQmxSetReadAttributeFromParmInfo
    EF2F0 __imp____DAQmxSetReadAttributeFromParmInfo
    EF266 ___DAQmxSetExportedSignalAttributeFromParmInfo
    EF266 __imp____DAQmxSetExportedSignalAttributeFromParmInfo
    EF0D0 ___DAQmxSetChanAttributeFromParmInfo
    EF0D0 __imp____DAQmxSetChanAttributeFromParmInfo
    EF04C ___DAQmxSetCalInfoAttributeFromParmInfo
    EF04C __imp____DAQmxSetCalInfoAttributeFromParmInfo
    EEFCA ___DAQmxSetBufferAttributeFromParmInfo
    EEFCA __imp____DAQmxSetBufferAttributeFromParmInfo
    EE674 ___DAQmxGetPersistedScaleAttributeFromParmInfo
    EE674 __imp____DAQmxGetPersistedScaleAttributeFromParmInfo
    EE5EA ___DAQmxGetPersistedChanAttributeFromParmInfo
    EE5EA __imp____DAQmxGetPersistedChanAttributeFromParmInfo
    EE6FE ___DAQmxGetPersistedTaskAttributeFromParmInfo
    EE6FE __imp____DAQmxGetPersistedTaskAttributeFromParmInfo
    EE788 ___DAQmxGetPhysicalChanAttributeFromParmInfo
    EE788 __imp____DAQmxGetPhysicalChanAttributeFromParmInfo
    EEE3A ___DAQmxGetWriteAttributeFromParmInfo
    EEE3A __imp____DAQmxGetWriteAttributeFromParmInfo
    EEDB6 ___DAQmxGetWatchdogAttributeFromParmInfo
    EEDB6 __imp____DAQmxGetWatchdogAttributeFromParmInfo
    EED36 ___DAQmxGetTrigAttributeFromParmInfo
    EED36 __imp____DAQmxGetTrigAttributeFromParmInfo
    EECB4 ___DAQmxGetTimingAttributeFromParmInfo
    EECB4 __imp____DAQmxGetTimingAttributeFromParmInfo
    EEBB0 ___DAQmxGetTaskAttributeFromParmInfo
    EEBB0 __imp____DAQmxGetTaskAttributeFromParmInfo
    EEB2A ___DAQmxGetSystemInfoAttributeFromParmInfo
    EEB2A __imp____DAQmxGetSystemInfoAttributeFromParmInfo
    EE914 ___DAQmxGetScaleAttributeFromParmInfo
    EE914 __imp____DAQmxGetScaleAttributeFromParmInfo
    EEAA4 ___DAQmxGetSwitchScanAttributeFromParmInfo
    EEAA4 __imp____DAQmxGetSwitchScanAttributeFromParmInfo
    EEA1C ___DAQmxGetSwitchDeviceAttributeFromParmInfo
    EEA1C __imp____DAQmxGetSwitchDeviceAttributeFromParmInfo
    EE996 ___DAQmxGetSwitchChanAttributeFromParmInfo
    EE996 __imp____DAQmxGetSwitchChanAttributeFromParmInfo
    EE890 ___DAQmxGetRealTimeAttributeFromParmInfo
    EE890 __imp____DAQmxGetRealTimeAttributeFromParmInfo
    EE810 ___DAQmxGetReadAttributeFromParmInfo
    EE810 __imp____DAQmxGetReadAttributeFromParmInfo
    EE3C8 ___DAQmxGetDeviceAttributeFromParmInfo
    EE3C8 __imp____DAQmxGetDeviceAttributeFromParmInfo
    EE560 ___DAQmxGetExportedSignalAttributeFromParmInfo
    EE560 __imp____DAQmxGetExportedSignalAttributeFromParmInfo
    EE348 ___DAQmxGetChanAttributeFromParmInfo
    EE348 __imp____DAQmxGetChanAttributeFromParmInfo
    EE2C4 ___DAQmxGetCalInfoAttributeFromParmInfo
    EE2C4 __imp____DAQmxGetCalInfoAttributeFromParmInfo
    EE242 ___DAQmxGetBufferAttributeFromParmInfo
    EE242 __imp____DAQmxGetBufferAttributeFromParmInfo
    EE134 ___DAQmxGetAnalogPowerUpStatesFromParmInfo
    EE134 __imp____DAQmxGetAnalogPowerUpStatesFromParmInfo
    EE1BA ___DAQmxGetAnalogPowerUpStatesWithOutputType
    EE1BA __imp____DAQmxGetAnalogPowerUpStatesWithOutputType
    EEEBC ___DAQmxSetAnalogPowerUpStatesFromParmInfo
    EEEBC __imp____DAQmxSetAnalogPowerUpStatesFromParmInfo
    EEF42 ___DAQmxSetAnalogPowerUpStatesWithOutputType
    EEF42 __imp____DAQmxSetAnalogPowerUpStatesWithOutputType
    EE4D2 ___DAQmxGetDigitalPullUpPullDownStatesFromParmInfo
    EE4D2 __imp____DAQmxGetDigitalPullUpPullDownStatesFromParmInfo
    EF1D8 ___DAQmxSetDigitalPullUpPullDownStatesFromParmInfo
    EF1D8 __imp____DAQmxSetDigitalPullUpPullDownStatesFromParmInfo
    EE44A ___DAQmxGetDigitalPowerUpStatesFromParmInfo
    EE44A __imp____DAQmxGetDigitalPowerUpStatesFromParmInfo
    EF150 ___DAQmxSetDigitalPowerUpStatesFromParmInfo
    EF150 __imp____DAQmxSetDigitalPowerUpStatesFromParmInfo
    EE0AC ___DAQmxCreateWatchdogTimerTaskFromParmInfo
    EE0AC __imp____DAQmxCreateWatchdogTimerTaskFromParmInfo
    B63CE _DAQmxGetTaskAsINI@16
    B63CE __imp__DAQmxGetTaskAsINI@16
    8F554 _DAQmxCreateTaskFromINI@12
    8F554 __imp__DAQmxCreateTaskFromINI@12
    89226 ?compareVersion@nNICAI100@@YGXABVtSSVersion@@0AAJPBD@Z
    89226 __imp_?compareVersion@nNICAI100@@YGXABVtSSVersion@@0AAJPBD@Z
    89348 ?getOldestCompatibleVersion@nNICAI100@@YG?AVtSSVersion@@AAJ@Z
    89348 __imp_?getOldestCompatibleVersion@nNICAI100@@YG?AVtSSVersion@@AAJ@Z
    892B8 ?getCurrentVersion@nNICAI100@@YG?AVtSSVersion@@AAJ@Z
    892B8 __imp_?getCurrentVersion@nNICAI100@@YG?AVtSSVersion@@AAJ@Z

Archive member name at 443FA: /               
56BB4622 time/date Wed Feb 10 14:16:02 2016
         uid
         gid
       0 mode
   443C0 size
correct header end

    3330 offsets

        1    887F6
        2    88A1C
        3    88B52
        4    B3010
        5    E99B6
        6    AEECE
        7    E8BDC
        8    D036A
        9    AA3F2
        A    E51D0
        B    88CA2
        C    88D2C
        D    88DB6
        E    88E40
        F    88ECA
       10    8910A
       11    88FEA
       12    88F5A
       13    89198
       14    8907A
       15    B9518
       16    8F4E6
       17    894D2
       18    ECC50
       19    ECCBE
       1A    8CC30
       1B    ED698
       1C    B9438
       1D    ED43C
       1E    AF044
       1F    AF0BA
       20    B6440
       21    BA54A
       22    BA45A
       23    BA64E
       24    8DDC2
       25    8D04E
       26    8DEBC
       27    8D0C6
       28    8DA40
       29    8D7D0
       2A    8DAB8
       2B    8DB34
       2C    8D3C8
       2D    8D844
       2E    8D942
       2F    8D8C0
       30    8D2C6
       31    8D244
       32    8D1BE
       33    8D744
       34    8D6C0
       35    8D636
       36    8DCBA
       37    8DC38
       38    8DBB0
       39    8CFD6
       3A    8DE3A
       3B    8D9BE
       3C    8CF60
       3D    8DD44
       3E    8D34E
       3F    8D444
       40    8D546
       41    8D5BE
       42    8D4C0
       43    8D142
       44    8F36E
       45    8EC82
       46    8F170
       47    8EFF8
       48    8F1EC
       49    8F26C
       4A    8F070
       4B    8F0F0
       4C    8ECFE
       4D    8EF74
       4E    8F2EC
       4F    8EC06
       50    8F3EA
       51    8EB8C
       52    8ED7E
       53    8EDFC
       54    8EE7C
       55    8EEF8
       56    8E028
       57    8DF38
       58    8DFB0
       59    8E946
       5A    8E9B8
       5B    8E28E
       5C    8E47A
       5D    8E198
       5E    8E214
       5F    8E662
       60    8E6DE
       61    8E75A
       62    8E4F2
       63    8E5E8
       64    8E56C
       65    8E382
       66    8E0A0
       67    8E3FE
       68    8E11C
       69    8E304
       6A    8E7D6
       6B    8E8CC
       6C    8E850
       6D    9277A
       6E    D4052
       6F    92960
       70    D41BA
       71    A6602
       72    E3E26
       73    CB7DE
       74    8C8DE
       75    8C510
       76    8C09E
       77    8BF86
       78    8C1B6
       79    8C608
       7A    8C7DE
       7B    B67E0
       7C    EB444
       7D    D202A
       7E    B6854
       7F    EB4B8
       80    D20A2
       81    8FB62
       82    8C3A2
       83    8BE16
       84    8BF0A
       85    8C494
       86    8FAF0
       87    8C32C
       88    8BD9E
       89    8BE90
       8A    8C41A
       8B    8FA7E
       8C    8C2B6
       8D    B68CA
       8E    EB52E
       8F    D211E
       90    D2C68
       91    B9974
       92    B99E6
       93    B9A5E
       94    B9B42
       95    B9AD0
       96    B9BB4
       97    BA37C
       98    BA294
       99    BA308
       9A    BA21A
       9B    BA1A4
       9C    B9C26
       9D    B9E04
       9E    B9C9A
       9F    B9E78
       A0    B9D10
       A1    B9D8A
       A2    B9EEE
       A3    BA0BE
       A4    B9FD4
       A5    B9F5E
       A6    BA12E
       A7    BA046
       A8    BA3EE
       A9    AF130
       AA    B100A
       AB    E8F48
       AC    D066A
       AD    8CD0E
       AE    ECBE0
       AF    ED70E
       B0    ED782
       B1    ED7FC
       B2    ED8E4
       B3    ED870
       B4    ED958
       B5    EDE62
       B6    EDD7A
       B7    EDDEE
       B8    EDD00
       B9    EDC8A
       BA    ED9CC
       BB    EDA3E
       BC    EDBA0
       BD    EDC12
       BE    EDAB6
       BF    EDB28
       C0    EDED6
       C1    B7046
       C2    EB9FE
       C3    D2606
       C4    8FD42
       C5    AE194
       C6    E8108
       C7    CF974
       C8    8EA2A
       C9    8EA9E
       CA    8EB12
       CB    8F470
       CC    8BD20
       CD    B3E2C
       CE    EA4E6
       CF    8C6F8
       D0    8C76A
       D1    9C14E
       D2    DBA94
       D3    C34B4
       D4    ECE88
       D5    ECDA0
       D6    ECE12
       D7    ECF00
       D8    ECFEE
       D9    ECF76
       DA    ED344
       DB    ED068
       DC    ED2D0
       DD    ECD2A
       DE    ED1D6
       DF    ED0DC
       E0    ED254
       E1    ED15A
       E2    ED3C2
       E3    B4B14
       E4    EADFA
       E5    B59E6
       E6    EB076
       E7    B5A60
       E8    EB0F0
       E9    D1CC8
       EA    8CE76
       EB    8FC58
       EC    ED4AC
       ED    CCBB4
       EE    D2BF6
       EF    AAB78
       F0    8F5CA
       F1    8F644
       F2    8CEE8
       F3    8C9CE
       F4    8CA4C
       F5    8CACA
       F6    B6AAA
       F7    EB70E
       F8    D2308
       F9    D2B8A
       FA    B95FA
       FB    B967C
       FC    B98EC
       FD    B97F6
       FE    B9870
       FF    B9700
      100    B977A
      101    B4542
      102    AE430
      103    D28D0
      104    8FCCC
      105    B9584
      106    D29C4
      107    D294A
      108    893E2
      109    EE036
      10A    8F98E
      10B    A638E
      10C    E3D36
      10D    B80D8
      10E    8CC9E
      10F    8CB48
      110    8F742
      111    8B844
      112    8B8B8
      113    8B92E
      114    8B9B4
      115    8A408
      116    8BAA4
      117    8BA28
      118    ECB66
      119    9009C
      11A    8A396
      11B    EC6F2
      11C    8BB1E
      11D    89D5A
      11E    89DCC
      11F    89E3E
      120    89EB0
      121    EC680
      122    8A240
      123    EC60E
      124    8A1CE
      125    90020
      126    89F22
      127    EC3D4
      128    8FDB4
      129    89F94
      12A    EC446
      12B    8FE30
      12C    8A006
      12D    EC4B8
      12E    8FEAC
      12F    8A078
      130    EC52A
      131    8FF28
      132    8A0EA
      133    8A2B2
      134    8A324
      135    EC59C
      136    8A15C
      137    8FFA4
      138    8CDF6
      139    8FBD6
      13A    B0E60
      13B    E9932
      13C    90114
      13D    8BCAA
      13E    8A47A
      13F    90190
      140    8A4EC
      141    8A562
      142    8A5DA
      143    8A64C
      144    9020C
      145    8A6BE
      146    8A734
      147    90288
      148    8A7AC
      149    8A822
      14A    90304
      14B    8A89A
      14C    8A910
      14D    8A988
      14E    90380
      14F    8A9FA
      150    903FC
      151    8AA6C
      152    90478
      153    8AADE
      154    904F4
      155    8AB50
      156    90570
      157    8ABC2
      158    905EC
      159    8AC34
      15A    EC764
      15B    90668
      15C    8ACA6
      15D    EC7D6
      15E    906E4
      15F    8AD18
      160    90760
      161    8AD8A
      162    907DC
      163    8ADFC
      164    90858
      165    8AE6E
      166    908D4
      167    8AEE0
      168    90950
      169    8AF52
      16A    909CC
      16B    8AFC4
      16C    90A48
      16D    8B036
      16E    90AC4
      16F    8B0A8
      170    90B40
      171    8B11A
      172    90BBC
      173    8B18C
      174    90C38
      175    8B1FE
      176    8B274
      177    90CB4
      178    8B2EC
      179    90D30
      17A    8B35E
      17B    90DAC
      17C    EC848
      17D    8B3D0
      17E    90E28
      17F    EC8BA
      180    8B442
      181    90EA4
      182    8B4B4
      183    90F20
      184    8B526
      185    90F9C
      186    8B598
      187    91018
      188    EC92C
      189    8B60A
      18A    91094
      18B    EC99E
      18C    8B67C
      18D    91110
      18E    ECA10
      18F    8B6EE
      190    9118C
      191    ECA82
      192    8B760
      193    91208
      194    ECAF4
      195    8B7D2
      196    EBCBA
      197    895C0
      198    EBD2C
      199    89632
      19A    EBD9C
      19B    896A4
      19C    EBE0C
      19D    89716
      19E    EBE7E
      19F    89788
      1A0    EBEF0
      1A1    897FA
      1A2    EBF62
      1A3    8986C
      1A4    EBFD4
      1A5    898DE
      1A6    EC046
      1A7    89950
      1A8    EC0B8
      1A9    899C2
      1AA    EC12A
      1AB    89A34
      1AC    EC19C
      1AD    89AA6
      1AE    89B18
      1AF    EC20E
      1B0    89B92
      1B1    EC280
      1B2    89C04
      1B3    EC2F0
      1B4    89C76
      1B5    EC362
      1B6    89CE8
      1B7    8CD84
      1B8    8CBC2
      1B9    EDF44
      1BA    EDFBE
      1BB    B039E
      1BC    ED59C
      1BD    B2746
      1BE    E936A
      1BF    D0A9E
      1C0    B93C2
      1C1    D2B1C
      1C2    D2A3A
      1C3    D2AAE
      1C4    8F91A
      1C5    8F82C
      1C6    8F8A6
      1C7    AFC3C
      1C8    AF5D8
      1C9    AF90C
      1CA    B6356
      1CB    E684A
      1CC    AC6B0
      1CD    E6944
      1CE    AC72A
      1CF    D98B4
      1D0    D992C
      1D1    99828
      1D2    998A0
      1D3    E67C4
      1D4    AC62A
      1D5    8954A
      1D6    8F7B4
      1D7    BA7BE
      1D8    ED522
      1D9    8BC24
      1DA    9BEE0
      1DB    8BB98
      1DC    AC7AA
      1DD    89458
      1DE    BA742
      1DF    AC82A
      1E0    AE5A4
      1E1    9BF68
      1E2    DB92A
      1E3    C3344
      1E4    9BFDE
      1E5    9C05A
      1E6    DB9A0
      1E7    C33BC
      1E8    9C0D2
      1E9    DBA18
      1EA    C3436
      1EB    B4636
      1EC    B45C0
      1ED    AE524
      1EE    AE4AE
      1EF    A6490
      1F0    E3DAC
      1F1    A650A
      1F2    A631C
      1F3    A62A0
      1F4    E3CBA
      1F5    A6404
      1F6    95C3A
      1F7    D6BE0
      1F8    BE6C2
      1F9    95E8A
      1FA    D6D44
      1FB    BE828
      1FC    93CC0
      1FD    D522E
      1FE    BCCDE
      1FF    95CA8
      200    97C3C
      201    D8412
      202    BFF22
      203    97CB2
      204    D8488
      205    BFF9A
      206    97BC0
      207    D8396
      208    BFEA6
      209    972C0
      20A    D7B86
      20B    BF688
      20C    9760A
      20D    D7DE0
      20E    BF8E6
      20F    97590
      210    D7D66
      211    BF86A
      212    9741E
      213    97496
      214    D7C6C
      215    BF76E
      216    973A6
      217    963A6
      218    D7158
      219    BEC46
      21A    96336
      21B    D70E8
      21C    BEBD6
      21D    961EC
      21E    D6F9E
      21F    BEA86
      220    9625A
      221    D700C
      222    BEAF6
      223    962C8
      224    D707A
      225    BEB66
      226    97680
      227    D7E56
      228    BF95C
      229    976F2
      22A    D7EC8
      22B    BF9D0
      22C    97764
      22D    D7F3A
      22E    BFA44
      22F    977D6
      230    D7FAC
      231    BFAB8
      232    95140
      233    D62C6
      234    BDD98
      235    93C4A
      236    D51B8
      237    BCC66
      238    93AD4
      239    D5042
      23A    BCAEE
      23B    971D6
      23C    D7B10
      23D    BF612
      23E    96FC8
      23F    D798C
      240    BF48A
      241    970D8
      242    D7A12
      243    BF510
      244    97156
      245    D7A90
      246    BF590
      247    96F50
      248    D7914
      249    BF412
      24A    96BC6
      24B    96AB6
      24C    D7606
      24D    BF0FA
      24E    96C4C
      24F    96B3C
      250    D768C
      251    BF182
      252    9686C
      253    D74AA
      254    BEF9C
      255    9539E
      256    D64A4
      257    BDF7A
      258    95322
      259    D6428
      25A    BDEFE
      25B    952B0
      25C    D63B6
      25D    BDE8A
      25E    95742
      25F    D6764
      260    BE240
      261    9564A
      262    D666C
      263    BE146
      264    956C4
      265    D66E6
      266    BE1C0
      267    96510
      268    D72C2
      269    BEDB2
      26A    96418
      26B    D71CA
      26C    BECB8
      26D    96492
      26E    D7244
      26F    BED32
      270    947EA
      271    D5B72
      272    BD634
      273    946D2
      274    D5A5A
      275    BD51A
      276    9475C
      277    D5AE4
      278    BD5A4
      279    96DCE
      27A    D7792
      27B    BF28A
      27C    96E58
      27D    D781C
      27E    BF316
      27F    96ED4
      280    D7898
      281    BF394
      282    95E0A
      283    D6CC4
      284    BE7A8
      285    91660
      286    D303C
      287    BAB94
      288    916D4
      289    D30B0
      28A    BAC0A
      28B    91566
      28C    D2F42
      28D    BAA98
      28E    915E0
      28F    D2FBC
      290    BAB14
      291    97B48
      292    D831E
      293    BFE2E
      294    97AC6
      295    D829C
      296    BFDAC
      297    979B2
      298    D8188
      299    BFC96
      29A    97A3A
      29B    D8210
      29C    BFD1E
      29D    9523C
      29E    D6342
      29F    BDE14
      2A0    95032
      2A1    D61B8
      2A2    BDC88
      2A3    950B6
      2A4    D623C
      2A5    BDD0E
      2A6    96100
      2A7    D6EB2
      2A8    BE998
      2A9    9784A
      2AA    D8020
      2AB    BFB2C
      2AC    92604
      2AD    D3F5E
      2AE    BBAD6
      2AF    91A1A
      2B0    D33F6
      2B1    BAF5A
      2B2    91C12
      2B3    D35EE
      2B4    BB156
      2B5    91D90
      2B6    D376C
      2B7    BB2D8
      2B8    923D0
      2B9    D3D2A
      2BA    BB89E
      2BB    9245E
      2BC    D3DB8
      2BD    BB92C
      2BE    924EA
      2BF    D3E44
      2C0    BB9B8
      2C1    92578
      2C2    D3ED2
      2C3    BBA48
      2C4    922CA
      2C5    D3C24
      2C6    BB798
      2C7    9234E
      2C8    D3CA8
      2C9    BB81C
      2CA    91C90
      2CB    D366C
      2CC    BB1D4
      2CD    91D10
      2CE    D36EC
      2CF    BB256
      2D0    95566
      2D1    9724C
      2D2    93A62
      2D3    D4FD0
      2D4    BCA7A
      2D5    95480
      2D6    D6586
      2D7    BE05E
      2D8    97334
      2D9    D7BFA
      2DA    BF6FC
      2DB    954F4
      2DC    D65FA
      2DD    BE0D2
      2DE    967F4
      2DF    D7432
      2E0    BEF24
      2E1    957B6
      2E2    D67D8
      2E3    BE2B4
      2E4    919A6
      2E5    D3382
      2E6    BAEE6
      2E7    91B94
      2E8    D3570
      2E9    BB0D8
      2EA    91B16
      2EB    D34F2
      2EC    BB058
      2ED    91A9A
      2EE    D3476
      2EF    BAFDA
      2F0    91E0A
      2F1    D37E6
      2F2    BB352
      2F3    91F8C
      2F4    D38E6
      2F5    BB456
      2F6    92128
      2F7    D3A82
      2F8    BB5F4
      2F9    91F0A
      2FA    D3864
      2FB    BB3D2
      2FC    9209C
      2FD    D39F6
      2FE    BB568
      2FF    9200A
      300    D3964
      301    BB4D6
      302    9223E
      303    D3B98
      304    BB70C
      305    921AC
      306    D3B06
      307    BB67A
      308    918A8
      309    D3284
      30A    BADE4
      30B    91928
      30C    D3304
      30D    BAE66
      30E    93B50
      30F    D50BE
      310    BCB6A
      311    93BCA
      312    D5138
      313    BCBE4
      314    94AEE
      315    D5DEC
      316    BD8B2
      317    94B62
      318    D5E60
      319    BD928
      31A    94DD0
      31B    D5FCC
      31C    BDA98
      31D    94BD4
      31E    D5ED2
      31F    BD99C
      320    94CD0
      321    D5F4E
      322    BDA1A
      323    9497E
      324    D5C7C
      325    BD740
      326    949F6
      327    D5CF4
      328    BD7BA
      329    94E42
      32A    D603E
      32B    BDB0C
      32C    94A6C
      32D    D5D6A
      32E    BD830
      32F    91284
      330    D2CE0
      331    BA836
      332    912FA
      333    D2D56
      334    BA8AC
      335    913F6
      336    D2DD2
      337    BA928
      338    95FF8
      339    D6E30
      33A    BE916
      33B    9750E
      33C    D7CE4
      33D    BF7E6
      33E    91748
      33F    D3124
      340    BAC80
      341    96178
      342    D6F2A
      343    BEA10
      344    9593A
      345    D695C
      346    BE43A
      347    958BE
      348    D68E0
      349    BE3BE
      34A    95A2E
      34B    D69D4
      34C    BE4B2
      34D    95B32
      34E    D6AD8
      34F    BE5B8
      350    95AAE
      351    D6A54
      352    BE534
      353    95BB6
      354    D6B5C
      355    BE63E
      356    94110
      357    D5604
      358    BD0BC
      359    944F6
      35A    D596E
      35B    BD42C
      35C    9447C
      35D    D58F4
      35E    BD3B2
      35F    94406
      360    D587E
      361    BD33A
      362    94288
      363    D5700
      364    BD1B8
      365    94204
      366    D567C
      367    BD134
      368    93F98
      369    D548C
      36A    BCF40
      36B    9401C
      36C    D5510
      36D    BCFC4
      36E    9430A
      36F    D5782
      370    BD23C
      371    9438A
      372    D5802
      373    BD2BE
      374    9409A
      375    D558E
      376    BD044
      377    94EC2
      378    94FB8
      379    D613E
      37A    BDC0C
      37B    966F8
      37C    D73B6
      37D    BEEA8
      37E    94F38
      37F    D60BE
      380    BDB8C
      381    9182E
      382    D320A
      383    BAD68
      384    9695A
      385    968E6
      386    96682
      387    96604
      388    914EE
      389    D2ECA
      38A    BAA20
      38B    91470
      38C    D2E4C
      38D    BA9A2
      38E    945E2
      38F    D59E4
      390    BD4A2
      391    929D8
      392    92868
      393    D4140
      394    BBC42
      395    9267A
      396    D3FD4
      397    BBB4C
      398    92C5E
      399    D43B4
      39A    BBE40
      39B    92CD8
      39C    D442E
      39D    BBEBC
      39E    92D5C
      39F    D44B2
      3A0    BBF40
      3A1    92B5A
      3A2    D42B0
      3A3    BBD3C
      3A4    92BDC
      3A5    D4332
      3A6    BBDBE
      3A7    92ADC
      3A8    D4232
      3A9    BBCBE
      3AA    927F2
      3AB    D40CA
      3AC    BBBCC
      3AD    92E5A
      3AE    D45B0
      3AF    BC040
      3B0    92DDC
      3B1    D4532
      3B2    BBFC2
      3B3    969D4
      3B4    D7524
      3B5    BF016
      3B6    96A46
      3B7    D7596
      3B8    BF088
      3B9    93D3A
      3BA    D52A8
      3BB    BCD58
      3BC    95412
      3BD    D6518
      3BE    BDFEE
      3BF    96CD2
      3C0    D7716
      3C1    BF20E
      3C2    917B8
      3C3    D3194
      3C4    BACF0
      3C5    93E2E
      3C6    D539C
      3C7    BCE4E
      3C8    93EA4
      3C9    D5412
      3CA    BCEC6
      3CB    93DAC
      3CC    D531A
      3CD    BCDCC
      3CE    9793A
      3CF    D8110
      3D0    BFC1C
      3D1    978C0
      3D2    D8096
      3D3    BFBA2
      3D4    95D1A
      3D5    D6C4E
      3D6    BE730
      3D7    96584
      3D8    D7336
      3D9    BEE26
      3DA    95832
      3DB    D6854
      3DC    BE332
      3DD    93F1E
      3DE    9486E
      3DF    D5BF6
      3E0    BD6B8
      3E1    95EF8
      3E2    D6DB2
      3E3    BE896
      3E4    98C62
      3E5    D9234
      3E6    C0D64
      3E7    98DC0
      3E8    D9318
      3E9    C0E4A
      3EA    97D9E
      3EB    D8574
      3EC    C008A
      3ED    98EA8
      3EE    99740
      3EF    D97CC
      3F0    C1304
      3F1    996C2
      3F2    D974E
      3F3    C1286
      3F4    97D28
      3F5    D84FE
      3F6    C0012
      3F7    98A8A
      3F8    D905C
      3F9    C0B88
      3FA    9889C
      3FB    D8E6E
      3FC    C0998
      3FD    987A6
      3FE    D8D78
      3FF    C089E
      400    98992
      401    D8F64
      402    C0A8E
      403    98A0A
      404    D8FDC
      405    C0B06
      406    98912
      407    D8EE4
      408    C0A0E
      409    98820
      40A    D8DF2
      40B    C091A
      40C    98E2E
      40D    D9386
      40E    C0EB8
      40F    98BEA
      410    D91BC
      411    C0CEC
      412    98B6E
      413    D9140
      414    C0C6E
      415    99466
      416    D9570
      417    C10A6
      418    993EC
      419    D94F6
      41A    C102C
      41B    99378
      41C    982D4
      41D    D89AA
      41E    C04C8
      41F    98348
      420    D8A1E
      421    C053E
      422    9807E
      423    D87D2
      424    C02EE
      425    97F7E
      426    D8754
      427    C026E
      428    981EC
      429    D88C2
      42A    C03E0
      42B    98176
      42C    D884C
      42D    C0368
      42E    98260
      42F    D8936
      430    C0454
      431    97E92
      432    D8668
      433    C017E
      434    97E18
      435    D85EE
      436    C0104
      437    97F08
      438    D86DE
      439    C01F6
      43A    99284
      43B    D947E
      43C    C0FB2
      43D    98636
      43E    D8C08
      43F    C072C
      440    9872C
      441    D8CFE
      442    C0822
      443    986AC
      444    D8C7E
      445    C07A2
      446    98B00
      447    D90D2
      448    C0BFE
      449    995CA
      44A    D96D4
      44B    C120C
      44C    983BC
      44D    D8A92
      44E    C05B2
      44F    98432
      450    D8B08
      451    C062A
      452    99552
      453    D965C
      454    C1192
      455    994D8
      456    D95E2
      457    C1118
      458    98CD0
      459    D92A2
      45A    C0DD2
      45B    984AC
      45C    98526
      45D    D8B82
      45E    C06A4
      45F    A7022
      460    E44EC
      461    CBEB8
      462    A7278
      463    A6BC2
      464    E4206
      465    CBBCC
      466    A6DB6
      467    E42FC
      468    CBCC4
      469    A6C3A
      46A    E427E
      46B    CBC44
      46C    A6EB2
      46D    E43F8
      46E    CBDC2
      46F    A6E34
      470    E437A
      471    CBD44
      472    A6F2E
      473    E4474
      474    CBE40
      475    A72EA
      476    E464E
      477    CC01C
      478    A7112
      479    E4562
      47A    CBF2E
      47B    A6AD2
      47C    E4116
      47D    CBADA
      47E    A6B48
      47F    E418C
      480    CBB52
      481    A744C
      482    E473A
      483    CC10A
      484    A73D2
      485    E46C0
      486    CC090
      487    A7188
      488    E45D8
      489    CBFA4
      48A    A6A5E
      48B    E40A2
      48C    CBA66
      48D    A7A6C
      48E    E4BF4
      48F    CC5CE
      490    A7628
      491    E4916
      492    CC2EC
      493    A79FA
      494    A7CEC
      495    E4DEE
      496    CC7CA
      497    A7816
      498    E4A8A
      499    CC460
      49A    A7796
      49B    E4A0A
      49C    CC3E0
      49D    A7718
      49E    E498C
      49F    CC362
      4A0    A7894
      4A1    E4B08
      4A2    CC4E0
      4A3    A7BEE
      4A4    E4CF0
      4A5    CC6CA
      4A6    A7AE6
      4A7    E4C6E
      4A8    CC648
      4A9    A7C68
      4AA    E4D6A
      4AB    CC746
      4AC    A7EC6
      4AD    E4F52
      4AE    CC932
      4AF    A74C4
      4B0    E47B2
      4B1    CC184
      4B2    A753A
      4B3    E4828
      4B4    CC1FC
      4B5    A7E4E
      4B6    E4EDA
      4B7    CC8B8
      4B8    A7DD4
      4B9    E4E60
      4BA    CC83E
      4BB    A790A
      4BC    E4B7E
      4BD    CC556
      4BE    A75B4
      4BF    E48A2
      4C0    CC276
      4C1    A063E
      4C2    DF2F6
      4C3    C6D8C
      4C4    A0886
      4C5    DF452
      4C6    C6EEA
      4C7    9E29A
      4C8    DD588
      4C9    C4FE6
      4CA    A0724
      4CB    A0366
      4CC    DF01E
      4CD    C6AAE
      4CE    A027E
      4CF    DEF36
      4D0    C69C4
      4D1    A02F0
      4D2    DEFA8
      4D3    C6A38
      4D4    A009A
      4D5    DED52
      4D6    C67D8
      4D7    9FBAC
      4D8    DE9E6
      4D9    C6468
      4DA    9FCA8
      4DB    DEA62
      4DC    C64E4
      4DD    9FDAC
      4DE    DEB66
      4DF    C65EA
      4E0    9FD2A
      4E1    DEAE4
      4E2    C6568
      4E3    9FE2C
      4E4    DEBE6
      4E5    C666C
      4E6    A0204
      4E7    DEEBC
      4E8    C6948
      4E9    A0118
      4EA    DEDD0
      4EB    C6858
      4EC    9FF9A
      4ED    DECD4
      4EE    C675A
      4EF    A018E
      4F0    DEE46
      4F1    C68D0
      4F2    9FF28
      4F3    DEC62
      4F4    C66E8
      4F5    A11C6
      4F6    DFB12
      4F7    C75B8
      4F8    A10DA
      4F9    DFA26
      4FA    C74CA
      4FB    A114E
      4FC    DFA9A
      4FD    C7540
      4FE    A0EEE
      4FF    DF83A
      500    C72D6
      501    A09EC
      502    DF4C0
      503    C6F58
      504    A0AEC
      505    DF53E
      506    C6FD6
      507    A0BF4
      508    DF646
      509    C70E0
      50A    A0B70
      50B    DF5C2
      50C    C705C
      50D    A0C76
      50E    DF6C8
      50F    C7164
      510    A105E
      511    DF9AA
      512    C744C
      513    A0F6E
      514    DF8BA
      515    C7358
      516    A0DEA
      517    DF7BA
      518    C7256
      519    A0FE6
      51A    DF932
      51B    C73D2
      51C    A0D76
      51D    DF746
      51E    C71E2
      51F    9DC04
      520    DCFFE
      521    C4A50
      522    9DC7C
      523    DD076
      524    C4ACA
      525    9DB80
      526    DCF7A
      527    C49CA
      528    9D0B6
      529    DC6C8
      52A    C4106
      52B    9D1BE
      52C    DC74A
      52D    C4188
      52E    9D2CE
      52F    DC85A
      530    C429A
      531    9D246
      532    DC7D2
      533    C4212
      534    9D354
      535    DC8E0
      536    C4322
      537    9D45C
      538    DC962
      539    C43A4
      53A    9D4D4
      53B    DC9DA
      53C    C441C
      53D    9C894
      53E    DC04E
      53F    C3A7E
      540    9C808
      541    DBFC2
      542    C39F0
      543    9C42A
      544    DBD00
      545    C372A
      546    9C542
      547    DBD8A
      548    C37B4
      549    9C662
      54A    DBEAA
      54B    C38D6
      54C    9C5D2
      54D    DBE1A
      54E    C3846
      54F    9C6F0
      550    DBF38
      551    C3966
      552    9DB02
      553    DCEFC
      554    C494A
      555    9C3AC
      556    DBC82
      557    C36AA
      558    9CD8C
      559    DC426
      55A    C3E5C
      55B    9CF26
      55C    DC538
      55D    C3F72
      55E    9CFAE
      55F    DC5C0
      560    C3FFC
      561    9D030
      562    DC642
      563    C4080
      564    9CE98
      565    DC4AA
      566    C3EE2
      567    9C9A0
      568    DC15A
      569    C3B8C
      56A    9CABC
      56B    DC1E6
      56C    C3C18
      56D    9CBE0
      56E    DC30A
      56F    C3D3E
      570    9CB4E
      571    DC278
      572    C3CAC
      573    9CC70
      574    DC39A
      575    C3DD0
      576    9C918
      577    DC0D2
      578    C3B02
      579    9D802
      57A    DCC7E
      57B    C46C4
      57C    9D98A
      57D    DCD84
      57E    C47CE
      57F    9DA06
      580    DCE00
      581    C484C
      582    9D902
      583    DCCFC
      584    C4744
      585    9D550
      586    DCA56
      587    C4498
      588    9D660
      589    DCADC
      58A    C451E
      58B    9D778
      58C    DCBF4
      58D    C4638
      58E    9D6EC
      58F    DCB68
      590    C45AC
      591    9DA86
      592    DCE80
      593    C48CC
      594    9E898
      595    DDA84
      596    C54E8
      597    9E910
      598    DDAFC
      599    C5560
      59A    9E794
      59B    DD980
      59C    C53E4
      59D    9E4FC
      59E    DD76C
      59F    C51CC
      5A0    9E600
      5A1    DD7EC
      5A2    C524E
      5A3    9E70E
      5A4    DD8FA
      5A5    C535E
      5A6    9E688
      5A7    DD874
      5A8    C52D6
      5A9    9E818
      5AA    DDA04
      5AB    C5468
      5AC    9C2C2
      5AD    DBC08
      5AE    C3630
      5AF    9C242
      5B0    DBB88
      5B1    C35AE
      5B2    9C1C2
      5B3    DBB08
      5B4    C352C
      5B5    A05C4
      5B6    DF27C
      5B7    C6D12
      5B8    A04C6
      5B9    DF17E
      5BA    C6C10
      5BB    A0546
      5BC    DF1FE
      5BD    C6C92
      5BE    9F3FE
      5BF    DE3CA
      5C0    C5E40
      5C1    9EDCA
      5C2    DDEA6
      5C3    C5912
      5C4    9EE46
      5C5    DDF22
      5C6    C598E
      5C7    9ED42
      5C8    DDE1E
      5C9    C588A
      5CA    9E98A
      5CB    DDB76
      5CC    C55DC
      5CD    9EA96
      5CE    DDBFA
      5CF    C5662
      5D0    9EBAC
      5D1    DDD10
      5D2    C577A
      5D3    9EB22
      5D4    DDC86
      5D5    C56EE
      5D6    9EC36
      5D7    DDD9A
      5D8    C5804
      5D9    9F304
      5DA    DE2D0
      5DB    C5D44
      5DC    9F380
      5DD    DE34C
      5DE    C5DC0
      5DF    9F27C
      5E0    DE248
      5E1    C5CBC
      5E2    9EEC4
      5E3    DDFA0
      5E4    C5A0E
      5E5    9EFD0
      5E6    DE024
      5E7    C5A94
      5E8    9F0E6
      5E9    DE13A
      5EA    C5BAC
      5EB    9F05C
      5EC    DE0B0
      5ED    C5B20
      5EE    9F170
      5EF    DE1C4
      5F0    C5C36
      5F1    9FAB2
      5F2    DE8EC
      5F3    C636C
      5F4    9FB2E
      5F5    DE968
      5F6    C63E8
      5F7    9FA2A
      5F8    DE864
      5F9    C62E4
      5FA    9F672
      5FB    DE5BC
      5FC    C6036
      5FD    9F77E
      5FE    DE640
      5FF    C60BC
      600    9F894
      601    DE756
      602    C61D4
      603    9F80A
      604    DE6CC
      605    C6148
      606    9F91E
      607    DE7E0
      608    C625E
      609    9F47C
      60A    DE448
      60B    C5EBE
      60C    9F5F8
      60D    DE542
      60E    C5FBA
      60F    9F57C
      610    DE4C6
      611    C5F3C
      612    A29F6
      613    E0F1A
      614    C89EA
      615    A2902
      616    E0E26
      617    C88F4
      618    A297A
      619    E0E9E
      61A    C896E
      61B    A27FE
      61C    E0D22
      61D    C87EC
      61E    A2458
      61F    E0A88
      620    C854E
      621    A2560
      622    E0B0A
      623    C85D0
      624    A2670
      625    E0C1A
      626    C86E2
      627    A25E8
      628    E0B92
      629    C865A
      62A    A26F6
      62B    E0CA0
      62C    C876A
      62D    A2882
      62E    E0DA6
      62F    C8872
      630    A3372
      631    E169E
      632    C917A
      633    A32F0
      634    E161C
      635    C90F8
      636    A03DA
      637    DF092
      638    C6B22
      639    A0452
      63A    DF10A
      63B    C6B9A
      63C    A4182
      63D    E2282
      63E    C9D76
      63F    A40FA
      640    E21FA
      641    C9CEC
      642    A4C64
      643    E2C44
      644    CA746
      645    A4BDC
      646    E2BBC
      647    CA6BC
      648    A4B56
      649    E2B36
      64A    CA636
      64B    A45DE
      64C    E264E
      64D    CA146
      64E    A4662
      64F    E26D2
      650    CA1CA
      651    A454E
      652    E25BE
      653    CA0B6
      654    A427A
      655    E237A
      656    C9E6E
      657    A4396
      658    E2406
      659    C9EFC
      65A    A44BC
      65B    E252C
      65C    CA024
      65D    A442A
      65E    E249A
      65F    C9F90
      660    A4A4C
      661    E2A2C
      662    CA52A
      663    A4AD0
      664    E2AB0
      665    CA5AE
      666    A49BC
      667    E299C
      668    CA49A
      669    A46E8
      66A    E2758
      66B    CA252
      66C    A4804
      66D    E27E4
      66E    CA2E0
      66F    A492A
      670    E290A
      671    CA408
      672    A4898
      673    E2878
      674    CA374
      675    A4CE6
      676    E2CC6
      677    CA7C8
      678    A4204
      679    E2304
      67A    C9DF8
      67B    A3F8E
      67C    E208E
      67D    C9B7E
      67E    A38B8
      67F    E1AD0
      680    C95B4
      681    A3936
      682    E1B4E
      683    C9632
      684    A382E
      685    E1A46
      686    C952A
      687    A33EA
      688    E1716
      689    C91F4
      68A    A34FA
      68B    E179C
      68C    C927C
      68D    A3614
      68E    E18B6
      68F    C9398
      690    A3588
      691    E182A
      692    C930A
      693    A36A0
      694    E1942
      695    C9424
      696    A37B0
      697    E19C8
      698    C94AC
      699    A3E8E
      69A    E1F8E
      69B    C9A7C
      69C    A3F0C
      69D    E200C
      69E    C9AFC
      69F    A3E04
      6A0    E1F04
      6A1    C99F0
      6A2    A39B6
      6A3    E1BCE
      6A4    C96B4
      6A5    A3ACA
      6A6    E1C56
      6A7    C973C
      6A8    A3BE6
      6A9    E1D72
      6AA    C985A
      6AB    A3B58
      6AC    E1CE4
      6AD    C97CC
      6AE    A3C72
      6AF    E1DFE
      6B0    C98E8
      6B1    A3D86
      6B2    E1E86
      6B3    C9970
      6B4    A3112
      6B5    E152A
      6B6    C9006
      6B7    A301E
      6B8    E1436
      6B9    C8F10
      6BA    A3096
      6BB    E14AE
      6BC    C8F8A
      6BD    A2F1A
      6BE    E1332
      6BF    C8E08
      6C0    A2B74
      6C1    E1098
      6C2    C8B6A
      6C3    A2C7C
      6C4    E111A
      6C5    C8BEC
      6C6    A2D8C
      6C7    E122A
      6C8    C8CFE
      6C9    A2D04
      6CA    E11A2
      6CB    C8C76
      6CC    A2E12
      6CD    E12B0
      6CE    C8D86
      6CF    A2F9E
      6D0    E13B6
      6D1    C8E8E
      6D2    A183E
      6D3    E0082
      6D4    C7B32
      6D5    A174C
      6D6    DFF90
      6D7    C7A3E
      6D8    A17C4
      6D9    E0008
      6DA    C7AB6
      6DB    A164C
      6DC    DFE90
      6DD    C793C
      6DE    A12B0
      6DF    DFBFC
      6E0    C76A2
      6E1    A13B4
      6E2    DFC7C
      6E3    C7724
      6E4    A14C2
      6E5    DFD8A
      6E6    C7834
      6E7    A143C
      6E8    DFD04
      6E9    C77AC
      6EA    A1548
      6EB    DFE10
      6EC    C78BA
      6ED    A16D0
      6EE    DFF14
      6EF    C79C0
      6F0    A23E0
      6F1    E0A10
      6F2    C84D4
      6F3    A22EE
      6F4    E091E
      6F5    C83E0
      6F6    A2366
      6F7    E0996
      6F8    C8458
      6F9    A21EE
      6FA    E081E
      6FB    C82DE
      6FC    A1E52
      6FD    E058A
      6FE    C8044
      6FF    A1F56
      700    E060A
      701    C80C6
      702    A2064
      703    E0718
      704    C81D6
      705    A1FDE
      706    E0692
      707    C814E
      708    A20EA
      709    E079E
      70A    C825C
      70B    A2272
      70C    E08A2
      70D    C8362
      70E    A1D5E
      70F    E0496
      710    C7F4E
      711    A1DD6
      712    E050E
      713    C7FC8
      714    A1C5C
      715    E0394
      716    C7E4A
      717    A18B6
      718    E00FA
      719    C7BAC
      71A    A19BE
      71B    E017C
      71C    C7C2E
      71D    A1ACE
      71E    E028C
      71F    C7D40
      720    A1A46
      721    E0204
      722    C7CB8
      723    A1B54
      724    E0312
      725    C7DC8
      726    A1CE0
      727    E0418
      728    C7ED0
      729    9E222
      72A    DD510
      72B    C4F6C
      72C    9E1A8
      72D    DD496
      72E    C4EF2
      72F    9DCF8
      730    DD0F2
      731    C4B46
      732    9DD78
      733    DD172
      734    C4BC6
      735    9DE80
      736    DD1F4
      737    C4C4A
      738    9DF92
      739    DD306
      73A    C4D5E
      73B    9DF0A
      73C    DD27E
      73D    C4CD4
      73E    9E01A
      73F    DD38E
      740    C4DE6
      741    A3278
      742    E15A4
      743    C9080
      744    9C33C
      745    A0976
      746    A318C
      747    9E122
      748    DD410
      749    C4E6A
      74A    A2A70
      74B    E0F94
      74C    C8A64
      74D    A2AF0
      74E    E1014
      74F    C8AE6
      750    9E314
      751    DD602
      752    C5060
      753    9E38A
      754    DD678
      755    C50D8
      756    A4082
      757    E2182
      758    C9C72
      759    A4008
      75A    E2108
      75B    C9BF8
      75C    A0796
      75D    DF3DC
      75E    C6E72
      75F    A08F4
      760    9E404
      761    DD6F2
      762    C5152
      763    A123C
      764    DFB88
      765    C762E
      766    A06AC
      767    DF364
      768    C6DFA
      769    A57CE
      76A    A5C74
      76B    E37FC
      76C    CB316
      76D    A5DDA
      76E    E3962
      76F    CB480
      770    A5F4E
      771    E3AD6
      772    CB5F6
      773    A5BFC
      774    E3784
      775    CB29E
      776    A5D64
      777    E38EC
      778    CB408
      779    A5ECE
      77A    E3A56
      77B    CB576
      77C    A59A2
      77D    E352A
      77E    CB03E
      77F    A5B0C
      780    E3694
      781    CB1AA
      782    A5A18
      783    E35A0
      784    CB0B6
      785    A5A8C
      786    E3614
      787    CB12A
      788    A5B84
      789    E370C
      78A    CB224
      78B    A5CEC
      78C    E3874
      78D    CB390
      78E    A5E4E
      78F    E39D6
      790    CB4F4
      791    A53EC
      792    E3250
      793    CAD5E
      794    A5372
      795    E31D6
      796    CACE4
      797    A4EC2
      798    E2E32
      799    CA938
      79A    A4F42
      79B    E2EB2
      79C    CA9B8
      79D    A504A
      79E    E2F34
      79F    CAA3C
      7A0    A515C
      7A1    E3046
      7A2    CAB50
      7A3    A50D4
      7A4    E2FBE
      7A5    CAAC6
      7A6    A51E4
      7A7    E30CE
      7A8    CABD8
      7A9    A4E52
      7AA    A5758
      7AB    A4D60
      7AC    E2D40
      7AD    CA844
      7AE    A52EC
      7AF    E3150
      7B0    CAC5C
      7B1    A58B6
      7B2    A5554
      7B3    E33B8
      7B4    CAECA
      7B5    A4DD6
      7B6    E2DB6
      7B7    CA8BA
      7B8    A61A8
      7B9    E3C40
      7BA    CB764
      7BB    A5464
      7BC    E32C8
      7BD    CADD8
      7BE    A54DA
      7BF    E333E
      7C0    CAE50
      7C1    A6130
      7C2    E3BC8
      7C3    CB6EA
      7C4    A60B6
      7C5    E3B4E
      7C6    CB670
      7C7    A5668
      7C8    E3440
      7C9    CAF52
      7CA    A5842
      7CB    E34B6
      7CC    CAFCA
      7CD    A5FC6
      7CE    A67D2
      7CF    B0A5E
      7D0    E8ED0
      7D1    A6674
      7D2    E3E98
      7D3    CB856
      7D4    A66E6
      7D5    AC9AC
      7D6    E6ACE
      7D7    CE2EE
      7D8    ACA30
      7D9    AC89E
      7DA    E69C4
      7DB    CE1E0
      7DC    AC924
      7DD    E6A48
      7DE    CE266
      7DF    ADF80
      7E0    E7EF8
      7E1    CF75C
      7E2    AE004
      7E3    E7F7C
      7E4    CF7E2
      7E5    ADEFE
      7E6    E7E76
      7E7    CF6D8
      7E8    AE086
      7E9    E7FFC
      7EA    CF864
      7EB    AE10A
      7EC    E8080
      7ED    CF8EA
      7EE    AD440
      7EF    E7450
      7F0    CEC90
      7F1    ACDE6
      7F2    E6E80
      7F3    CE6AC
      7F4    ACE68
      7F5    ACF6C
      7F6    E6F82
      7F7    CE7B0
      7F8    ACEEC
      7F9    E6F00
      7FA    CE72E
      7FB    ADA26
      7FC    E79A4
      7FD    CF1F4
      7FE    AD9A2
      7FF    E7920
      800    CF16E
      801    ADDF8
      802    E7D72
      803    CF5D0
      804    ADE7A
      805    E7DF2
      806    CF652
      807    AE210
      808    E8184
      809    CF9F4
      80A    AE294
      80B    E8206
      80C    CFA78
      80D    ACC4E
      80E    E6CE8
      80F    CE510
      810    ACBCC
      811    E6C66
      812    CE48C
      813    ACCD6
      814    E6D6E
      815    CE598
      816    ACD60
      817    E6DF8
      818    CE624
      819    ACAB6
      81A    E6B50
      81B    CE372
      81C    ACB40
      81D    E6BDA
      81E    CE3FE
      81F    ACFF2
      820    E7008
      821    CE838
      822    AD07E
      823    E7092
      824    CE8C4
      825    AD194
      826    E71A8
      827    CE9DE
      828    AD10C
      829    E7120
      82A    CE954
      82B    AD21A
      82C    E722C
      82D    CEA64
      82E    AD2A2
      82F    E72B4
      830    CEAEE
      831    AD816
      832    E7794
      833    CEFDE
      834    AD790
      835    E770E
      836    CEF56
      837    AD4D0
      838    E74E0
      839    CED22
      83A    AD672
      83B    E75EE
      83C    CEE34
      83D    AD54E
      83E    E755E
      83F    CEDA2
      840    AD700
      841    E767C
      842    CEEC4
      843    AD89A
      844    E7816
      845    CF062
      846    AD920
      847    E789C
      848    CF0EA
      849    ADD6E
      84A    E7CEA
      84B    CF546
      84C    ADCE4
      84D    E7C60
      84E    CF4BA
      84F    ADBC0
      850    E7B3C
      851    CF392
      852    ADC4A
      853    E7BC6
      854    CF41E
      855    AD3B6
      856    E73C8
      857    CEC06
      858    AD32C
      859    E733E
      85A    CEB7A
      85B    ADB36
      85C    E7AB2
      85D    CF306
      85E    ADAAA
      85F    E7A26
      860    CF278
      861    AE31A
      862    E828C
      863    CFB00
      864    AE3A2
      865    E8314
      866    CFB8A
      867    AA302
      868    AA6C0
      869    AA7AE
      86A    AA73A
      86B    AA824
      86C    A92E4
      86D    A9264
      86E    A9364
      86F    A658A
      870    A9CEE
      871    A93E2
      872    AA20A
      873    A8836
      874    A8ABA
      875    A8744
      876    A86C8
      877    A87C2
      878    A89A2
      879    A892C
      87A    A8B3A
      87B    A8CBE
      87C    A8BB0
      87D    A8C38
      87E    A8336
      87F    A82AE
      880    A81C0
      881    A88B0
      882    A84CE
      883    A8544
      884    A8238
      885    A85B6
      886    A8640
      887    9456C
      888    A83AE
      889    A8440
      88A    A8F08
      88B    A90F4
      88C    A8F82
      88D    A907E
      88E    A8E20
      88F    A8E94
      890    A9176
      891    A91EC
      892    A8D36
      893    A8DAE
      894    A9E6E
      895    A9F54
      896    A9EE0
      897    A9FC6
      898    AA03C
      899    AA122
      89A    AA0AE
      89B    AA194
      89C    A963C
      89D    A9828
      89E    A98A8
      89F    A96B6
      8A0    A97B2
      8A1    A9550
      8A2    A95C4
      8A3    A9A0A
      8A4    A9BF6
      8A5    A9A84
      8A6    A9B80
      8A7    A9C78
      8A8    A991E
      8A9    A9992
      8AA    AAA04
      8AB    AA476
      8AC    A94DE
      8AD    AA4EC
      8AE    AA560
      8AF    AA5D4
      8B0    AA64C
      8B1    A9D6E
      8B2    A9DF2
      8B3    AA912
      8B4    AA898
      8B5    AA98A
      8B6    AAB04
      8B7    B24DC
      8B8    E920A
      8B9    D093A
      8BA    B1900
      8BB    E90A8
      8BC    D07D2
      8BD    B12F0
      8BE    E902E
      8BF    D0756
      8C0    B23E0
      8C1    E918E
      8C2    D08BC
      8C3    B107C
      8C4    E8FBA
      8C5    D06E0
      8C6    B1E68
      8C7    E911A
      8C8    D0846
      8C9    AE980
      8CA    E8706
      8CB    CFF8C
      8CC    AEB80
      8CD    E8904
      8CE    D0108
      8CF    AEDD6
      8D0    E8AE4
      8D1    D026E
      8D2    AEE52
      8D3    E8B60
      8D4    D02EC
      8D5    AEBF2
      8D6    E8976
      8D7    D017C
      8D8    AECDE
      8D9    E89EA
      8DA    D01F2
      8DB    AEB04
      8DC    E8888
      8DD    D008A
      8DE    AE9F8
      8DF    E877C
      8E0    D0004
      8E1    B1508
      8E2    B1168
      8E3    B25C6
      8E4    B13F0
      8E5    B136A
      8E6    B1788
      8E7    B170C
      8E8    B1F58
      8E9    B1EDC
      8EA    B225C
      8EB    B21DC
      8EC    B1A64
      8ED    B1972
      8EE    B19E8
      8EF    B1BDC
      8F0    B1B5C
      8F1    B1D64
      8F2    B1CE8
      8F3    B20D8
      8F4    B205C
      8F5    B0EEA
      8F6    B15F8
      8F7    B11E4
      8F8    B2368
      8F9    B188C
      8FA    B1688
      8FB    B26D2
      8FC    E92F6
      8FD    D0A28
      8FE    B2552
      8FF    E9280
      900    D09B2
      901    B27BC
      902    E93E0
      903    D0B18
      904    B28D0
      905    E9468
      906    D0BA2
      907    B2A54
      908    E9568
      909    D0CA6
      90A    B2950
      90B    E94E8
      90C    D0C24
      90D    B2ADE
      90E    E95F2
      90F    D0D32
      910    B5184
      911    EAE72
      912    B4A04
      913    EAD74
      914    B4C80
      915    B4D80
      916    B4D02
      917    B4E04
      918    B4F02
      919    B5002
      91A    B4F84
      91B    B5086
      91C    B4E84
      91D    B5106
      91E    B51FA
      91F    B4B8C
      920    B4C06
      921    B57F4
      922    EAFF8
      923    B5274
      924    EAEE8
      925    B5562
      926    EAF68
      927    B5700
      928    B5686
      929    B53F2
      92A    B5870
      92B    B54E4
      92C    B546C
      92D    B5378
      92E    B596C
      92F    B58F0
      930    B5AD8
      931    EB168
      932    D1D44
      933    B5B52
      934    EB1E2
      935    D1DC0
      936    B5BCE
      937    B3EA0
      938    EA55A
      939    B435E
      93A    EAA1E
      93B    B42E4
      93C    EA9A4
      93D    B44D2
      93E    B3F12
      93F    EA5CC
      940    B3F86
      941    EA642
      942    B40F8
      943    EA7B4
      944    B4000
      945    EA6BC
      946    B4170
      947    EA82E
      948    B407C
      949    EA738
      94A    B41E8
      94B    EA8A8
      94C    B4266
      94D    EA926
      94E    B4456
      94F    EAB16
      950    B43D6
      951    EAA96
      952    B608C
      953    B6276
      954    B62E6
      955    B601A
      956    B6102
      957    B617E
      958    B61FA
      959    B6686
      95A    B64B2
      95B    B66F6
      95C    B6612
      95D    B676A
      95E    B6526
      95F    B3BCA
      960    EA284
      961    D18F4
      962    B3C42
      963    EA2FC
      964    D196E
      965    B3DB6
      966    EA470
      967    D1A66
      968    B3570
      969    E9DA0
      96A    D1400
      96B    B347C
      96C    B35E2
      96D    E9E14
      96E    D1474
      96F    B3086
      970    E9A2C
      971    D1080
      972    B34F2
      973    E9D22
      974    D1380
      975    B3A3A
      976    EA17E
      977    D17EA
      978    B3748
      979    E9F06
      97A    D156A
      97B    B3654
      97C    B384A
      97D    EA008
      97E    D1670
      97F    B38C4
      980    EA084
      981    D16EC
      982    B36C8
      983    E9E86
      984    D14E8
      985    B37C2
      986    E9F80
      987    D15E6
      988    B393E
      989    B30FE
      98A    E9AA4
      98B    D10FA
      98C    B31FA
      98D    E9B20
      98E    D1178
      98F    B32FE
      990    E9C26
      991    D1280
      992    B327C
      993    E9BA4
      994    D11FC
      995    B3380
      996    E9CA6
      997    D1302
      998    B3ABA
      999    EA1FE
      99A    D186C
      99B    AE61C
      99C    E83A2
      99D    CFC1A
      99E    AE714
      99F    E849A
      9A0    CFD16
      9A1    AE696
      9A2    E841C
      9A3    CFC96
      9A4    A68D0
      9A5    E3F98
      9A6    CB958
      9A7    A6842
      9A8    E3F0A
      9A9    CB8C8
      9AA    A695E
      9AB    E4024
      9AC    CB9E6
      9AD    AF1AA
      9AE    E8D50
      9AF    D04E4
      9B0    AE7FC
      9B1    E8582
      9B2    CFE02
      9B3    936AE
      9B4    D4C1E
      9B5    BC6BE
      9B6    93720
      9B7    D4C90
      9B8    BC732
      9B9    935C2
      9BA    93636
      9BB    93794
      9BC    D4D04
      9BD    BC7A8
      9BE    93806
      9BF    D4D74
      9C0    BC81A
      9C1    92ED8
      9C2    D462E
      9C3    BC0BE
      9C4    92F50
      9C5    D46A6
      9C6    BC138
      9C7    9387A
      9C8    D4DE8
      9C9    BC88E
      9CA    938F2
      9CB    D4E60
      9CC    BC908
      9CD    9396E
      9CE    D4EDC
      9CF    BC984
      9D0    939E6
      9D1    D4F54
      9D2    BC9FE
      9D3    A80BA
      9D4    E50CA
      9D5    CCAAA
      9D6    A813C
      9D7    E514C
      9D8    CCB2E
      9D9    A7FBE
      9DA    E4FCC
      9DB    CC9AC
      9DC    A803A
      9DD    E504A
      9DE    CCA2A
      9DF    92FCA
      9E0    D4720
      9E1    BC1B4
      9E2    93044
      9E3    D479A
      9E4    BC230
      9E5    93140
      9E6    D4818
      9E7    BC2AE
      9E8    931C2
      9E9    D489A
      9EA    BC332
      9EB    9334A
      9EC    D4A24
      9ED    BC4BE
      9EE    933CA
      9EF    D4AA4
      9F0    BC540
      9F1    93246
      9F2    D491E
      9F3    BC3B8
      9F4    932C6
      9F5    D49A0
      9F6    BC43A
      9F7    9344C
      9F8    D4B26
      9F9    BC5C4
      9FA    934C6
      9FB    D4BA0
      9FC    BC640
      9FD    AEF50
      9FE    E8C5E
      9FF    D03EE
      A00    AEFCA
      A01    E8CD8
      A02    D046A
      A03    B2B5E
      A04    E9672
      A05    D0DB4
      A06    B2BD0
      A07    E96E4
      A08    D0E28
      A09    B5EB8
      A0A    EB3D0
      A0B    D1FB4
      A0C    B5F2C
      A0D    B5D44
      A0E    EB2D4
      A0F    D1EB6
      A10    B5E3E
      A11    B5DC4
      A12    EB354
      A13    D1F38
      A14    B5FA4
      A15    B5CCE
      A16    EB25E
      A17    D1E3E
      A18    B3D3E
      A19    EA3F8
      A1A    D19EC
      A1B    B4990
      A1C    EAD00
      A1D    D1C52
      A1E    B491A
      A1F    ABB88
      A20    E5E36
      A21    CD82E
      A22    ABB0C
      A23    E5DBA
      A24    CD7B0
      A25    AB754
      A26    E5B10
      A27    CD4FE
      A28    AB860
      A29    E5B94
      A2A    CD584
      A2B    AB976
      A2C    E5CAC
      A2D    CD69E
      A2E    AB8EC
      A2F    E5C20
      A30    CD612
      A31    ABA00
      A32    E5D36
      A33    CD72A
      A34    AC52E
      A35    E66C8
      A36    CE0E0
      A37    AC4AC
      A38    E6646
      A39    CE05C
      A3A    AC5AC
      A3B    E6746
      A3C    CE160
      A3D    9A4FE
      A3E    DA3EA
      A3F    C1DC6
      A40    9A480
      A41    DA36C
      A42    C1D46
      A43    9A404
      A44    DA2F0
      A45    C1CC8
      A46    9A388
      A47    DA272
      A48    C1C4A
      A49    99F44
      A4A    D9F42
      A4B    C1910
      A4C    99FC4
      A4D    D9FC2
      A4E    C1992
      A4F    9A0D4
      A50    DA048
      A51    C1A1A
      A52    9A1EC
      A53    DA162
      A54    C1B36
      A55    9A160
      A56    DA0D6
      A57    C1AA8
      A58    9A278
      A59    DA1EC
      A5A    C1BC2
      A5B    9BC82
      A5C    DB740
      A5D    C3154
      A5E    9BD78
      A5F    DB836
      A60    C324C
      A61    9BCFE
      A62    DB7BA
      A63    C31D0
      A64    9B7D0
      A65    DB39A
      A66    C2DA4
      A67    9B84A
      A68    DB416
      A69    C2E20
      A6A    9B8CA
      A6B    DB496
      A6C    C2EA2
      A6D    9B9D6
      A6E    DB51A
      A6F    C2F28
      A70    9BAEC
      A71    DB632
      A72    C3042
      A73    9BA62
      A74    DB5A6
      A75    C2FB6
      A76    9BB76
      A77    DB6BC
      A78    C30CE
      A79    B472A
      A7A    EAB92
      A7B    D1ADE
      A7C    B47A0
      A7D    EAC08
      A7E    D1B56
      A7F    B481A
      A80    EAC82
      A81    D1BD2
      A82    B2F9E
      A83    E98C0
      A84    D100C
      A85    B2EAE
      A86    E9844
      A87    D0F8E
      A88    B2F2A
      A89    AB6DA
      A8A    E5A98
      A8B    CD484
      A8C    AB660
      A8D    E5A1E
      A8E    CD408
      A8F    AB2B6
      A90    E577E
      A91    CD160
      A92    AB3BE
      A93    E5800
      A94    CD1E4
      A95    AB4D0
      A96    E5914
      A97    CD2FA
      A98    AB448
      A99    E588A
      A9A    CD270
      A9B    AB558
      A9C    E599C
      A9D    CD384
      A9E    AC3B4
      A9F    E654E
      AA0    CDF60
      AA1    AC334
      AA2    E64CE
      AA3    CDEDE
      AA4    AC430
      AA5    E65CA
      AA6    CDFDE
      AA7    99ECA
      AA8    D9EC8
      AA9    C1894
      AAA    99E4E
      AAB    D9E4C
      AAC    C1816
      AAD    99DD4
      AAE    D9DD2
      AAF    C179A
      AB0    99D5A
      AB1    D9D56
      AB2    C171E
      AB3    99926
      AB4    D9A32
      AB5    C13F0
      AB6    999A4
      AB7    D9AB0
      AB8    C1470
      AB9    99AB0
      ABA    D9B34
      ABB    C14F6
      ABC    99BC4
      ABD    D9C4A
      ABE    C160E
      ABF    99B3A
      AC0    D9BC0
      AC1    C1582
      AC2    99C4E
      AC3    D9CD2
      AC4    C1698
      AC5    9B664
      AC6    DB22E
      AC7    C2C34
      AC8    9B756
      AC9    DB320
      ACA    C2D28
      ACB    9B6DE
      ACC    DB2A6
      ACD    C2CAE
      ACE    9B1C4
      ACF    DAE96
      AD0    C2892
      AD1    9B23C
      AD2    DAF10
      AD3    C290C
      AD4    9B2BA
      AD5    DAF8E
      AD6    C298C
      AD7    9B3C2
      AD8    DB010
      AD9    C2A10
      ADA    9B4D4
      ADB    DB124
      ADC    C2B26
      ADD    9B44C
      ADE    DB09A
      ADF    C2A9C
      AE0    9B55C
      AE1    DB1AC
      AE2    C2BB0
      AE3    B2C42
      AE4    E9754
      AE5    D0E9A
      AE6    B2D3E
      AE7    B2E3A
      AE8    E97D0
      AE9    D0F18
      AEA    997B6
      AEB    D9842
      AEC    C137C
      AED    AAD6E
      AEE    E5350
      AEF    CCD24
      AF0    AACF4
      AF1    E52D6
      AF2    CCCA8
      AF3    AABEC
      AF4    E5254
      AF5    CCC24
      AF6    AE788
      AF7    E850E
      AF8    CFD8C
      AF9    AE902
      AFA    E8688
      AFB    CFF0C
      AFC    AE87C
      AFD    E8602
      AFE    CFE84
      AFF    AF32C
      B00    E8DD4
      B01    D056A
      B02    AF2B6
      B03    9AAA8
      B04    DA888
      B05    C2272
      B06    9AB24
      B07    DA902
      B08    C22EE
      B09    9AA2E
      B0A    DA80C
      B0B    C21F6
      B0C    9A9B2
      B0D    DA790
      B0E    C2178
      B0F    9A57A
      B10    DA466
      B11    C1E44
      B12    9A5FA
      B13    DA4E6
      B14    C1EC6
      B15    9A706
      B16    DA56A
      B17    C1F4C
      B18    9A81C
      B19    DA682
      B1A    C2066
      B1B    9A792
      B1C    DA5F6
      B1D    C1FDA
      B1E    9A8A6
      B1F    DA70C
      B20    C20F2
      B21    9B052
      B22    DAD24
      B23    C271C
      B24    9B148
      B25    DAE1A
      B26    C2814
      B27    9B0CE
      B28    DAD9E
      B29    C2798
      B2A    9ABA0
      B2B    DA97E
      B2C    C236C
      B2D    9AC1A
      B2E    DA9FA
      B2F    C23E8
      B30    9AC9A
      B31    DAA7A
      B32    C246A
      B33    9ADA6
      B34    DAAFE
      B35    C24F0
      B36    9AEBC
      B37    DAC16
      B38    C260A
      B39    9AE32
      B3A    DAB8A
      B3B    C257E
      B3C    9AF46
      B3D    DACA0
      B3E    C2696
      B3F    AC0C2
      B40    E625C
      B41    CDC62
      B42    AC13C
      B43    E62D6
      B44    CDCDE
      B45    ABD0C
      B46    E5FB6
      B47    CD9B4
      B48    ABE18
      B49    E603A
      B4A    CDA3A
      B4B    ABF2C
      B4C    E6150
      B4D    CDB52
      B4E    ABEA2
      B4F    E60C6
      B50    CDAC6
      B51    ABFB6
      B52    E61D8
      B53    CDBDC
      B54    AC238
      B55    E63D2
      B56    CDDDE
      B57    AC1B6
      B58    E6350
      B59    CDD5A
      B5A    AC2B6
      B5B    E6450
      B5C    CDE5E
      B5D    9BE68
      B5E    DB8B2
      B5F    C32CA
      B60    9BDF4
      B61    AB238
      B62    E5700
      B63    CD0E0
      B64    AB1BA
      B65    E5682
      B66    CD060
      B67    AADE8
      B68    E53C8
      B69    CCD9E
      B6A    AAEFC
      B6B    E5450
      B6C    CCE28
      B6D    AB018
      B6E    E556E
      B6F    CCF48
      B70    AAF8A
      B71    E54E0
      B72    CCEB8
      B73    AB0A6
      B74    E55FA
      B75    CCFD6
      B76    B693C
      B77    EB5A0
      B78    D2194
      B79    B6EAC
      B7A    EB986
      B7B    D258E
      B7C    B6D38
      B7D    EB90A
      B7E    D2510
      B7F    B6C18
      B80    EB87C
      B81    D2480
      B82    ABC88
      B83    E5F34
      B84    CD930
      B85    ABC04
      B86    E5EB0
      B87    CD8AA
      B88    B6B9C
      B89    EB800
      B8A    D2402
      B8B    B6A2E
      B8C    EB692
      B8D    D228A
      B8E    B69B2
      B8F    EB616
      B90    D220C
      B91    B6B20
      B92    EB784
      B93    D2384
      B94    B6DB4
      B95    B7DF2
      B96    EBB5A
      B97    D276A
      B98    B74D6
      B99    EBA72
      B9A    D267E
      B9B    B7D7C
      B9C    EBAE4
      B9D    D26F2
      B9E    B70BA
      B9F    B7758
      BA0    B76DA
      BA1    B7A62
      BA2    B79E0
      BA3    B734A
      BA4    B72C4
      BA5    B78DC
      BA6    B7860
      BA7    B75CA
      BA8    B7548
      BA9    B7BF4
      BAA    B7B72
      BAB    B7EDE
      BAC    B7F54
      BAD    B6F22
      BAE    B71AE
      BAF    B7D04
      BB0    B7462
      BB1    B8064
      BB2    EBC46
      BB3    D285A
      BB4    B7E68
      BB5    EBBD0
      BB6    D27E2
      BB7    B7240
      BB8    AFDB4
      BB9    AFE3C
      BBA    AFD34
      BBB    B0204
      BBC    B028E
      BBD    B0320
      BBE    AFF46
      BBF    E8E48
      BC0    D05E0
      BC1    B00E0
      BC2    AFEBA
      BC3    B005A
      BC4    98F1C
      BC5    D9400
      BC6    C0F32
      BC7    99206
      BC8    9910A
      BC9    9901C
      BCA    99092
      BCB    B0642
      BCC    B06C0
      BCD    B07D0
      BCE    B052A
      BCF    B0850
      BD0    B08CE
      BD1    B09DE
      BD2    B0418
      BD3    B04A0
      BD4    B0B58
      BD5    B0BD4
      BD6    B0C54
      BD7    B0DDE
      BD8    B0D58
      BD9    B0AD6
      BDA    B0CD4
      BDB    AFCB8
      BDC    AFB20
      BDD    AFA04
      BDE    AF654
      BDF    AF4BC
      BE0    AF3A0
      BE1    AF988
      BE2    AF7F0
      BE3    AF6D0
      BE4    B39BA
      BE5    EA0FE
      BE6    D1768
      BE7    8C954
      BE8    8C58A
      BE9    8C128
      BEA    8C010
      BEB    8C234
      BEC    8C67E
      BED    8C85C
      BEE    8F6C2
      BEF    E68C4
      BF0    D99B2
      BF1    B94A6
      BF2    ED618
      BF3    8FA04
      BF4    BA5CA
      BF5    BA4D0
      BF6    BA6C6
      BF7    B46AE
      BF8    951BC
      BF9    9704E
      BFA    955D6
      BFB    91E88
      BFC    94C50
      BFD    94D4E
      BFE    91376
      BFF    9607A
      C00    959B2
      C01    94188
      C02    96774
      C03    94658
      C04    92A58
      C05    928E2
      C06    926F8
      C07    96D4E
      C08    95D90
      C09    948F4
      C0A    95F76
      C0B    980F8
      C0C    97FFC
      C0D    992FC
      C0E    99644
      C0F    98D46
      C10    985AC
      C11    A7098
      C12    A6D3A
      C13    A6CB8
      C14    A6FA6
      C15    A735C
      C16    A71FE
      C17    A769E
      C18    A7D5E
      C19    A7B68
      C1A    A7F40
      C1B    A7980
      C1C    9FC28
      C1D    9FEA8
      C1E    A0018
      C1F    A0A6A
      C20    A0CF4
      C21    A0E6A
      C22    9D138
      C23    9D3D6
      C24    9C4B4
      C25    9C77A
      C26    9CE10
      C27    9CA2C
      C28    9CCFC
      C29    9D880
      C2A    9D5D6
      C2B    9E57C
      C2C    9EA0E
      C2D    9ECBA
      C2E    9EF48
      C2F    9F1F4
      C30    9F6F6
      C31    9F9A2
      C32    9F4FA
      C33    A24DA
      C34    A2778
      C35    A4306
      C36    A4774
      C37    A3470
      C38    A3726
      C39    A3A3E
      C3A    A3CFA
      C3B    A2BF6
      C3C    A2E94
      C3D    A1330
      C3E    A15C8
      C3F    A1ED2
      C40    A216A
      C41    A1938
      C42    A1BD6
      C43    9DDFA
      C44    9E09C
      C45    A3200
      C46    A080C
      C47    9E47E
      C48    A4FC4
      C49    A5266
      C4A    A592A
      C4B    A55DC
      C4C    A6222
      C4D    A56DE
      C4E    A603C
      C4F    A675A
      C50    AD5DE
      C51    AA378
      C52    A945E
      C53    AA284
      C54    A8A2C
      C55    A8FFE
      C56    A9732
      C57    A9B00
      C58    AAA82
      C59    B245C
      C5A    B10F0
      C5B    AEC66
      C5C    AED58
      C5D    E8A66
      C5E    AEA7C
      C5F    E8800
      C60    B157E
      C61    B264A
      C62    B147A
      C63    B1808
      C64    B1FD8
      C65    B22E0
      C66    B1ADE
      C67    B1C60
      C68    B1DE4
      C69    B2158
      C6A    B0F78
      C6B    B1268
      C6C    B2844
      C6D    B29D0
      C6E    B4A8A
      C6F    B52F4
      C70    B55F2
      C71    B5778
      C72    B5C4C
      C73    B659A
      C74    B3CBE
      C75    EA378
      C76    B317A
      C77    B33FC
      C78    B3B40
      C79    A69DC
      C7A    AF22E
      C7B    930C2
      C7C    93544
      C7D    AB7D8
      C7E    ABA84
      C7F    9A04A
      C80    9A2FE
      C81    9B94E
      C82    9BBFA
      C83    B4898
      C84    AB338
      C85    AB5DA
      C86    99A28
      C87    99CD2
      C88    9B33C
      C89    9B5DE
      C8A    B2CBE
      C8B    B2DBA
      C8C    AAC6E
      C8D    9A67E
      C8E    9A92A
      C8F    9AD1E
      C90    9AFCA
      C91    ABD90
      C92    AC03A
      C93    AAE70
      C94    AB12E
      C95    B6CA6
      C96    B6E2E
      C97    B7132
      C98    B77DA
      C99    B7AE8
      C9A    B73D4
      C9B    B795C
      C9C    B7650
      C9D    B7C7A
      C9E    B7FDA
      C9F    B6FB2
      CA0    AFFCE
      CA1    B0170
      CA2    98F9A
      CA3    99186
      CA4    B0746
      CA5    B05B4
      CA6    B0954
      CA7    AFBAC
      CA8    AFA90
      CA9    AF548
      CAA    AF42C
      CAB    AF87C
      CAC    AF75E
      CAD    B8148
      CAE    B9344
      CAF    B92C4
      CB0    B8798
      CB1    B8714
      CB2    B8252
      CB3    B8364
      CB4    B83EC
      CB5    B81CA
      CB6    B82DA
      CB7    B8E02
      CB8    B8F14
      CB9    B8F9C
      CBA    B8D7A
      CBB    B8E8A
      CBC    B88A6
      CBD    B89BC
      CBE    B8A46
      CBF    B881C
      CC0    B8930
      CC1    B84FA
      CC2    B8608
      CC3    B868E
      CC4    B8474
      CC5    B8580
      CC6    B90AA
      CC7    B91B8
      CC8    B923E
      CC9    B9024
      CCA    B9130
      CCB    B8B58
      CCC    B8C6A
      CCD    B8CF2
      CCE    B8AD0
      CCF    B8BE0
      CD0    EF60A
      CD1    EEC30
      CD2    EF814
      CD3    EF790
      CD4    EF710
      CD5    EF68E
      CD6    EF3F4
      CD7    EF584
      CD8    EF4FC
      CD9    EF476
      CDA    EF370
      CDB    EF2F0
      CDC    EF266
      CDD    EF0D0
      CDE    EF04C
      CDF    EEFCA
      CE0    EE674
      CE1    EE5EA
      CE2    EE6FE
      CE3    EE788
      CE4    EEE3A
      CE5    EEDB6
      CE6    EED36
      CE7    EECB4
      CE8    EEBB0
      CE9    EEB2A
      CEA    EE914
      CEB    EEAA4
      CEC    EEA1C
      CED    EE996
      CEE    EE890
      CEF    EE810
      CF0    EE3C8
      CF1    EE560
      CF2    EE348
      CF3    EE2C4
      CF4    EE242
      CF5    EE134
      CF6    EE1BA
      CF7    EEEBC
      CF8    EEF42
      CF9    EE4D2
      CFA    EF1D8
      CFB    EE44A
      CFC    EF150
      CFD    EE0AC
      CFE    B63CE
      CFF    8F554
      D00    89226
      D01    89348
      D02    892B8

    6657 public symbols

        B ?DAQmxAdjust9246GainCal@nNICAI100@@YGJKQBDN@Z
        C ?DAQmxAdjust9246OffsetCal@nNICAI100@@YGJKQBD@Z
        D ?DAQmxAdjust9247GainCal@nNICAI100@@YGJKQBDN@Z
        E ?DAQmxAdjust9247OffsetCal@nNICAI100@@YGJKQBD@Z
        F ?DAQmxGetTimingSyncPulseForce@nNICAI100@@YGJPAXPAK@Z
       12 ?DAQmxGetWriteNextWriteIsLast@nNICAI100@@YGJPAXPAK@Z
       11 ?DAQmxResetTimingSyncPulseForce@nNICAI100@@YGJPAX@Z
       14 ?DAQmxResetWriteNextWriteIsLast@nNICAI100@@YGJPAX@Z
       10 ?DAQmxSetTimingSyncPulseForce@nNICAI100@@YGJPAXK@Z
       13 ?DAQmxSetWriteNextWriteIsLast@nNICAI100@@YGJPAXK@Z
      D00 ?compareVersion@nNICAI100@@YGXABVtSSVersion@@0AAJPBD@Z
      D02 ?getCurrentVersion@nNICAI100@@YG?AVtSSVersion@@AAJ@Z
      D01 ?getOldestCompatibleVersion@nNICAI100@@YG?AVtSSVersion@@AAJ@Z
      108 _DAQmxAOSeriesCalAdjust@12
      1DD _DAQmxAddCDAQSyncConnection@4
       17 _DAQmxAddGlobalChansToTask@8
      1D5 _DAQmxAddNetworkDevice@28
      197 _DAQmxAdjust1102Cal@20
      199 _DAQmxAdjust1104Cal@20
      19B _DAQmxAdjust1112Cal@20
      19D _DAQmxAdjust1122Cal@20
      19F _DAQmxAdjust1124Cal@12
      1A1 _DAQmxAdjust1125Cal@20
      1A3 _DAQmxAdjust1126Cal@20
      1A5 _DAQmxAdjust1141Cal@20
      1A7 _DAQmxAdjust1142Cal@20
      1A9 _DAQmxAdjust1143Cal@20
      1AB _DAQmxAdjust1502Cal@20
      1AD _DAQmxAdjust1503Cal@20
      1AE _DAQmxAdjust1503CurrentCal@16
      1B0 _DAQmxAdjust1520Cal@20
      1B2 _DAQmxAdjust1521Cal@20
      1B4 _DAQmxAdjust153xCal@20
      1B6 _DAQmxAdjust1540Cal@24
      11D _DAQmxAdjust4204Cal@28
      11E _DAQmxAdjust4220Cal@24
      11F _DAQmxAdjust4224Cal@24
      120 _DAQmxAdjust4225Cal@24
      126 _DAQmxAdjust4300Cal@12
      129 _DAQmxAdjust4302Cal@12
      12C _DAQmxAdjust4303Cal@12
      12F _DAQmxAdjust4304Cal@12
      132 _DAQmxAdjust4305Cal@12
      136 _DAQmxAdjust4322Cal@16
      124 _DAQmxAdjust4339Cal@12
      122 _DAQmxAdjust433xCal@24
      133 _DAQmxAdjust4353Cal@16
      134 _DAQmxAdjust4357Cal@16
      11A _DAQmxAdjust4463Cal@16
      115 _DAQmxAdjust4610Cal@24
      13E _DAQmxAdjust9201Cal@16
      140 _DAQmxAdjust9203GainCal@32
      141 _DAQmxAdjust9203OffsetCal@24
      142 _DAQmxAdjust9205Cal@12
      143 _DAQmxAdjust9206Cal@12
      145 _DAQmxAdjust9207GainCal@16
      146 _DAQmxAdjust9207OffsetCal@8
      148 _DAQmxAdjust9208GainCal@16
      149 _DAQmxAdjust9208OffsetCal@8
      14B _DAQmxAdjust9209GainCal@20
      14C _DAQmxAdjust9209OffsetCal@8
      14D _DAQmxAdjust9211Cal@16
      14F _DAQmxAdjust9212Cal@16
      151 _DAQmxAdjust9213Cal@32
      153 _DAQmxAdjust9214Cal@16
      155 _DAQmxAdjust9215Cal@16
      157 _DAQmxAdjust9216Cal@16
      159 _DAQmxAdjust9217Cal@16
      15C _DAQmxAdjust9218Cal@16
      15F _DAQmxAdjust9219Cal@16
      161 _DAQmxAdjust9220Cal@16
      163 _DAQmxAdjust9221Cal@16
      165 _DAQmxAdjust9222Cal@16
      167 _DAQmxAdjust9223Cal@16
      169 _DAQmxAdjust9225Cal@16
      16B _DAQmxAdjust9226Cal@16
      16D _DAQmxAdjust9227Cal@16
      16F _DAQmxAdjust9229Cal@16
      171 _DAQmxAdjust9230Cal@16
      173 _DAQmxAdjust9232Cal@16
      175 _DAQmxAdjust9234GainCal@16
      176 _DAQmxAdjust9234OffsetCal@8
      178 _DAQmxAdjust9238Cal@16
      17A _DAQmxAdjust9239Cal@16
      17D _DAQmxAdjust9242Cal@16
      180 _DAQmxAdjust9244Cal@16
      182 _DAQmxAdjust9246Cal@16
      184 _DAQmxAdjust9247Cal@16
      186 _DAQmxAdjust9251Cal@16
      189 _DAQmxAdjust9260Cal@16
      18C _DAQmxAdjust9263Cal@16
      18F _DAQmxAdjust9264Cal@16
      192 _DAQmxAdjust9265Cal@16
      195 _DAQmxAdjust9269Cal@16
      111 _DAQmxAdjustDSAAICal@12
      112 _DAQmxAdjustDSAAICalEx@16
      113 _DAQmxAdjustDSAAICalWithGainAndCoupling@24
      114 _DAQmxAdjustDSAAOCal@48
      117 _DAQmxAdjustDSAAOTimebaseCal@16
      116 _DAQmxAdjustDSATimebaseCal@12
      11C _DAQmxAdjustTIOTimebaseCal@12
      1DB _DAQmxAreConfiguredCDAQSyncPortsDisconnected@16
      1D9 _DAQmxAutoConfigureCDAQSyncConnections@12
      13D _DAQmxCSeriesSetCalTemp@12
       CC _DAQmxCalculateReversePolyCoeff@36
       88 _DAQmxCfgAnlgEdgeRefTrig@24
       83 _DAQmxCfgAnlgEdgeStartTrig@20
       89 _DAQmxCfgAnlgWindowRefTrig@32
       84 _DAQmxCfgAnlgWindowStartTrig@28
       77 _DAQmxCfgBurstHandshakingTimingExportClock@40
      BEA _DAQmxCfgBurstHandshakingTimingExportClock_VB6@36
       76 _DAQmxCfgBurstHandshakingTimingImportClock@40
      BE9 _DAQmxCfgBurstHandshakingTimingImportClock_VB6@36
       78 _DAQmxCfgChangeDetectionTiming@24
      BEB _DAQmxCfgChangeDetectionTiming_VB6@20
       8C _DAQmxCfgDigEdgeAdvTrig@12
       87 _DAQmxCfgDigEdgeRefTrig@16
       82 _DAQmxCfgDigEdgeStartTrig@12
       8A _DAQmxCfgDigPatternRefTrig@20
       85 _DAQmxCfgDigPatternStartTrig@16
       75 _DAQmxCfgHandshakingTiming@16
      BE8 _DAQmxCfgHandshakingTiming_VB6@12
       79 _DAQmxCfgImplicitTiming@16
      BEC _DAQmxCfgImplicitTiming_VB6@12
       CF _DAQmxCfgInputBuffer@8
       D0 _DAQmxCfgOutputBuffer@8
       7A _DAQmxCfgPipelinedSampClkTiming@32
      BED _DAQmxCfgPipelinedSampClkTiming_VB6@28
       74 _DAQmxCfgSampClkTiming@32
      BE7 _DAQmxCfgSampClkTiming_VB6@28
       F3 _DAQmxCfgWatchdogAOExpirStates@20
       F4 _DAQmxCfgWatchdogCOExpirStates@16
       F5 _DAQmxCfgWatchdogDOExpirStates@16
      10F _DAQmxChangeExtCalPassword@12
      1B8 _DAQmxClearTEDS@4
       1A _DAQmxClearTask@4
      10E _DAQmxCloseExtCal@8
       AD _DAQmxConfigureLogging@20
      1B7 _DAQmxConfigureTEDS@8
      138 _DAQmxConnectSCExpressCalAccChans@12
       EA _DAQmxConnectTerms@12
       F2 _DAQmxControlWatchdogTask@8
       3C _DAQmxCreateAIAccelChan@64
       39 _DAQmxCreateAIBridgeChan@60
       25 _DAQmxCreateAICurrentChan@52
       27 _DAQmxCreateAICurrentRMSChan@52
       43 _DAQmxCreateAIDeviceTempChan@16
       32 _DAQmxCreateAIForceBridgePolynomialChan@84
       31 _DAQmxCreateAIForceBridgeTableChan@84
       30 _DAQmxCreateAIForceBridgeTwoPointLinChan@100
       3E _DAQmxCreateAIForceIEPEChan@64
       2C _DAQmxCreateAIFreqVoltageChan@52
       3F _DAQmxCreateAIMicrophoneChan@52
       42 _DAQmxCreateAIPosEddyCurrProxProbeChan@48
       40 _DAQmxCreateAIPosLVDTChan@72
       41 _DAQmxCreateAIPosRVDTChan@72
       35 _DAQmxCreateAIPressureBridgePolynomialChan@84
       34 _DAQmxCreateAIPressureBridgeTableChan@84
       33 _DAQmxCreateAIPressureBridgeTwoPointLinChan@100
       29 _DAQmxCreateAIRTDChan@60
       2D _DAQmxCreateAIResistanceChan@52
       2F _DAQmxCreateAIRosetteStrainGageChan@96
       2E _DAQmxCreateAIStrainGageChan@92
       3B _DAQmxCreateAITempBuiltInSensorChan@16
       28 _DAQmxCreateAIThrmcplChan@52
       2A _DAQmxCreateAIThrmstrChanIex@72
       2B _DAQmxCreateAIThrmstrChanVex@80
       38 _DAQmxCreateAITorqueBridgePolynomialChan@84
       37 _DAQmxCreateAITorqueBridgeTableChan@84
       36 _DAQmxCreateAITorqueBridgeTwoPointLinChan@100
       3D _DAQmxCreateAIVelocityIEPEChan@64
       24 _DAQmxCreateAIVoltageChan@40
       3A _DAQmxCreateAIVoltageChanWithExcit@60
       26 _DAQmxCreateAIVoltageRMSChan@40
       57 _DAQmxCreateAOCurrentChan@36
       58 _DAQmxCreateAOFuncGenChan@40
       56 _DAQmxCreateAOVoltageChan@36
       66 _DAQmxCreateCIAngEncoderChan@52
       68 _DAQmxCreateCIAngVelocityChan@44
       5D _DAQmxCreateCICountEdgesChan@24
       5E _DAQmxCreateCIDutyCycleChan@36
       5B _DAQmxCreateCIFreqChan@56
       69 _DAQmxCreateCIGPSTimestampChan@24
       65 _DAQmxCreateCILinEncoderChan@56
       67 _DAQmxCreateCILinVelocityChan@48
       5C _DAQmxCreateCIPeriodChan@56
       62 _DAQmxCreateCIPulseChanFreq@32
       64 _DAQmxCreateCIPulseChanTicks@32
       63 _DAQmxCreateCIPulseChanTime@32
       5F _DAQmxCreateCIPulseWidthChan@40
       60 _DAQmxCreateCISemiPeriodChan@36
       61 _DAQmxCreateCITwoEdgeSepChan@44
       6A _DAQmxCreateCOPulseChanFreq@44
       6C _DAQmxCreateCOPulseChanTicks@32
       6B _DAQmxCreateCOPulseChanTime@44
       59 _DAQmxCreateDIChan@16
       5A _DAQmxCreateDOChan@16
       C8 _DAQmxCreateLinScale@28
       C9 _DAQmxCreateMapScale@44
       CA _DAQmxCreatePolynomialScale@28
       51 _DAQmxCreateTEDSAIAccelChan@52
       4F _DAQmxCreateTEDSAIBridgeChan@48
       45 _DAQmxCreateTEDSAICurrentChan@52
       4C _DAQmxCreateTEDSAIForceBridgeChan@48
       52 _DAQmxCreateTEDSAIForceIEPEChan@52
       53 _DAQmxCreateTEDSAIMicrophoneChan@44
       54 _DAQmxCreateTEDSAIPosLVDTChan@60
       55 _DAQmxCreateTEDSAIPosRVDTChan@60
       4D _DAQmxCreateTEDSAIPressureBridgeChan@48
       47 _DAQmxCreateTEDSAIRTDChan@48
       4A _DAQmxCreateTEDSAIResistanceChan@52
       4B _DAQmxCreateTEDSAIStrainGageChan@64
       46 _DAQmxCreateTEDSAIThrmcplChan@48
       48 _DAQmxCreateTEDSAIThrmstrChanIex@48
       49 _DAQmxCreateTEDSAIThrmstrChanVex@56
       4E _DAQmxCreateTEDSAITorqueBridgeChan@48
       44 _DAQmxCreateTEDSAIVoltageChan@40
       50 _DAQmxCreateTEDSAIVoltageChanWithExcit@52
       CB _DAQmxCreateTableScale@28
       16 _DAQmxCreateTask@8
      CFF _DAQmxCreateTaskFromINI@12
       F0 _DAQmxCreateWatchdogTimerTask
       F1 _DAQmxCreateWatchdogTimerTaskEx@20
      BEE _DAQmxCreateWatchdogTimerTask_VB6@32
      110 _DAQmxDSASetCalTemp@12
      1D6 _DAQmxDeleteNetworkDevice@4
      1C5 _DAQmxDeleteSavedGlobalChan@4
      1C6 _DAQmxDeleteSavedScale@4
      1C4 _DAQmxDeleteSavedTask@4
      10A _DAQmxDeviceSupportsCal@8
      BF3 _DAQmxDeviceSupportsCal_VB6@8
       8B _DAQmxDisableAdvTrig@4
       86 _DAQmxDisableRefTrig@4
       81 _DAQmxDisableStartTrig@4
      139 _DAQmxDisconnectSCExpressCalAccChans@4
       EB _DAQmxDisconnectTerms@8
      104 _DAQmxESeriesCalAdjust@12
       C4 _DAQmxExportSignal@12
      128 _DAQmxGet4302CalAdjustPoints@12
      12B _DAQmxGet4303CalAdjustPoints@12
      12E _DAQmxGet4304CalAdjustPoints@12
      131 _DAQmxGet4305CalAdjustPoints@12
      137 _DAQmxGet4322CalAdjustPoints@16
      125 _DAQmxGet4339CalAdjustPoints@12
      119 _DAQmxGet4463AdjustPoints@24
      13C _DAQmxGet9201CalAdjustPoints@12
      13F _DAQmxGet9203CalAdjustPoints@28
      144 _DAQmxGet9207CalAdjustPoints@16
      147 _DAQmxGet9208CalAdjustPoints@12
      14A _DAQmxGet9209CalAdjustPoints@12
      14E _DAQmxGet9212CalAdjustPoints@16
      150 _DAQmxGet9213CalAdjustPoints@28
      152 _DAQmxGet9214CalAdjustPoints@16
      154 _DAQmxGet9215CalAdjustPoints@12
      156 _DAQmxGet9216CalAdjustPoints@12
      158 _DAQmxGet9217CalAdjustPoints@12
      15B _DAQmxGet9218CalAdjustPoints@12
      15E _DAQmxGet9219CalAdjustPoints@12
      160 _DAQmxGet9220CalAdjustPoints@12
      162 _DAQmxGet9221CalAdjustPoints@12
      164 _DAQmxGet9222CalAdjustPoints@12
      166 _DAQmxGet9223CalAdjustPoints@12
      168 _DAQmxGet9225CalAdjustPoints@12
      16A _DAQmxGet9226CalAdjustPoints@12
      16C _DAQmxGet9227CalAdjustPoints@12
      16E _DAQmxGet9229CalAdjustPoints@12
      170 _DAQmxGet9230CalAdjustPoints@12
      172 _DAQmxGet9232CalAdjustPoints@12
      174 _DAQmxGet9234CalAdjustPoints@12
      177 _DAQmxGet9238CalAdjustPoints@12
      179 _DAQmxGet9239CalAdjustPoints@12
      17B _DAQmxGet9242CalAdjustPoints@12
      17E _DAQmxGet9244CalAdjustPoints@12
      181 _DAQmxGet9246CalAdjustPoints@12
      183 _DAQmxGet9247CalAdjustPoints@12
      185 _DAQmxGet9251CalAdjustPoints@12
      187 _DAQmxGet9260CalAdjustPoints@12
      18A _DAQmxGet9263CalAdjustPoints@12
      18D _DAQmxGet9264CalAdjustPoints@12
      190 _DAQmxGet9265CalAdjustPoints@12
      193 _DAQmxGet9269CalAdjustPoints@12
      32F _DAQmxGetAIACExcitFreq@12
      332 _DAQmxGetAIACExcitSyncEnable@12
      BFE _DAQmxGetAIACExcitSyncEnable_VB6@12
      335 _DAQmxGetAIACExcitWireMode@12
      38B _DAQmxGetAIADCCustomTimingMode@12
      388 _DAQmxGetAIADCTimingMode@12
      28B _DAQmxGetAIAccelSensitivity@12
      28E _DAQmxGetAIAccelSensitivityUnits@12
      285 _DAQmxGetAIAccelUnits@12
      288 _DAQmxGetAIAcceldBRef@12
      33E _DAQmxGetAIAtten@12
      3C2 _DAQmxGetAIAutoZeroMode@12
      381 _DAQmxGetAIAveragingWinSize@12
      308 _DAQmxGetAIBridgeBalanceCoarsePot@12
      30B _DAQmxGetAIBridgeBalanceFinePot@12
      2E4 _DAQmxGetAIBridgeCfg@12
      2AF _DAQmxGetAIBridgeElectricalUnits@12
      2ED _DAQmxGetAIBridgeInitialRatio@12
      2EA _DAQmxGetAIBridgeInitialVoltage@12
      2E7 _DAQmxGetAIBridgeNomResistance@12
      2B2 _DAQmxGetAIBridgePhysicalUnits@12
      2CA _DAQmxGetAIBridgePolyForwardCoeff@16
      2CD _DAQmxGetAIBridgePolyReverseCoeff@16
      2B5 _DAQmxGetAIBridgeScaleType@12
      2F0 _DAQmxGetAIBridgeShuntCalEnable@12
      BFB _DAQmxGetAIBridgeShuntCalEnable_VB6@12
      2F9 _DAQmxGetAIBridgeShuntCalGainAdjust@12
      2F3 _DAQmxGetAIBridgeShuntCalSelect@12
      2FF _DAQmxGetAIBridgeShuntCalShuntCalAActualResistance@12
      2FC _DAQmxGetAIBridgeShuntCalShuntCalAResistance@12
      2F6 _DAQmxGetAIBridgeShuntCalShuntCalASrc@12
      305 _DAQmxGetAIBridgeShuntCalShuntCalBActualResistance@12
      302 _DAQmxGetAIBridgeShuntCalShuntCalBResistance@12
      2C4 _DAQmxGetAIBridgeTableElectricalVals@16
      2C7 _DAQmxGetAIBridgeTablePhysicalVals@16
      2B8 _DAQmxGetAIBridgeTwoPointLinFirstElectricalVal@12
      2BB _DAQmxGetAIBridgeTwoPointLinFirstPhysicalVal@12
      2BE _DAQmxGetAIBridgeTwoPointLinSecondElectricalVal@12
      2C1 _DAQmxGetAIBridgeTwoPointLinSecondPhysicalVal@12
      2AC _DAQmxGetAIBridgeUnits@12
      395 _DAQmxGetAIChanCalApplyCalIfExp@12
      C06 _DAQmxGetAIChanCalApplyCalIfExp_VB6@12
       6D _DAQmxGetAIChanCalCalDate@28
      3AA _DAQmxGetAIChanCalDesc@16
      392 _DAQmxGetAIChanCalEnableCal@12
      C05 _DAQmxGetAIChanCalEnableCal_VB6@12
       6F _DAQmxGetAIChanCalExpDate@28
      391 _DAQmxGetAIChanCalHasValidCalInfo@12
      C04 _DAQmxGetAIChanCalHasValidCalInfo_VB6@12
      3A7 _DAQmxGetAIChanCalOperatorName@16
      3A1 _DAQmxGetAIChanCalPolyForwardCoeff@16
      3A4 _DAQmxGetAIChanCalPolyReverseCoeff@16
      398 _DAQmxGetAIChanCalScaleType@12
      39B _DAQmxGetAIChanCalTablePreScaledVals@16
      39E _DAQmxGetAIChanCalTableScaledVals@16
      3B0 _DAQmxGetAIChanCalVerifAcqVals@16
      3AD _DAQmxGetAIChanCalVerifRefVals@16
      9C1 _DAQmxGetAIConvActiveEdge@8
      9C4 _DAQmxGetAIConvActiveEdgeEx@12
      9DF _DAQmxGetAIConvDigFltrEnable@8
      9E2 _DAQmxGetAIConvDigFltrEnableEx@12
      C7B _DAQmxGetAIConvDigFltrEnable_VB6@8
      9E5 _DAQmxGetAIConvDigFltrMinPulseWidth@8
      9E8 _DAQmxGetAIConvDigFltrMinPulseWidthEx@12
      9F1 _DAQmxGetAIConvDigFltrTimebaseRate@8
      9F4 _DAQmxGetAIConvDigFltrTimebaseRateEx@12
      9EB _DAQmxGetAIConvDigFltrTimebaseSrc@12
      9EE _DAQmxGetAIConvDigFltrTimebaseSrcEx@16
      9F7 _DAQmxGetAIConvDigSyncEnable@8
      9FA _DAQmxGetAIConvDigSyncEnableEx@12
      C7C _DAQmxGetAIConvDigSyncEnable_VB6@8
      9B9 _DAQmxGetAIConvMaxRate@8
      9BA _DAQmxGetAIConvMaxRateEx@12
      9B3 _DAQmxGetAIConvRate@8
      9B6 _DAQmxGetAIConvRateEx@12
      9BB _DAQmxGetAIConvSrc@12
      9BE _DAQmxGetAIConvSrcEx@16
      9C7 _DAQmxGetAIConvTimebaseDiv@8
      9CA _DAQmxGetAIConvTimebaseDivEx@12
      9CD _DAQmxGetAIConvTimebaseSrc@8
      9D0 _DAQmxGetAIConvTimebaseSrcEx@12
      2D2 _DAQmxGetAICoupling@12
      238 _DAQmxGetAICurrentACRMSUnits@12
      30E _DAQmxGetAICurrentShuntLoc@12
      311 _DAQmxGetAICurrentShuntResistance@12
      235 _DAQmxGetAICurrentUnits@12
      1FC _DAQmxGetAICustomScaleName@16
      3B9 _DAQmxGetAIDCOffset@12
      3CB _DAQmxGetAIDataXferCustomThreshold@12
      3C5 _DAQmxGetAIDataXferMech@12
      3C8 _DAQmxGetAIDataXferReqCond@12
      3DD _DAQmxGetAIDevScalingCoeff@16
      368 _DAQmxGetAIDigFltrBandpassCenterFreq@12
      36B _DAQmxGetAIDigFltrBandpassWidth@12
      374 _DAQmxGetAIDigFltrCoeff@16
      356 _DAQmxGetAIDigFltrEnable@12
      C01 _DAQmxGetAIDigFltrEnable_VB6@12
      365 _DAQmxGetAIDigFltrHighpassCutoffFreq@12
      362 _DAQmxGetAIDigFltrLowpassCutoffFreq@12
      36E _DAQmxGetAIDigFltrNotchCenterFreq@12
      371 _DAQmxGetAIDigFltrNotchWidth@12
      35F _DAQmxGetAIDigFltrOrder@12
      35C _DAQmxGetAIDigFltrResponse@12
      359 _DAQmxGetAIDigFltrType@12
      887 _DAQmxGetAIDigFltrTypes@12
      38E _DAQmxGetAIDitherEnable@12
      C03 _DAQmxGetAIDitherEnable_VB6@12
      273 _DAQmxGetAIEddyCurrentProxProbeSensitivity@12
      276 _DAQmxGetAIEddyCurrentProxProbeSensitivityUnits@12
      270 _DAQmxGetAIEddyCurrentProxProbeUnits@12
      3DE _DAQmxGetAIEnhancedAliasRejectionEnable@12
      C09 _DAQmxGetAIEnhancedAliasRejectionEnable_VB6@12
      323 _DAQmxGetAIExcitActualVal@12
      326 _DAQmxGetAIExcitDCorAC@12
      32C _DAQmxGetAIExcitIdleOutputBehavior@12
      314 _DAQmxGetAIExcitSense@12
      317 _DAQmxGetAIExcitSrc@12
      31D _DAQmxGetAIExcitUseForScaling@12
      BFC _DAQmxGetAIExcitUseForScaling_VB6@12
      320 _DAQmxGetAIExcitUseMultiplexed@12
      BFD _DAQmxGetAIExcitUseMultiplexed_VB6@12
      31A _DAQmxGetAIExcitVal@12
      329 _DAQmxGetAIExcitVoltageOrCurrent@12
      377 _DAQmxGetAIFilterDelay@12
      37E _DAQmxGetAIFilterDelayAdjustment@12
      378 _DAQmxGetAIFilterDelayUnits@12
      2A0 _DAQmxGetAIForceIEPESensorSensitivity@12
      2A3 _DAQmxGetAIForceIEPESensorSensitivityUnits@12
      232 _DAQmxGetAIForceReadFromChan@12
      BF8 _DAQmxGetAIForceReadFromChan_VB6@12
      29D _DAQmxGetAIForceUnits@12
      25B _DAQmxGetAIFreqHyst@12
      258 _DAQmxGetAIFreqThreshVoltage@12
      255 _DAQmxGetAIFreqUnits@12
      3BC _DAQmxGetAIGain@12
      2D5 _DAQmxGetAIImpedance@12
      2DB _DAQmxGetAIInputSrc@16
      2D0 _DAQmxGetAIIsTEDS@12
      BFA _DAQmxGetAIIsTEDS_VB6@12
      261 _DAQmxGetAILVDTSensitivity@12
      264 _DAQmxGetAILVDTSensitivityUnits@12
      25E _DAQmxGetAILVDTUnits@12
      2E1 _DAQmxGetAILeadWireResistance@12
      3DA _DAQmxGetAILossyLSBRemovalCompressedSampSize@12
      347 _DAQmxGetAILowpassCutoffFreq@12
      344 _DAQmxGetAILowpassEnable@12
      C00 _DAQmxGetAILowpassEnable_VB6@12
      34A _DAQmxGetAILowpassSwitchCapClkSrc@12
      350 _DAQmxGetAILowpassSwitchCapExtClkDiv@12
      34D _DAQmxGetAILowpassSwitchCapExtClkFreq@12
      353 _DAQmxGetAILowpassSwitchCapOutClkDiv@12
      1F6 _DAQmxGetAIMax@12
      1FF _DAQmxGetAIMeasType@12
      3D4 _DAQmxGetAIMemMapEnable@12
      C08 _DAQmxGetAIMemMapEnable_VB6@12
      282 _DAQmxGetAIMicrophoneSensitivity@12
      1F9 _DAQmxGetAIMin@12
      3E1 _DAQmxGetAIOpenChanDetectEnable@12
      C0A _DAQmxGetAIOpenChanDetectEnable_VB6@12
      338 _DAQmxGetAIOpenThrmcplDetectEnable@12
      BFF _DAQmxGetAIOpenThrmcplDetectEnable_VB6@12
      2A6 _DAQmxGetAIPressureUnits@12
      341 _DAQmxGetAIProbeAtten@12
      21D _DAQmxGetAIRTDA@12
      220 _DAQmxGetAIRTDB@12
      223 _DAQmxGetAIRTDC@12
      21A _DAQmxGetAIRTDR0@12
      217 _DAQmxGetAIRTDType@12
      26A _DAQmxGetAIRVDTSensitivity@12
      26D _DAQmxGetAIRVDTSensitivityUnits@12
      267 _DAQmxGetAIRVDTUnits@12
      3D7 _DAQmxGetAIRawDataCompressionType@12
      387 _DAQmxGetAIRawSampJustification@12
      386 _DAQmxGetAIRawSampSize@12
      37B _DAQmxGetAIRemoveFilterDelay@12
      C02 _DAQmxGetAIRemoveFilterDelay_VB6@12
      2DE _DAQmxGetAIResistanceCfg@12
      252 _DAQmxGetAIResistanceUnits@12
      385 _DAQmxGetAIResolution@12
      384 _DAQmxGetAIResolutionUnits@12
      3B3 _DAQmxGetAIRngHigh@12
      3B6 _DAQmxGetAIRngLow@12
      24B _DAQmxGetAIRosetteStrainGageOrientation@12
      24F _DAQmxGetAIRosetteStrainGageRosetteMeasType@12
      24A _DAQmxGetAIRosetteStrainGageRosetteType@12
      24E _DAQmxGetAIRosetteStrainGageStrainChans@16
      3BF _DAQmxGetAISampAndHoldEnable@12
      C07 _DAQmxGetAISampAndHoldEnable_VB6@12
      279 _DAQmxGetAISoundPressureMaxSoundPressureLvl@12
      27C _DAQmxGetAISoundPressureUnits@12
      27F _DAQmxGetAISoundPressuredBRef@12
      247 _DAQmxGetAIStrainGageCfg@12
      23E _DAQmxGetAIStrainGageForceReadFromChan@12
      BF9 _DAQmxGetAIStrainGageForceReadFromChan_VB6@12
      241 _DAQmxGetAIStrainGageGageFactor@12
      244 _DAQmxGetAIStrainGagePoissonRatio@12
      23B _DAQmxGetAIStrainUnits@12
      2D1 _DAQmxGetAITEDSUnits@16
      209 _DAQmxGetAITempUnits@12
      2D8 _DAQmxGetAITermCfg@12
      216 _DAQmxGetAIThrmcplCJCChan@16
      212 _DAQmxGetAIThrmcplCJCSrc@12
      213 _DAQmxGetAIThrmcplCJCVal@12
      33B _DAQmxGetAIThrmcplLeadOffsetVoltage@12
      20F _DAQmxGetAIThrmcplScaleType@12
      20C _DAQmxGetAIThrmcplType@12
      226 _DAQmxGetAIThrmstrA@12
      229 _DAQmxGetAIThrmstrB@12
      22C _DAQmxGetAIThrmstrC@12
      22F _DAQmxGetAIThrmstrR1@12
      2A9 _DAQmxGetAITorqueUnits@12
      3D1 _DAQmxGetAIUsbXferReqCount@12
      3CE _DAQmxGetAIUsbXferReqSize@12
      297 _DAQmxGetAIVelocityIEPESensorSensitivity@12
      29A _DAQmxGetAIVelocityIEPESensorSensitivityUnits@12
      294 _DAQmxGetAIVelocityIEPESensordBRef@12
      291 _DAQmxGetAIVelocityUnits@12
      206 _DAQmxGetAIVoltageACRMSUnits@12
      200 _DAQmxGetAIVoltageUnits@12
      203 _DAQmxGetAIVoltagedBRef@12
      3F4 _DAQmxGetAOCurrentUnits@12
      3EA _DAQmxGetAOCustomScaleName@16
      434 _DAQmxGetAODACOffsetExtSrc@16
      431 _DAQmxGetAODACOffsetSrc@12
      437 _DAQmxGetAODACOffsetVal@12
      425 _DAQmxGetAODACRefAllowConnToGnd@12
      C0C _DAQmxGetAODACRefAllowConnToGnd_VB6@12
      422 _DAQmxGetAODACRefConnToGnd@12
      C0B _DAQmxGetAODACRefConnToGnd_VB6@12
      42B _DAQmxGetAODACRefExtSrc@16
      428 _DAQmxGetAODACRefSrc@12
      42E _DAQmxGetAODACRefVal@12
      41C _DAQmxGetAODACRngHigh@12
      41F _DAQmxGetAODACRngLow@12
      44C _DAQmxGetAODataXferMech@12
      44F _DAQmxGetAODataXferReqCond@12
      45B _DAQmxGetAODevScalingCoeff@16
      45C _DAQmxGetAOEnhancedImageRejectionEnable@12
      C10 _DAQmxGetAOEnhancedImageRejectionEnable_VB6@12
      43D _DAQmxGetAOFilterDelay@12
      443 _DAQmxGetAOFilterDelayAdjustment@12
      440 _DAQmxGetAOFilterDelayUnits@12
      3FD _DAQmxGetAOFuncGenAmplitude@12
      409 _DAQmxGetAOFuncGenFMDeviation@12
      3FA _DAQmxGetAOFuncGenFreq@12
      406 _DAQmxGetAOFuncGenModulationType@12
      400 _DAQmxGetAOFuncGenOffset@12
      403 _DAQmxGetAOFuncGenSquareDutyCycle@12
      3F7 _DAQmxGetAOFuncGenType@12
      446 _DAQmxGetAOGain@12
      412 _DAQmxGetAOIdleOutputBehavior@12
      40F _DAQmxGetAOLoadImpedance@12
      3E4 _DAQmxGetAOMax@12
      458 _DAQmxGetAOMemMapEnable@12
      C0F _DAQmxGetAOMemMapEnable_VB6@12
      3E7 _DAQmxGetAOMin@12
      40C _DAQmxGetAOOutputImpedance@12
      3ED _DAQmxGetAOOutputType@12
      BC4 _DAQmxGetAOPowerAmpChannelEnable@8
      CA2 _DAQmxGetAOPowerAmpChannelEnable_VB6@8
      BC9 _DAQmxGetAOPowerAmpGain@8
      BCA _DAQmxGetAOPowerAmpOffset@8
      BC8 _DAQmxGetAOPowerAmpOvercurrent@8
      CA3 _DAQmxGetAOPowerAmpOvercurrent_VB6@8
      BC7 _DAQmxGetAOPowerAmpScalingCoeff@12
      43A _DAQmxGetAOReglitchEnable@12
      C0D _DAQmxGetAOReglitchEnable_VB6@12
      41B _DAQmxGetAOResolution@12
      418 _DAQmxGetAOResolutionUnits@12
      415 _DAQmxGetAOTermCfg@12
      455 _DAQmxGetAOUsbXferReqCount@12
      452 _DAQmxGetAOUsbXferReqSize@12
      449 _DAQmxGetAOUseOnlyOnBrdMem@12
      C0E _DAQmxGetAOUseOnlyOnBrdMem_VB6@12
      3F1 _DAQmxGetAOVoltageCurrentLimit@12
      3EE _DAQmxGetAOVoltageUnits@12
      AEA _DAQmxGetAdvTrigType@8
      1D1 _DAQmxGetAnalogPowerUpStates
      1D2 _DAQmxGetAnalogPowerUpStatesWithOutputType
      AB3 _DAQmxGetAnlgEdgeRefTrigCoupling@8
      AB6 _DAQmxGetAnlgEdgeRefTrigDigFltrEnable@8
      C86 _DAQmxGetAnlgEdgeRefTrigDigFltrEnable_VB6@8
      AB9 _DAQmxGetAnlgEdgeRefTrigDigFltrMinPulseWidth@8
      ABF _DAQmxGetAnlgEdgeRefTrigDigFltrTimebaseRate@8
      ABC _DAQmxGetAnlgEdgeRefTrigDigFltrTimebaseSrc@12
      AC2 _DAQmxGetAnlgEdgeRefTrigDigSyncEnable@8
      C87 _DAQmxGetAnlgEdgeRefTrigDigSyncEnable_VB6@8
      AB0 _DAQmxGetAnlgEdgeRefTrigHyst@8
      AAD _DAQmxGetAnlgEdgeRefTrigLvl@8
      AAA _DAQmxGetAnlgEdgeRefTrigSlope@8
      AA7 _DAQmxGetAnlgEdgeRefTrigSrc@12
      A49 _DAQmxGetAnlgEdgeStartTrigCoupling@8
      A4C _DAQmxGetAnlgEdgeStartTrigDigFltrEnable@8
      C7F _DAQmxGetAnlgEdgeStartTrigDigFltrEnable_VB6@8
      A4F _DAQmxGetAnlgEdgeStartTrigDigFltrMinPulseWidth@8
      A55 _DAQmxGetAnlgEdgeStartTrigDigFltrTimebaseRate@8
      A52 _DAQmxGetAnlgEdgeStartTrigDigFltrTimebaseSrc@12
      A58 _DAQmxGetAnlgEdgeStartTrigDigSyncEnable@8
      C80 _DAQmxGetAnlgEdgeStartTrigDigSyncEnable_VB6@8
      A46 _DAQmxGetAnlgEdgeStartTrigHyst@8
      A43 _DAQmxGetAnlgEdgeStartTrigLvl@8
      A40 _DAQmxGetAnlgEdgeStartTrigSlope@8
      A3D _DAQmxGetAnlgEdgeStartTrigSrc@12
      B0F _DAQmxGetAnlgLvlPauseTrigCoupling@8
      B12 _DAQmxGetAnlgLvlPauseTrigDigFltrEnable@8
      C8D _DAQmxGetAnlgLvlPauseTrigDigFltrEnable_VB6@8
      B15 _DAQmxGetAnlgLvlPauseTrigDigFltrMinPulseWidth@8
      B1B _DAQmxGetAnlgLvlPauseTrigDigFltrTimebaseRate@8
      B18 _DAQmxGetAnlgLvlPauseTrigDigFltrTimebaseSrc@12
      B1E _DAQmxGetAnlgLvlPauseTrigDigSyncEnable@8
      C8E _DAQmxGetAnlgLvlPauseTrigDigSyncEnable_VB6@8
      B0C _DAQmxGetAnlgLvlPauseTrigHyst@8
      B09 _DAQmxGetAnlgLvlPauseTrigLvl@8
      B03 _DAQmxGetAnlgLvlPauseTrigSrc@12
      B06 _DAQmxGetAnlgLvlPauseTrigWhen@8
      B2A _DAQmxGetAnlgWinPauseTrigBtm@8
      B2D _DAQmxGetAnlgWinPauseTrigCoupling@8
      B30 _DAQmxGetAnlgWinPauseTrigDigFltrEnable@8
      C8F _DAQmxGetAnlgWinPauseTrigDigFltrEnable_VB6@8
      B33 _DAQmxGetAnlgWinPauseTrigDigFltrMinPulseWidth@8
      B39 _DAQmxGetAnlgWinPauseTrigDigFltrTimebaseRate@8
      B36 _DAQmxGetAnlgWinPauseTrigDigFltrTimebaseSrc@12
      B3C _DAQmxGetAnlgWinPauseTrigDigSyncEnable@8
      C90 _DAQmxGetAnlgWinPauseTrigDigSyncEnable_VB6@8
      B21 _DAQmxGetAnlgWinPauseTrigSrc@12
      B27 _DAQmxGetAnlgWinPauseTrigTop@8
      B24 _DAQmxGetAnlgWinPauseTrigWhen@8
      ACE _DAQmxGetAnlgWinRefTrigBtm@8
      AD1 _DAQmxGetAnlgWinRefTrigCoupling@8
      AD4 _DAQmxGetAnlgWinRefTrigDigFltrEnable@8
      C88 _DAQmxGetAnlgWinRefTrigDigFltrEnable_VB6@8
      AD7 _DAQmxGetAnlgWinRefTrigDigFltrMinPulseWidth@8
      ADD _DAQmxGetAnlgWinRefTrigDigFltrTimebaseRate@8
      ADA _DAQmxGetAnlgWinRefTrigDigFltrTimebaseSrc@12
      AE0 _DAQmxGetAnlgWinRefTrigDigSyncEnable@8
      C89 _DAQmxGetAnlgWinRefTrigDigSyncEnable_VB6@8
      AC5 _DAQmxGetAnlgWinRefTrigSrc@12
      ACB _DAQmxGetAnlgWinRefTrigTop@8
      AC8 _DAQmxGetAnlgWinRefTrigWhen@8
      A64 _DAQmxGetAnlgWinStartTrigBtm@8
      A67 _DAQmxGetAnlgWinStartTrigCoupling@8
      A6A _DAQmxGetAnlgWinStartTrigDigFltrEnable@8
      C81 _DAQmxGetAnlgWinStartTrigDigFltrEnable_VB6@8
      A6D _DAQmxGetAnlgWinStartTrigDigFltrMinPulseWidth@8
      A73 _DAQmxGetAnlgWinStartTrigDigFltrTimebaseRate@8
      A70 _DAQmxGetAnlgWinStartTrigDigFltrTimebaseSrc@12
      A76 _DAQmxGetAnlgWinStartTrigDigSyncEnable@8
      C82 _DAQmxGetAnlgWinStartTrigDigSyncEnable_VB6@8
      A5B _DAQmxGetAnlgWinStartTrigSrc@12
      A61 _DAQmxGetAnlgWinStartTrigTop@8
      A5E _DAQmxGetAnlgWinStartTrigWhen@8
      B60 _DAQmxGetArmStartTerm@12
      B5D _DAQmxGetArmStartTrigType@8
      1DA _DAQmxGetAutoConfiguredCDAQSyncConnections@8
      1E1 _DAQmxGetBufInputBufSize@8
      1E4 _DAQmxGetBufInputOnbrdBufSize@8
      1E5 _DAQmxGetBufOutputBufSize@8
      1E8 _DAQmxGetBufOutputOnbrdBufSize@8
       D1 _DAQmxGetBufferAttribute
      5B2 _DAQmxGetCIAngEncoderInitialAngle@12
      5AF _DAQmxGetCIAngEncoderPulsesPerRev@12
      5AC _DAQmxGetCIAngEncoderUnits@12
      744 _DAQmxGetCICount@12
      555 _DAQmxGetCICountEdgesActiveEdge@12
      543 _DAQmxGetCICountEdgesCountDirDigFltrEnable@12
      C24 _DAQmxGetCICountEdgesCountDirDigFltrEnable_VB6@12
      546 _DAQmxGetCICountEdgesCountDirDigFltrMinPulseWidth@12
      54C _DAQmxGetCICountEdgesCountDirDigFltrTimebaseRate@12
      549 _DAQmxGetCICountEdgesCountDirDigFltrTimebaseSrc@16
      54F _DAQmxGetCICountEdgesCountDirDigSyncEnable@12
      C25 _DAQmxGetCICountEdgesCountDirDigSyncEnable_VB6@12
      540 _DAQmxGetCICountEdgesCountDirLogicLvlBehavior@12
      53D _DAQmxGetCICountEdgesCountDirTermCfg@12
      576 _DAQmxGetCICountEdgesCountResetActiveEdge@12
      567 _DAQmxGetCICountEdgesCountResetDigFltrEnable@12
      C27 _DAQmxGetCICountEdgesCountResetDigFltrEnable_VB6@12
      56A _DAQmxGetCICountEdgesCountResetDigFltrMinPulseWidth@12
      570 _DAQmxGetCICountEdgesCountResetDigFltrTimebaseRate@12
      56D _DAQmxGetCICountEdgesCountResetDigFltrTimebaseSrc@16
      573 _DAQmxGetCICountEdgesCountResetDigSyncEnable@12
      C28 _DAQmxGetCICountEdgesCountResetDigSyncEnable_VB6@12
      558 _DAQmxGetCICountEdgesCountResetEnable@12
      C26 _DAQmxGetCICountEdgesCountResetEnable_VB6@12
      564 _DAQmxGetCICountEdgesCountResetLogicLvlBehavior@12
      55B _DAQmxGetCICountEdgesCountResetResetCount@12
      55E _DAQmxGetCICountEdgesCountResetTerm@16
      561 _DAQmxGetCICountEdgesCountResetTermCfg@12
      528 _DAQmxGetCICountEdgesDigFltrEnable@12
      C22 _DAQmxGetCICountEdgesDigFltrEnable_VB6@12
      52B _DAQmxGetCICountEdgesDigFltrMinPulseWidth@12
      531 _DAQmxGetCICountEdgesDigFltrTimebaseRate@12
      52E _DAQmxGetCICountEdgesDigFltrTimebaseSrc@16
      534 _DAQmxGetCICountEdgesDigSyncEnable@12
      C23 _DAQmxGetCICountEdgesDigSyncEnable_VB6@12
      537 _DAQmxGetCICountEdgesDir@12
      53A _DAQmxGetCICountEdgesDirTerm@16
      585 _DAQmxGetCICountEdgesGateDigFltrEnable@12
      C2A _DAQmxGetCICountEdgesGateDigFltrEnable_VB6@12
      588 _DAQmxGetCICountEdgesGateDigFltrMinPulseWidth@12
      58E _DAQmxGetCICountEdgesGateDigFltrTimebaseRate@12
      58B _DAQmxGetCICountEdgesGateDigFltrTimebaseSrc@16
      579 _DAQmxGetCICountEdgesGateEnable@12
      C29 _DAQmxGetCICountEdgesGateEnable_VB6@12
      582 _DAQmxGetCICountEdgesGateLogicLvlBehavior@12
      57C _DAQmxGetCICountEdgesGateTerm@16
      57F _DAQmxGetCICountEdgesGateTermCfg@12
      591 _DAQmxGetCICountEdgesGateWhen@12
      552 _DAQmxGetCICountEdgesInitialCnt@12
      525 _DAQmxGetCICountEdgesLogicLvlBehavior@12
      51F _DAQmxGetCICountEdgesTerm@16
      522 _DAQmxGetCICountEdgesTermCfg@12
      72F _DAQmxGetCICtrTimebaseActiveEdge@12
      732 _DAQmxGetCICtrTimebaseDigFltrEnable@12
      C43 _DAQmxGetCICtrTimebaseDigFltrEnable_VB6@12
      735 _DAQmxGetCICtrTimebaseDigFltrMinPulseWidth@12
      73B _DAQmxGetCICtrTimebaseDigFltrTimebaseRate@12
      738 _DAQmxGetCICtrTimebaseDigFltrTimebaseSrc@16
      73E _DAQmxGetCICtrTimebaseDigSyncEnable@12
      C44 _DAQmxGetCICtrTimebaseDigSyncEnable_VB6@12
      747 _DAQmxGetCICtrTimebaseMasterTimebaseDiv@12
      72C _DAQmxGetCICtrTimebaseRate@12
      729 _DAQmxGetCICtrTimebaseSrc@16
      4C7 _DAQmxGetCICustomScaleName@16
      750 _DAQmxGetCIDataXferMech@12
      753 _DAQmxGetCIDataXferReqCond@12
      760 _DAQmxGetCIDupCountPrevent@12
      C47 _DAQmxGetCIDupCountPrevent_VB6@12
      59D _DAQmxGetCIDutyCycleDigFltrEnable@12
      C2B _DAQmxGetCIDutyCycleDigFltrEnable_VB6@12
      5A0 _DAQmxGetCIDutyCycleDigFltrMinPulseWidth@12
      5A6 _DAQmxGetCIDutyCycleDigFltrTimebaseRate@12
      5A3 _DAQmxGetCIDutyCycleDigFltrTimebaseSrc@16
      59A _DAQmxGetCIDutyCycleLogicLvlBehavior@12
      5A9 _DAQmxGetCIDutyCycleStartingEdge@12
      594 _DAQmxGetCIDutyCycleTerm@16
      597 _DAQmxGetCIDutyCycleTermCfg@12
      5CA _DAQmxGetCIEncoderAInputDigFltrEnable@12
      C2C _DAQmxGetCIEncoderAInputDigFltrEnable_VB6@12
      5CD _DAQmxGetCIEncoderAInputDigFltrMinPulseWidth@12
      5D3 _DAQmxGetCIEncoderAInputDigFltrTimebaseRate@12
      5D0 _DAQmxGetCIEncoderAInputDigFltrTimebaseSrc@16
      5D6 _DAQmxGetCIEncoderAInputDigSyncEnable@12
      C2D _DAQmxGetCIEncoderAInputDigSyncEnable_VB6@12
      5C7 _DAQmxGetCIEncoderAInputLogicLvlBehavior@12
      5C1 _DAQmxGetCIEncoderAInputTerm@16
      5C4 _DAQmxGetCIEncoderAInputTermCfg@12
      5E2 _DAQmxGetCIEncoderBInputDigFltrEnable@12
      C2E _DAQmxGetCIEncoderBInputDigFltrEnable_VB6@12
      5E5 _DAQmxGetCIEncoderBInputDigFltrMinPulseWidth@12
      5EB _DAQmxGetCIEncoderBInputDigFltrTimebaseRate@12
      5E8 _DAQmxGetCIEncoderBInputDigFltrTimebaseSrc@16
      5EE _DAQmxGetCIEncoderBInputDigSyncEnable@12
      C2F _DAQmxGetCIEncoderBInputDigSyncEnable_VB6@12
      5DF _DAQmxGetCIEncoderBInputLogicLvlBehavior@12
      5D9 _DAQmxGetCIEncoderBInputTerm@16
      5DC _DAQmxGetCIEncoderBInputTermCfg@12
      5BE _DAQmxGetCIEncoderDecodingType@12
      609 _DAQmxGetCIEncoderZIndexEnable@12
      C32 _DAQmxGetCIEncoderZIndexEnable_VB6@12
      60F _DAQmxGetCIEncoderZIndexPhase@12
      60C _DAQmxGetCIEncoderZIndexVal@12
      5FA _DAQmxGetCIEncoderZInputDigFltrEnable@12
      C30 _DAQmxGetCIEncoderZInputDigFltrEnable_VB6@12
      5FD _DAQmxGetCIEncoderZInputDigFltrMinPulseWidth@12
      603 _DAQmxGetCIEncoderZInputDigFltrTimebaseRate@12
      600 _DAQmxGetCIEncoderZInputDigFltrTimebaseSrc@16
      606 _DAQmxGetCIEncoderZInputDigSyncEnable@12
      C31 _DAQmxGetCIEncoderZInputDigSyncEnable_VB6@12
      5F7 _DAQmxGetCIEncoderZInputLogicLvlBehavior@12
      5F1 _DAQmxGetCIEncoderZInputTerm@16
      5F4 _DAQmxGetCIEncoderZInputTermCfg@12
      4D7 _DAQmxGetCIFreqDigFltrEnable@12
      C1C _DAQmxGetCIFreqDigFltrEnable_VB6@12
      4DA _DAQmxGetCIFreqDigFltrMinPulseWidth@12
      4E0 _DAQmxGetCIFreqDigFltrTimebaseRate@12
      4DD _DAQmxGetCIFreqDigFltrTimebaseSrc@16
      4E3 _DAQmxGetCIFreqDigSyncEnable@12
      C1D _DAQmxGetCIFreqDigSyncEnable_VB6@12
      4F2 _DAQmxGetCIFreqDiv@12
      4EC _DAQmxGetCIFreqEnableAveraging@12
      C1E _DAQmxGetCIFreqEnableAveraging_VB6@12
      4D4 _DAQmxGetCIFreqLogicLvlBehavior@12
      4E9 _DAQmxGetCIFreqMeasMeth@12
      4EF _DAQmxGetCIFreqMeasTime@12
      4E6 _DAQmxGetCIFreqStartingEdge@12
      4CE _DAQmxGetCIFreqTerm@16
      4D1 _DAQmxGetCIFreqTermCfg@12
      4CB _DAQmxGetCIFreqUnits@12
      636 _DAQmxGetCIGPSSyncMethod@12
      639 _DAQmxGetCIGPSSyncSrc@16
      5B8 _DAQmxGetCILinEncoderDistPerPulse@12
      5BB _DAQmxGetCILinEncoderInitialPos@12
      5B5 _DAQmxGetCILinEncoderUnits@12
      4C1 _DAQmxGetCIMax@12
      766 _DAQmxGetCIMaxMeasPeriod@12
      4CA _DAQmxGetCIMeasType@12
      75C _DAQmxGetCIMemMapEnable@12
      C46 _DAQmxGetCIMemMapEnable_VB6@12
      4C4 _DAQmxGetCIMin@12
      75F _DAQmxGetCINumPossiblyInvalidSamps@12
      745 _DAQmxGetCIOutputState@12
      501 _DAQmxGetCIPeriodDigFltrEnable@12
      C1F _DAQmxGetCIPeriodDigFltrEnable_VB6@12
      504 _DAQmxGetCIPeriodDigFltrMinPulseWidth@12
      50A _DAQmxGetCIPeriodDigFltrTimebaseRate@12
      507 _DAQmxGetCIPeriodDigFltrTimebaseSrc@16
      50D _DAQmxGetCIPeriodDigSyncEnable@12
      C20 _DAQmxGetCIPeriodDigSyncEnable_VB6@12
      51C _DAQmxGetCIPeriodDiv@12
      516 _DAQmxGetCIPeriodEnableAveraging@12
      C21 _DAQmxGetCIPeriodEnableAveraging_VB6@12
      4FE _DAQmxGetCIPeriodLogicLvlBehavior@12
      513 _DAQmxGetCIPeriodMeasMeth@12
      519 _DAQmxGetCIPeriodMeasTime@12
      510 _DAQmxGetCIPeriodStartingEdge@12
      4F8 _DAQmxGetCIPeriodTerm@16
      4FB _DAQmxGetCIPeriodTermCfg@12
      4F5 _DAQmxGetCIPeriodUnits@12
      763 _DAQmxGetCIPrescaler@12
      6DE _DAQmxGetCIPulseFreqDigFltrEnable@12
      C3D _DAQmxGetCIPulseFreqDigFltrEnable_VB6@12
      6E1 _DAQmxGetCIPulseFreqDigFltrMinPulseWidth@12
      6E7 _DAQmxGetCIPulseFreqDigFltrTimebaseRate@12
      6E4 _DAQmxGetCIPulseFreqDigFltrTimebaseSrc@16
      6EA _DAQmxGetCIPulseFreqDigSyncEnable@12
      C3E _DAQmxGetCIPulseFreqDigSyncEnable_VB6@12
      6DB _DAQmxGetCIPulseFreqLogicLvlBehavior@12
      6ED _DAQmxGetCIPulseFreqStartEdge@12
      6D5 _DAQmxGetCIPulseFreqTerm@16
      6D8 _DAQmxGetCIPulseFreqTermCfg@12
      6D2 _DAQmxGetCIPulseFreqUnits@12
      717 _DAQmxGetCIPulseTicksDigFltrEnable@12
      C41 _DAQmxGetCIPulseTicksDigFltrEnable_VB6@12
      71A _DAQmxGetCIPulseTicksDigFltrMinPulseWidth@12
      720 _DAQmxGetCIPulseTicksDigFltrTimebaseRate@12
      71D _DAQmxGetCIPulseTicksDigFltrTimebaseSrc@16
      723 _DAQmxGetCIPulseTicksDigSyncEnable@12
      C42 _DAQmxGetCIPulseTicksDigSyncEnable_VB6@12
      714 _DAQmxGetCIPulseTicksLogicLvlBehavior@12
      726 _DAQmxGetCIPulseTicksStartEdge@12
      70E _DAQmxGetCIPulseTicksTerm@16
      711 _DAQmxGetCIPulseTicksTermCfg@12
      6FC _DAQmxGetCIPulseTimeDigFltrEnable@12
      C3F _DAQmxGetCIPulseTimeDigFltrEnable_VB6@12
      6FF _DAQmxGetCIPulseTimeDigFltrMinPulseWidth@12
      705 _DAQmxGetCIPulseTimeDigFltrTimebaseRate@12
      702 _DAQmxGetCIPulseTimeDigFltrTimebaseSrc@16
      708 _DAQmxGetCIPulseTimeDigSyncEnable@12
      C40 _DAQmxGetCIPulseTimeDigSyncEnable_VB6@12
      6F9 _DAQmxGetCIPulseTimeLogicLvlBehavior@12
      70B _DAQmxGetCIPulseTimeStartEdge@12
      6F3 _DAQmxGetCIPulseTimeTerm@16
      6F6 _DAQmxGetCIPulseTimeTermCfg@12
      6F0 _DAQmxGetCIPulseTimeUnits@12
      61E _DAQmxGetCIPulseWidthDigFltrEnable@12
      C33 _DAQmxGetCIPulseWidthDigFltrEnable_VB6@12
      621 _DAQmxGetCIPulseWidthDigFltrMinPulseWidth@12
      627 _DAQmxGetCIPulseWidthDigFltrTimebaseRate@12
      624 _DAQmxGetCIPulseWidthDigFltrTimebaseSrc@16
      62A _DAQmxGetCIPulseWidthDigSyncEnable@12
      C34 _DAQmxGetCIPulseWidthDigSyncEnable_VB6@12
      61B _DAQmxGetCIPulseWidthLogicLvlBehavior@12
      62D _DAQmxGetCIPulseWidthStartingEdge@12
      615 _DAQmxGetCIPulseWidthTerm@16
      618 _DAQmxGetCIPulseWidthTermCfg@12
      612 _DAQmxGetCIPulseWidthUnits@12
      74A _DAQmxGetCISampClkOverrunBehavior@12
      74D _DAQmxGetCISampClkOverrunSentinelVal@12
      6C0 _DAQmxGetCISemiPeriodDigFltrEnable@12
      C3B _DAQmxGetCISemiPeriodDigFltrEnable_VB6@12
      6C3 _DAQmxGetCISemiPeriodDigFltrMinPulseWidth@12
      6C9 _DAQmxGetCISemiPeriodDigFltrTimebaseRate@12
      6C6 _DAQmxGetCISemiPeriodDigFltrTimebaseSrc@16
      6CC _DAQmxGetCISemiPeriodDigSyncEnable@12
      C3C _DAQmxGetCISemiPeriodDigSyncEnable_VB6@12
      6BD _DAQmxGetCISemiPeriodLogicLvlBehavior@12
      6CF _DAQmxGetCISemiPeriodStartingEdge@12
      6B7 _DAQmxGetCISemiPeriodTerm@16
      6BA _DAQmxGetCISemiPeriodTermCfg@12
      6B4 _DAQmxGetCISemiPeriodUnits@12
      746 _DAQmxGetCITCReached@12
      C45 _DAQmxGetCITCReached_VB6@12
      741 _DAQmxGetCIThreshVoltage@12
      633 _DAQmxGetCITimestampInitialSeconds@12
      630 _DAQmxGetCITimestampUnits@12
      687 _DAQmxGetCITwoEdgeSepFirstDigFltrEnable@12
      C37 _DAQmxGetCITwoEdgeSepFirstDigFltrEnable_VB6@12
      68A _DAQmxGetCITwoEdgeSepFirstDigFltrMinPulseWidth@12
      690 _DAQmxGetCITwoEdgeSepFirstDigFltrTimebaseRate@12
      68D _DAQmxGetCITwoEdgeSepFirstDigFltrTimebaseSrc@16
      693 _DAQmxGetCITwoEdgeSepFirstDigSyncEnable@12
      C38 _DAQmxGetCITwoEdgeSepFirstDigSyncEnable_VB6@12
      696 _DAQmxGetCITwoEdgeSepFirstEdge@12
      684 _DAQmxGetCITwoEdgeSepFirstLogicLvlBehavior@12
      67E _DAQmxGetCITwoEdgeSepFirstTerm@16
      681 _DAQmxGetCITwoEdgeSepFirstTermCfg@12
      6A2 _DAQmxGetCITwoEdgeSepSecondDigFltrEnable@12
      C39 _DAQmxGetCITwoEdgeSepSecondDigFltrEnable_VB6@12
      6A5 _DAQmxGetCITwoEdgeSepSecondDigFltrMinPulseWidth@12
      6AB _DAQmxGetCITwoEdgeSepSecondDigFltrTimebaseRate@12
      6A8 _DAQmxGetCITwoEdgeSepSecondDigFltrTimebaseSrc@16
      6AE _DAQmxGetCITwoEdgeSepSecondDigSyncEnable@12
      C3A _DAQmxGetCITwoEdgeSepSecondDigSyncEnable_VB6@12
      6B1 _DAQmxGetCITwoEdgeSepSecondEdge@12
      69F _DAQmxGetCITwoEdgeSepSecondLogicLvlBehavior@12
      699 _DAQmxGetCITwoEdgeSepSecondTerm@16
      69C _DAQmxGetCITwoEdgeSepSecondTermCfg@12
      67B _DAQmxGetCITwoEdgeSepUnits@12
      759 _DAQmxGetCIUsbXferReqCount@12
      756 _DAQmxGetCIUsbXferReqSize@12
      63F _DAQmxGetCIVelocityAngEncoderPulsesPerRev@12
      63C _DAQmxGetCIVelocityAngEncoderUnits@12
      678 _DAQmxGetCIVelocityDiv@12
      654 _DAQmxGetCIVelocityEncoderAInputDigFltrEnable@12
      C35 _DAQmxGetCIVelocityEncoderAInputDigFltrEnable_VB6@12
      657 _DAQmxGetCIVelocityEncoderAInputDigFltrMinPulseWidth@12
      65D _DAQmxGetCIVelocityEncoderAInputDigFltrTimebaseRate@12
      65A _DAQmxGetCIVelocityEncoderAInputDigFltrTimebaseSrc@16
      651 _DAQmxGetCIVelocityEncoderAInputLogicLvlBehavior@12
      64B _DAQmxGetCIVelocityEncoderAInputTerm@16
      64E _DAQmxGetCIVelocityEncoderAInputTermCfg@12
      669 _DAQmxGetCIVelocityEncoderBInputDigFltrEnable@12
      C36 _DAQmxGetCIVelocityEncoderBInputDigFltrEnable_VB6@12
      66C _DAQmxGetCIVelocityEncoderBInputDigFltrMinPulseWidth@12
      672 _DAQmxGetCIVelocityEncoderBInputDigFltrTimebaseRate@12
      66F _DAQmxGetCIVelocityEncoderBInputDigFltrTimebaseSrc@16
      666 _DAQmxGetCIVelocityEncoderBInputLogicLvlBehavior@12
      660 _DAQmxGetCIVelocityEncoderBInputTerm@16
      663 _DAQmxGetCIVelocityEncoderBInputTermCfg@12
      648 _DAQmxGetCIVelocityEncoderDecodingType@12
      645 _DAQmxGetCIVelocityLinEncoderDistPerPulse@12
      642 _DAQmxGetCIVelocityLinEncoderUnits@12
      675 _DAQmxGetCIVelocityMeasTime@12
      7AB _DAQmxGetCOAutoIncrCnt@12
      7B5 _DAQmxGetCOConstrainedGenMode@12
      7A9 _DAQmxGetCOCount@12
      797 _DAQmxGetCOCtrTimebaseActiveEdge@12
      79A _DAQmxGetCOCtrTimebaseDigFltrEnable@12
      C48 _DAQmxGetCOCtrTimebaseDigFltrEnable_VB6@12
      79D _DAQmxGetCOCtrTimebaseDigFltrMinPulseWidth@12
      7A3 _DAQmxGetCOCtrTimebaseDigFltrTimebaseRate@12
      7A0 _DAQmxGetCOCtrTimebaseDigFltrTimebaseSrc@16
      7A6 _DAQmxGetCOCtrTimebaseDigSyncEnable@12
      C49 _DAQmxGetCOCtrTimebaseDigSyncEnable_VB6@12
      7AE _DAQmxGetCOCtrTimebaseMasterTimebaseDiv@12
      794 _DAQmxGetCOCtrTimebaseRate@12
      791 _DAQmxGetCOCtrTimebaseSrc@16
      7BB _DAQmxGetCODataXferMech@12
      7BE _DAQmxGetCODataXferReqCond@12
      7B2 _DAQmxGetCOEnableInitialDelayOnRetrigger@12
      C4B _DAQmxGetCOEnableInitialDelayOnRetrigger_VB6@12
      7C7 _DAQmxGetCOMemMapEnable@12
      C4D _DAQmxGetCOMemMapEnable_VB6@12
      7AA _DAQmxGetCOOutputState@12
      769 _DAQmxGetCOOutputType@12
      7CA _DAQmxGetCOPrescaler@12
      7B1 _DAQmxGetCOPulseDone@12
      C4A _DAQmxGetCOPulseDone_VB6@12
      77C _DAQmxGetCOPulseDutyCyc@12
      782 _DAQmxGetCOPulseFreq@12
      785 _DAQmxGetCOPulseFreqInitialDelay@12
      77F _DAQmxGetCOPulseFreqUnits@12
      788 _DAQmxGetCOPulseHighTicks@12
      773 _DAQmxGetCOPulseHighTime@12
      76A _DAQmxGetCOPulseIdleState@12
      78B _DAQmxGetCOPulseLowTicks@12
      776 _DAQmxGetCOPulseLowTime@12
      76D _DAQmxGetCOPulseTerm@16
      78E _DAQmxGetCOPulseTicksInitialDelay@12
      779 _DAQmxGetCOPulseTimeInitialDelay@12
      770 _DAQmxGetCOPulseTimeUnits@12
      7CD _DAQmxGetCORdyForNewVal@12
      C4E _DAQmxGetCORdyForNewVal_VB6@12
      7C4 _DAQmxGetCOUsbXferReqCount@12
      7C1 _DAQmxGetCOUsbXferReqSize@12
      7B8 _DAQmxGetCOUseOnlyOnBrdMem@12
      C4C _DAQmxGetCOUseOnlyOnBrdMem_VB6@12
      1F3 _DAQmxGetCalAccConnectionCount@8
      1F2 _DAQmxGetCalDevTemp@8
      10B _DAQmxGetCalInfoAttribute
      1F5 _DAQmxGetCalRecommendedAccConnectionCountLimit@8
      1EF _DAQmxGetCalUserDefinedInfo@12
      1F1 _DAQmxGetCalUserDefinedInfoMaxSize@8
      86F _DAQmxGetCarrierSerialNum@8
       71 _DAQmxGetChanAttribute
      7D1 _DAQmxGetChanDescr@16
      7D4 _DAQmxGetChanIsGlobal@12
      C4F _DAQmxGetChanIsGlobal_VB6@12
      7CE _DAQmxGetChanType@12
      9A7 _DAQmxGetChangeDetectDIFallingEdgePhysicalChans@12
      9A4 _DAQmxGetChangeDetectDIRisingEdgePhysicalChans@12
      9AA _DAQmxGetChangeDetectDITristate@8
      C79 _DAQmxGetChangeDetectDITristate_VB6@8
      48A _DAQmxGetDIAcquireOn@12
      47B _DAQmxGetDIDataXferMech@12
      47E _DAQmxGetDIDataXferReqCond@12
      463 _DAQmxGetDIDigFltrEnable@12
      469 _DAQmxGetDIDigFltrEnableBusMode@12
      C13 _DAQmxGetDIDigFltrEnableBusMode_VB6@12
      C12 _DAQmxGetDIDigFltrEnable_VB6@12
      466 _DAQmxGetDIDigFltrMinPulseWidth@12
      46F _DAQmxGetDIDigFltrTimebaseRate@12
      46C _DAQmxGetDIDigFltrTimebaseSrc@16
      472 _DAQmxGetDIDigSyncEnable@12
      C14 _DAQmxGetDIDigSyncEnable_VB6@12
      45F _DAQmxGetDIInvertLines@12
      C11 _DAQmxGetDIInvertLines_VB6@12
      478 _DAQmxGetDILogicFamily@12
      487 _DAQmxGetDIMemMapEnable@12
      C16 _DAQmxGetDIMemMapEnable_VB6@12
      462 _DAQmxGetDINumLines@12
      475 _DAQmxGetDITristate@12
      C15 _DAQmxGetDITristate_VB6@12
      484 _DAQmxGetDIUsbXferReqCount@12
      481 _DAQmxGetDIUsbXferReqSize@12
      4AF _DAQmxGetDODataXferMech@12
      4B2 _DAQmxGetDODataXferReqCond@12
      4BE _DAQmxGetDOGenerateOn@12
      490 _DAQmxGetDOInvertLines@12
      C17 _DAQmxGetDOInvertLines_VB6@12
      49D _DAQmxGetDOLineStatesDoneState@12
      49A _DAQmxGetDOLineStatesPausedState@12
      497 _DAQmxGetDOLineStatesStartState@12
      4A0 _DAQmxGetDOLogicFamily@12
      4BB _DAQmxGetDOMemMapEnable@12
      C1B _DAQmxGetDOMemMapEnable_VB6@12
      493 _DAQmxGetDONumLines@12
      48D _DAQmxGetDOOutputDriveType@12
      4A6 _DAQmxGetDOOvercurrentAutoReenable@12
      C19 _DAQmxGetDOOvercurrentAutoReenable_VB6@12
      4A3 _DAQmxGetDOOvercurrentLimit@12
      4A9 _DAQmxGetDOOvercurrentReenablePeriod@12
      494 _DAQmxGetDOTristate@12
      C18 _DAQmxGetDOTristate_VB6@12
      4B8 _DAQmxGetDOUsbXferReqCount@12
      4B5 _DAQmxGetDOUsbXferReqSize@12
      4AC _DAQmxGetDOUseOnlyOnBrdMem@12
      C1A _DAQmxGetDOUseOnlyOnBrdMem_VB6@12
      9D9 _DAQmxGetDelayFromSampClkDelay@8
      9DC _DAQmxGetDelayFromSampClkDelayEx@12
      9D3 _DAQmxGetDelayFromSampClkDelayUnits@8
      9D6 _DAQmxGetDelayFromSampClkDelayUnitsEx@12
      880 _DAQmxGetDevAIBridgeRngs@12
      884 _DAQmxGetDevAICouplings@8
      87F _DAQmxGetDevAICurrentIntExcitDiscreteVals@12
      87E _DAQmxGetDevAICurrentRngs@12
      888 _DAQmxGetDevAIDigFltrLowpassCutoffFreqDiscreteVals@12
      889 _DAQmxGetDevAIDigFltrLowpassCutoffFreqRangeVals@12
      882 _DAQmxGetDevAIFreqRngs@12
      883 _DAQmxGetDevAIGains@12
      885 _DAQmxGetDevAILowpassCutoffFreqDiscreteVals@12
      886 _DAQmxGetDevAILowpassCutoffFreqRangeVals@12
      876 _DAQmxGetDevAIMaxMultiChanRate@8
      875 _DAQmxGetDevAIMaxSingleChanRate@8
      877 _DAQmxGetDevAIMinRate@8
      873 _DAQmxGetDevAIPhysicalChans@12
      881 _DAQmxGetDevAIResistanceRngs@12
      879 _DAQmxGetDevAISampModes@12
      878 _DAQmxGetDevAISimultaneousSamplingSupported@8
      C54 _DAQmxGetDevAISimultaneousSamplingSupported_VB6@8
      874 _DAQmxGetDevAISupportedMeasTypes@12
      87A _DAQmxGetDevAITrigUsage@8
      87C _DAQmxGetDevAIVoltageIntExcitDiscreteVals@12
      87D _DAQmxGetDevAIVoltageIntExcitRangeVals@12
      87B _DAQmxGetDevAIVoltageRngs@12
      892 _DAQmxGetDevAOCurrentRngs@12
      893 _DAQmxGetDevAOGains@12
      88E _DAQmxGetDevAOMaxRate@8
      88F _DAQmxGetDevAOMinRate@8
      88A _DAQmxGetDevAOPhysicalChans@12
      88C _DAQmxGetDevAOSampClkSupported@8
      C55 _DAQmxGetDevAOSampClkSupported_VB6@8
      88D _DAQmxGetDevAOSampModes@12
      88B _DAQmxGetDevAOSupportedOutputTypes@12
      890 _DAQmxGetDevAOTrigUsage@8
      891 _DAQmxGetDevAOVoltageRngs@12
      86D _DAQmxGetDevAccessoryProductNums@12
      86C _DAQmxGetDevAccessoryProductTypes@12
      86E _DAQmxGetDevAccessorySerialNums@12
      871 _DAQmxGetDevAnlgTrigSupported@8
      C52 _DAQmxGetDevAnlgTrigSupported_VB6@8
      8AC _DAQmxGetDevBusType@8
      8A1 _DAQmxGetDevCIMaxSize@8
      8A2 _DAQmxGetDevCIMaxTimebase@8
      89C _DAQmxGetDevCIPhysicalChans@12
      89F _DAQmxGetDevCISampClkSupported@8
      C56 _DAQmxGetDevCISampClkSupported_VB6@8
      8A0 _DAQmxGetDevCISampModes@12
      89D _DAQmxGetDevCISupportedMeasTypes@12
      89E _DAQmxGetDevCITrigUsage@8
      8A8 _DAQmxGetDevCOMaxSize@8
      8A9 _DAQmxGetDevCOMaxTimebase@8
      8A3 _DAQmxGetDevCOPhysicalChans@12
      8A5 _DAQmxGetDevCOSampClkSupported@8
      C57 _DAQmxGetDevCOSampClkSupported_VB6@8
      8A6 _DAQmxGetDevCOSampModes@12
      8A4 _DAQmxGetDevCOSupportedOutputTypes@12
      8A7 _DAQmxGetDevCOTrigUsage@8
      870 _DAQmxGetDevChassisModuleDevNames@12
      8B1 _DAQmxGetDevCompactDAQChassisDevName@12
      8B2 _DAQmxGetDevCompactDAQSlotNum@8
      894 _DAQmxGetDevDILines@12
      896 _DAQmxGetDevDIMaxRate@8
      895 _DAQmxGetDevDIPorts@12
      897 _DAQmxGetDevDITrigUsage@8
      898 _DAQmxGetDevDOLines@12
      89A _DAQmxGetDevDOMaxRate@8
      899 _DAQmxGetDevDOPorts@12
      89B _DAQmxGetDevDOTrigUsage@8
      872 _DAQmxGetDevDigTrigSupported@8
      C53 _DAQmxGetDevDigTrigSupported_VB6@8
      867 _DAQmxGetDevIsSimulated@8
      C51 _DAQmxGetDevIsSimulated_VB6@8
        9 _DAQmxGetDevMSeriesLegacyCompatibility@8
      8AB _DAQmxGetDevNumDMAChans@8
      8AD _DAQmxGetDevPCIBusNum@8
      8AE _DAQmxGetDevPCIDevNum@8
      8AF _DAQmxGetDevPXIChassisNum@8
      8B0 _DAQmxGetDevPXISlotNum@8
      868 _DAQmxGetDevProductCategory@8
      86A _DAQmxGetDevProductNum@8
      869 _DAQmxGetDevProductType@12
      86B _DAQmxGetDevSerialNum@8
      8B4 _DAQmxGetDevTCPIPEthernetIP@12
      8B3 _DAQmxGetDevTCPIPHostname@12
      8B5 _DAQmxGetDevTCPIPWirelessIP@12
      8AA _DAQmxGetDevTEDSHWTEDSSupported@8
      C58 _DAQmxGetDevTEDSHWTEDSSupported_VB6@8
      8B6 _DAQmxGetDevTerminals@12
       EF _DAQmxGetDeviceAttribute
      AF3 _DAQmxGetDigEdgeAdvTrigDigFltrEnable@8
      C8C _DAQmxGetDigEdgeAdvTrigDigFltrEnable_VB6@8
      AF0 _DAQmxGetDigEdgeAdvTrigEdge@8
      AED _DAQmxGetDigEdgeAdvTrigSrc@12
      B67 _DAQmxGetDigEdgeArmStartTrigDigFltrEnable@8
      C93 _DAQmxGetDigEdgeArmStartTrigDigFltrEnable_VB6@8
      B6A _DAQmxGetDigEdgeArmStartTrigDigFltrMinPulseWidth@8
      B70 _DAQmxGetDigEdgeArmStartTrigDigFltrTimebaseRate@8
      B6D _DAQmxGetDigEdgeArmStartTrigDigFltrTimebaseSrc@12
      B73 _DAQmxGetDigEdgeArmStartTrigDigSyncEnable@8
      C94 _DAQmxGetDigEdgeArmStartTrigDigSyncEnable_VB6@8
      B64 _DAQmxGetDigEdgeArmStartTrigEdge@8
      B61 _DAQmxGetDigEdgeArmStartTrigSrc@12
      A8F _DAQmxGetDigEdgeRefTrigDigFltrEnable@8
      C84 _DAQmxGetDigEdgeRefTrigDigFltrEnable_VB6@8
      A92 _DAQmxGetDigEdgeRefTrigDigFltrMinPulseWidth@8
      A98 _DAQmxGetDigEdgeRefTrigDigFltrTimebaseRate@8
      A95 _DAQmxGetDigEdgeRefTrigDigFltrTimebaseSrc@12
      A9B _DAQmxGetDigEdgeRefTrigDigSyncEnable@8
      C85 _DAQmxGetDigEdgeRefTrigDigSyncEnable_VB6@8
      A8C _DAQmxGetDigEdgeRefTrigEdge@8
      A89 _DAQmxGetDigEdgeRefTrigSrc@12
      A25 _DAQmxGetDigEdgeStartTrigDigFltrEnable@8
      C7D _DAQmxGetDigEdgeStartTrigDigFltrEnable_VB6@8
      A28 _DAQmxGetDigEdgeStartTrigDigFltrMinPulseWidth@8
      A2E _DAQmxGetDigEdgeStartTrigDigFltrTimebaseRate@8
      A2B _DAQmxGetDigEdgeStartTrigDigFltrTimebaseSrc@12
      A31 _DAQmxGetDigEdgeStartTrigDigSyncEnable@8
      C7E _DAQmxGetDigEdgeStartTrigDigSyncEnable_VB6@8
      A22 _DAQmxGetDigEdgeStartTrigEdge@8
      A1F _DAQmxGetDigEdgeStartTrigSrc@12
      B85 _DAQmxGetDigEdgeWatchdogExpirTrigEdge@8
      B82 _DAQmxGetDigEdgeWatchdogExpirTrigSrc@12
      B45 _DAQmxGetDigLvlPauseTrigDigFltrEnable@8
      C91 _DAQmxGetDigLvlPauseTrigDigFltrEnable_VB6@8
      B48 _DAQmxGetDigLvlPauseTrigDigFltrMinPulseWidth@8
      B4E _DAQmxGetDigLvlPauseTrigDigFltrTimebaseRate@8
      B4B _DAQmxGetDigLvlPauseTrigDigFltrTimebaseSrc@12
      B51 _DAQmxGetDigLvlPauseTrigDigSyncEnable@8
      C92 _DAQmxGetDigLvlPauseTrigDigSyncEnable_VB6@8
      B3F _DAQmxGetDigLvlPauseTrigSrc@12
      B42 _DAQmxGetDigLvlPauseTrigWhen@8
      B57 _DAQmxGetDigPatternPauseTrigPattern@12
      B54 _DAQmxGetDigPatternPauseTrigSrc@12
      B5A _DAQmxGetDigPatternPauseTrigWhen@8
      AA1 _DAQmxGetDigPatternRefTrigPattern@12
      A9E _DAQmxGetDigPatternRefTrigSrc@12
      AA4 _DAQmxGetDigPatternRefTrigWhen@8
      A37 _DAQmxGetDigPatternStartTrigPattern@12
      A34 _DAQmxGetDigPatternStartTrigSrc@12
      A3A _DAQmxGetDigPatternStartTrigWhen@8
      1D4 _DAQmxGetDigitalLogicFamilyPowerUpState@8
      1CC _DAQmxGetDigitalPowerUpStates
      1CE _DAQmxGetDigitalPullUpPullDownStates
      1DC _DAQmxGetDisconnectedCDAQSyncPorts@8
      1DF _DAQmxGetErrorString@12
      7D9 _DAQmxGetExported10MHzRefClkOutputTerm@12
      7DC _DAQmxGetExported20MHzTimebaseOutputTerm@12
      7D5 _DAQmxGetExportedAIConvClkOutputTerm@12
      7D8 _DAQmxGetExportedAIConvClkPulsePolarity@8
      819 _DAQmxGetExportedAIHoldCmpltEventOutputTerm@12
      81C _DAQmxGetExportedAIHoldCmpltEventPulsePolarity@8
      810 _DAQmxGetExportedAdvCmpltEventDelay@8
      80D _DAQmxGetExportedAdvCmpltEventOutputTerm@12
      813 _DAQmxGetExportedAdvCmpltEventPulsePolarity@8
      816 _DAQmxGetExportedAdvCmpltEventPulseWidth@8
      7F1 _DAQmxGetExportedAdvTrigOutputTerm@12
      7F4 _DAQmxGetExportedAdvTrigPulsePolarity@8
      7F8 _DAQmxGetExportedAdvTrigPulseWidth@8
      7F5 _DAQmxGetExportedAdvTrigPulseWidthUnits@8
      81F _DAQmxGetExportedChangeDetectEventOutputTerm@12
      822 _DAQmxGetExportedChangeDetectEventPulsePolarity@8
      828 _DAQmxGetExportedCtrOutEventOutputBehavior@8
      825 _DAQmxGetExportedCtrOutEventOutputTerm@12
      82B _DAQmxGetExportedCtrOutEventPulsePolarity@8
      82E _DAQmxGetExportedCtrOutEventToggleIdleState@8
      858 _DAQmxGetExportedDataActiveEventLvlActiveLvl@8
      855 _DAQmxGetExportedDataActiveEventOutputTerm@12
      7EE _DAQmxGetExportedDividedSampClkTimebaseOutputTerm@12
      837 _DAQmxGetExportedHshkEventDelay@8
      83D _DAQmxGetExportedHshkEventInterlockedAssertOnStart@8
      C50 _DAQmxGetExportedHshkEventInterlockedAssertOnStart_VB6@8
      83A _DAQmxGetExportedHshkEventInterlockedAssertedLvl@8
      840 _DAQmxGetExportedHshkEventInterlockedDeassertDelay@8
      834 _DAQmxGetExportedHshkEventOutputBehavior@8
      831 _DAQmxGetExportedHshkEventOutputTerm@12
      843 _DAQmxGetExportedHshkEventPulsePolarity@8
      846 _DAQmxGetExportedHshkEventPulseWidth@8
      7FE _DAQmxGetExportedPauseTrigLvlActiveLvl@8
      7FB _DAQmxGetExportedPauseTrigOutputTerm@12
      85E _DAQmxGetExportedRdyForStartEventLvlActiveLvl@8
      85B _DAQmxGetExportedRdyForStartEventOutputTerm@12
      84F _DAQmxGetExportedRdyForXferEventDeassertCond@8
      852 _DAQmxGetExportedRdyForXferEventDeassertCondCustomThreshold@8
      84C _DAQmxGetExportedRdyForXferEventLvlActiveLvl@8
      849 _DAQmxGetExportedRdyForXferEventOutputTerm@12
      801 _DAQmxGetExportedRefTrigOutputTerm@12
      804 _DAQmxGetExportedRefTrigPulsePolarity@8
      7E5 _DAQmxGetExportedSampClkDelayOffset@8
      7DF _DAQmxGetExportedSampClkOutputBehavior@8
      7E2 _DAQmxGetExportedSampClkOutputTerm@12
      7E8 _DAQmxGetExportedSampClkPulsePolarity@8
      7EB _DAQmxGetExportedSampClkTimebaseOutputTerm@12
       C5 _DAQmxGetExportedSignalAttribute
      807 _DAQmxGetExportedStartTrigOutputTerm@12
      80A _DAQmxGetExportedStartTrigPulsePolarity@8
      861 _DAQmxGetExportedSyncPulseEventOutputTerm@12
      864 _DAQmxGetExportedWatchdogExpiredEventOutputTerm@12
      102 _DAQmxGetExtCalLastDateAndTime@24
      1EE _DAQmxGetExtCalLastTemp@8
      1ED _DAQmxGetExtCalRecommendedInterval@8
      1E0 _DAQmxGetExtendedErrorInfo@8
      99B _DAQmxGetHshkDelayAfterXfer@8
      9A1 _DAQmxGetHshkSampleInputDataWhen@8
      99E _DAQmxGetHshkStartCond@8
      AF6 _DAQmxGetHshkTrigType@8
      9B0 _DAQmxGetImplicitUnderflowBehavior@8
      AFC _DAQmxGetInterlockedHshkTrigAssertedLvl@8
      AF9 _DAQmxGetInterlockedHshkTrigSrc@12
      8C9 _DAQmxGetLoggingFilePath@12
      8DE _DAQmxGetLoggingFilePreallocationSize@8
      C5E _DAQmxGetLoggingFilePreallocationSize_VB6@8
      8DB _DAQmxGetLoggingFileWriteSize@8
      8CC _DAQmxGetLoggingMode@8
      8D5 _DAQmxGetLoggingPause@8
      C5B _DAQmxGetLoggingPause_VB6@8
      8D8 _DAQmxGetLoggingSampsPerFile@8
      C5C _DAQmxGetLoggingSampsPerFile_VB6@8
      8CF _DAQmxGetLoggingTDMSGroupName@12
      8D2 _DAQmxGetLoggingTDMSOperation@8
        6 _DAQmxGetMSeriesLegacyCompatibility@12
      9FD _DAQmxGetMasterTimebaseRate@8
      A00 _DAQmxGetMasterTimebaseSrc@12
       1E _DAQmxGetNthTaskChannel@16
       1F _DAQmxGetNthTaskDevice@16
       A9 _DAQmxGetNthTaskReadChannel@16
      9AD _DAQmxGetOnDemandSimultaneousAOEnable@8
      C7A _DAQmxGetOnDemandSimultaneousAOEnable_VB6@8
      B02 _DAQmxGetPauseTrigTerm@12
      AFF _DAQmxGetPauseTrigType@8
      BE0 _DAQmxGetPersistedChanAllowInteractiveDeletion@8
      CAA _DAQmxGetPersistedChanAllowInteractiveDeletion_VB6@8
      BDF _DAQmxGetPersistedChanAllowInteractiveEditing@8
      CA9 _DAQmxGetPersistedChanAllowInteractiveEditing_VB6@8
      1C8 _DAQmxGetPersistedChanAttribute
      BDE _DAQmxGetPersistedChanAuthor@12
      BE3 _DAQmxGetPersistedScaleAllowInteractiveDeletion@8
      CAC _DAQmxGetPersistedScaleAllowInteractiveDeletion_VB6@8
      BE2 _DAQmxGetPersistedScaleAllowInteractiveEditing@8
      CAB _DAQmxGetPersistedScaleAllowInteractiveEditing_VB6@8
      1C9 _DAQmxGetPersistedScaleAttribute
      BE1 _DAQmxGetPersistedScaleAuthor@12
      BDD _DAQmxGetPersistedTaskAllowInteractiveDeletion@8
      CA8 _DAQmxGetPersistedTaskAllowInteractiveDeletion_VB6@8
      BDC _DAQmxGetPersistedTaskAllowInteractiveEditing@8
      CA7 _DAQmxGetPersistedTaskAllowInteractiveEditing_VB6@8
      1C7 _DAQmxGetPersistedTaskAttribute
      BDB _DAQmxGetPersistedTaskAuthor@12
      BBA _DAQmxGetPhysicalChanAIInputSrcs@12
      BB8 _DAQmxGetPhysicalChanAISupportedMeasTypes@12
      BB9 _DAQmxGetPhysicalChanAITermCfgs@8
      BC2 _DAQmxGetPhysicalChanAOManualControlAmplitude@8
      BBE _DAQmxGetPhysicalChanAOManualControlEnable@8
      CA0 _DAQmxGetPhysicalChanAOManualControlEnable_VB6@8
      BC3 _DAQmxGetPhysicalChanAOManualControlFreq@8
      BC1 _DAQmxGetPhysicalChanAOManualControlShortDetected@8
      CA1 _DAQmxGetPhysicalChanAOManualControlShortDetected_VB6@8
      BBB _DAQmxGetPhysicalChanAOSupportedOutputTypes@12
      BBC _DAQmxGetPhysicalChanAOSupportedPowerUpOutputTypes@12
      BBD _DAQmxGetPhysicalChanAOTermCfgs@8
      1BB _DAQmxGetPhysicalChanAttribute
      BD2 _DAQmxGetPhysicalChanCISupportedMeasTypes@12
      BD3 _DAQmxGetPhysicalChanCOSupportedOutputTypes@12
      BCE _DAQmxGetPhysicalChanDIChangeDetectSupported@8
      CA5 _DAQmxGetPhysicalChanDIChangeDetectSupported_VB6@8
      BCB _DAQmxGetPhysicalChanDIPortWidth@8
      BCC _DAQmxGetPhysicalChanDISampClkSupported@8
      CA4 _DAQmxGetPhysicalChanDISampClkSupported_VB6@8
      BCD _DAQmxGetPhysicalChanDISampModes@12
      BCF _DAQmxGetPhysicalChanDOPortWidth@8
      BD0 _DAQmxGetPhysicalChanDOSampClkSupported@8
      CA6 _DAQmxGetPhysicalChanDOSampClkSupported_VB6@8
      BD1 _DAQmxGetPhysicalChanDOSampModes@12
      7CF _DAQmxGetPhysicalChanName@16
      BD9 _DAQmxGetPhysicalChanTEDSBitStream@12
      BD4 _DAQmxGetPhysicalChanTEDSMfgID@8
      BD5 _DAQmxGetPhysicalChanTEDSModelNum@8
      BD6 _DAQmxGetPhysicalChanTEDSSerialNum@8
      BDA _DAQmxGetPhysicalChanTEDSTemplateIDs@12
      BD8 _DAQmxGetPhysicalChanTEDSVersionLetter@12
      BD7 _DAQmxGetPhysicalChanTEDSVersionNum@8
      13A _DAQmxGetPossibleSCExpressCalAccConnections@16
      8F5 _DAQmxGetReadAccessoryInsertionOrRemovalDetected@8
      C6A _DAQmxGetReadAccessoryInsertionOrRemovalDetected_VB6@8
       AA _DAQmxGetReadAttribute
      8C3 _DAQmxGetReadAutoStart@8
      C5A _DAQmxGetReadAutoStart_VB6@8
      8E2 _DAQmxGetReadAvailSampPerChan@8
      8F7 _DAQmxGetReadChangeDetectHasOverflowed@8
      C6B _DAQmxGetReadChangeDetectHasOverflowed_VB6@8
      8BD _DAQmxGetReadChannelsToRead@12
      8E5 _DAQmxGetReadCommonModeRangeErrorChans@12
      8E4 _DAQmxGetReadCommonModeRangeErrorChansExist@8
      C62 _DAQmxGetReadCommonModeRangeErrorChansExist_VB6@8
      8E1 _DAQmxGetReadCurrReadPos@8
      C60 _DAQmxGetReadCurrReadPos_VB6@8
      8F6 _DAQmxGetReadDevsWithInsertedOrRemovedAccessories@12
      8FA _DAQmxGetReadDigitalLinesBytesPerChan@8
      8E7 _DAQmxGetReadExcitFaultChans@12
      8E6 _DAQmxGetReadExcitFaultChansExist@8
      C63 _DAQmxGetReadExcitFaultChansExist_VB6@8
      8F9 _DAQmxGetReadNumChans@8
      8BA _DAQmxGetReadOffset@8
      8ED _DAQmxGetReadOpenChans@12
      8EE _DAQmxGetReadOpenChansDetails@12
      8EC _DAQmxGetReadOpenChansExist@8
      C66 _DAQmxGetReadOpenChansExist_VB6@8
      8F0 _DAQmxGetReadOpenCurrentLoopChans@12
      8EF _DAQmxGetReadOpenCurrentLoopChansExist@8
      C67 _DAQmxGetReadOpenCurrentLoopChansExist_VB6@8
      8F2 _DAQmxGetReadOpenThrmcplChans@12
      8F1 _DAQmxGetReadOpenThrmcplChansExist@8
      C68 _DAQmxGetReadOpenThrmcplChansExist_VB6@8
      8C6 _DAQmxGetReadOverWrite@8
      8E9 _DAQmxGetReadOvercurrentChans@12
      8E8 _DAQmxGetReadOvercurrentChansExist@8
      C64 _DAQmxGetReadOvercurrentChansExist_VB6@8
      8F4 _DAQmxGetReadOverloadedChans@12
      8F3 _DAQmxGetReadOverloadedChansExist@8
      C69 _DAQmxGetReadOverloadedChansExist_VB6@8
      8EB _DAQmxGetReadOvertemperatureChans@12
      8EA _DAQmxGetReadOvertemperatureChansExist@8
      C65 _DAQmxGetReadOvertemperatureChansExist_VB6@8
      8F8 _DAQmxGetReadRawDataWidth@8
      8C0 _DAQmxGetReadReadAllAvailSamp@8
      C59 _DAQmxGetReadReadAllAvailSamp_VB6@8
      8B7 _DAQmxGetReadRelativeTo@8
      8FE _DAQmxGetReadSleepTime@8
      8E3 _DAQmxGetReadTotalSampPerChanAcquired@8
      C61 _DAQmxGetReadTotalSampPerChanAcquired_VB6@8
      8FB _DAQmxGetReadWaitMode@8
      1BD _DAQmxGetRealTimeAttribute
      901 _DAQmxGetRealTimeConvLateErrorsToWarnings@8
      C6C _DAQmxGetRealTimeConvLateErrorsToWarnings_VB6@8
      904 _DAQmxGetRealTimeNumOfWarmupIters@8
      90A _DAQmxGetRealTimeReportMissedSamp@8
      C6D _DAQmxGetRealTimeReportMissedSamp_VB6@8
      907 _DAQmxGetRealTimeWaitForNextSampClkWaitMode@8
      90D _DAQmxGetRealTimeWriteRecoveryMode@8
      A03 _DAQmxGetRefClkRate@8
      A06 _DAQmxGetRefClkSrc@12
      AE3 _DAQmxGetRefTrigAutoTrigEnable@8
      C8A _DAQmxGetRefTrigAutoTrigEnable_VB6@8
      AE6 _DAQmxGetRefTrigAutoTriggered@8
      C8B _DAQmxGetRefTrigAutoTriggered_VB6@8
      AE7 _DAQmxGetRefTrigDelay@8
      A85 _DAQmxGetRefTrigPretrigSamples@8
      A88 _DAQmxGetRefTrigTerm@12
      A82 _DAQmxGetRefTrigType@8
        4 _DAQmxGetSCXICalEnable@12
      96F _DAQmxGetSampClkActiveEdge@8
      989 _DAQmxGetSampClkDigFltrEnable@8
      C76 _DAQmxGetSampClkDigFltrEnable_VB6@8
      98C _DAQmxGetSampClkDigFltrMinPulseWidth@8
      992 _DAQmxGetSampClkDigFltrTimebaseRate@8
      98F _DAQmxGetSampClkDigFltrTimebaseSrc@12
      995 _DAQmxGetSampClkDigSyncEnable@8
      C77 _DAQmxGetSampClkDigSyncEnable_VB6@8
      96B _DAQmxGetSampClkMaxRate@8
      972 _DAQmxGetSampClkOverrunBehavior@8
      968 _DAQmxGetSampClkRate@8
      96C _DAQmxGetSampClkSrc@12
      97B _DAQmxGetSampClkTerm@12
      982 _DAQmxGetSampClkTimebaseActiveEdge@8
      978 _DAQmxGetSampClkTimebaseDiv@8
      985 _DAQmxGetSampClkTimebaseMasterTimebaseDiv@8
      97C _DAQmxGetSampClkTimebaseRate@8
      97F _DAQmxGetSampClkTimebaseSrc@12
      988 _DAQmxGetSampClkTimebaseTerm@12
      BE4 _DAQmxGetSampClkTimingResponseMode@8
      975 _DAQmxGetSampClkUnderflowBehavior@8
      998 _DAQmxGetSampClkWriteWfmUseInitialWfmDT@8
      C78 _DAQmxGetSampClkWriteWfmUseInitialWfmDT_VB6@8
      95F _DAQmxGetSampQuantSampMode@8
      962 _DAQmxGetSampQuantSampPerChan@8
      C74 _DAQmxGetSampQuantSampPerChan_VB6@8
      A18 _DAQmxGetSampTimingEngine@8
      965 _DAQmxGetSampTimingType@8
       CD _DAQmxGetScaleAttribute
      937 _DAQmxGetScaleDescr@12
      93E _DAQmxGetScaleLinSlope@8
      940 _DAQmxGetScaleLinYIntercept@8
      944 _DAQmxGetScaleMapPreScaledMax@8
      948 _DAQmxGetScaleMapPreScaledMin@8
      942 _DAQmxGetScaleMapScaledMax@8
      946 _DAQmxGetScaleMapScaledMin@8
      94A _DAQmxGetScalePolyForwardCoeff@12
      94C _DAQmxGetScalePolyReverseCoeff@12
      93B _DAQmxGetScalePreScaledUnits@8
      939 _DAQmxGetScaleScaledUnits@12
      950 _DAQmxGetScaleTablePreScaledVals@12
      94E _DAQmxGetScaleTableScaledVals@12
      93D _DAQmxGetScaleType@8
      101 _DAQmxGetSelfCalLastDateAndTime@24
      1EC _DAQmxGetSelfCalLastTemp@8
      1EB _DAQmxGetSelfCalSupported@8
      BF7 _DAQmxGetSelfCalSupported_VB6@8
      A79 _DAQmxGetStartTrigDelay@8
      A7C _DAQmxGetStartTrigDelayUnits@8
      A7F _DAQmxGetStartTrigRetriggerable@8
      C83 _DAQmxGetStartTrigRetriggerable_VB6@8
      A1E _DAQmxGetStartTrigTerm@12
      A1B _DAQmxGetStartTrigType@8
      912 _DAQmxGetSwitchChanAnlgBusSharingEnable@8
      C6E _DAQmxGetSwitchChanAnlgBusSharingEnable_VB6@8
       E3 _DAQmxGetSwitchChanAttribute
      91F _DAQmxGetSwitchChanBandwidth@8
      920 _DAQmxGetSwitchChanImpedance@8
      914 _DAQmxGetSwitchChanMaxACCarryCurrent@8
      916 _DAQmxGetSwitchChanMaxACCarryPwr@8
      915 _DAQmxGetSwitchChanMaxACSwitchCurrent@8
      917 _DAQmxGetSwitchChanMaxACSwitchPwr@8
      91C _DAQmxGetSwitchChanMaxACVoltage@8
      918 _DAQmxGetSwitchChanMaxDCCarryCurrent@8
      91A _DAQmxGetSwitchChanMaxDCCarryPwr@8
      919 _DAQmxGetSwitchChanMaxDCSwitchCurrent@8
      91B _DAQmxGetSwitchChanMaxDCSwitchPwr@8
      91D _DAQmxGetSwitchChanMaxDCVoltage@8
      910 _DAQmxGetSwitchChanUsage@8
      91E _DAQmxGetSwitchChanWireMode@8
      923 _DAQmxGetSwitchDevAutoConnAnlgBus@8
      C6F _DAQmxGetSwitchDevAutoConnAnlgBus_VB6@8
      92D _DAQmxGetSwitchDevNumColumns@8
      929 _DAQmxGetSwitchDevNumRelays@8
      92C _DAQmxGetSwitchDevNumRows@8
      92B _DAQmxGetSwitchDevNumSwitchChans@8
      925 _DAQmxGetSwitchDevPwrDownLatchRelaysAfterSettling@8
      C70 _DAQmxGetSwitchDevPwrDownLatchRelaysAfterSettling_VB6@8
      928 _DAQmxGetSwitchDevRelayList@12
      927 _DAQmxGetSwitchDevSettled@8
      C71 _DAQmxGetSwitchDevSettled_VB6@8
      921 _DAQmxGetSwitchDevSettlingTime@8
      92A _DAQmxGetSwitchDevSwitchChanList@12
      92F _DAQmxGetSwitchDevTemperature@8
      92E _DAQmxGetSwitchDevTopology@12
       E5 _DAQmxGetSwitchDeviceAttribute
       E7 _DAQmxGetSwitchScanAttribute
      930 _DAQmxGetSwitchScanBreakMode@8
      933 _DAQmxGetSwitchScanRepeatMode@8
      936 _DAQmxGetSwitchScanWaitingForAdv@8
      C72 _DAQmxGetSwitchScanWaitingForAdv_VB6@8
      A15 _DAQmxGetSyncClkInterval@8
      A0D _DAQmxGetSyncPulseMinDelayToStart@8
      A11 _DAQmxGetSyncPulseResetDelay@8
      A10 _DAQmxGetSyncPulseResetTime@8
      A09 _DAQmxGetSyncPulseSrc@12
      A0C _DAQmxGetSyncPulseSyncTime@8
      A14 _DAQmxGetSyncPulseTerm@12
      955 _DAQmxGetSysDevNames@8
      952 _DAQmxGetSysGlobalChans@8
      956 _DAQmxGetSysNIDAQMajorVersion@4
      957 _DAQmxGetSysNIDAQMinorVersion@4
      958 _DAQmxGetSysNIDAQUpdateVersion@4
      953 _DAQmxGetSysScales@8
      954 _DAQmxGetSysTasks@8
      1CA _DAQmxGetSystemInfoAttribute
      CFE _DAQmxGetTaskAsINI@16
       20 _DAQmxGetTaskAttribute
      95A _DAQmxGetTaskChannels@12
      95E _DAQmxGetTaskComplete@8
      C73 _DAQmxGetTaskComplete_VB6@8
      95C _DAQmxGetTaskDevices@12
      959 _DAQmxGetTaskName@12
      95B _DAQmxGetTaskNumChans@8
      95D _DAQmxGetTaskNumDevices@8
       7B _DAQmxGetTimingAttribute
       7E _DAQmxGetTimingAttributeEx
       8D _DAQmxGetTrigAttribute
      B76 _DAQmxGetTriggerSyncType@8
      B8E _DAQmxGetWatchdogAOExpirState@12
      B8B _DAQmxGetWatchdogAOOutputType@12
       F6 _DAQmxGetWatchdogAttribute
      B91 _DAQmxGetWatchdogCOExpirState@12
      B88 _DAQmxGetWatchdogDOExpirState@12
      B7F _DAQmxGetWatchdogExpirTrigTrigOnNetworkConnLoss@8
      C95 _DAQmxGetWatchdogExpirTrigTrigOnNetworkConnLoss_VB6@8
      B7C _DAQmxGetWatchdogExpirTrigType@8
      B94 _DAQmxGetWatchdogHasExpired@8
      C96 _DAQmxGetWatchdogHasExpired_VB6@8
      B79 _DAQmxGetWatchdogTimeout@8
      BAD _DAQmxGetWriteAccessoryInsertionOrRemovalDetected@8
      C9F _DAQmxGetWriteAccessoryInsertionOrRemovalDetected_VB6@8
       C1 _DAQmxGetWriteAttribute
      B9E _DAQmxGetWriteCurrWritePos@8
      C97 _DAQmxGetWriteCurrWritePos_VB6@8
      BAE _DAQmxGetWriteDevsWithInsertedOrRemovedAccessories@12
      BB7 _DAQmxGetWriteDigitalLinesBytesPerChan@8
      BA4 _DAQmxGetWriteExternalOvervoltageChans@12
      BA3 _DAQmxGetWriteExternalOvervoltageChansExist@8
      C9A _DAQmxGetWriteExternalOvervoltageChansExist_VB6@8
      BB0 _DAQmxGetWriteNumChans@8
      B98 _DAQmxGetWriteOffset@8
      BA8 _DAQmxGetWriteOpenCurrentLoopChans@12
      BA7 _DAQmxGetWriteOpenCurrentLoopChansExist@8
      C9C _DAQmxGetWriteOpenCurrentLoopChansExist_VB6@8
      BA0 _DAQmxGetWriteOvercurrentChans@12
      B9F _DAQmxGetWriteOvercurrentChansExist@8
      C98 _DAQmxGetWriteOvercurrentChansExist_VB6@8
      BA6 _DAQmxGetWriteOverloadedChans@12
      BA5 _DAQmxGetWriteOverloadedChansExist@8
      C9B _DAQmxGetWriteOverloadedChansExist_VB6@8
      BA2 _DAQmxGetWriteOvertemperatureChans@12
      BA1 _DAQmxGetWriteOvertemperatureChansExist@8
      C99 _DAQmxGetWriteOvertemperatureChansExist_VB6@8
      BAA _DAQmxGetWritePowerSupplyFaultChans@12
      BA9 _DAQmxGetWritePowerSupplyFaultChansExist@8
      C9D _DAQmxGetWritePowerSupplyFaultChansExist_VB6@8
      BAF _DAQmxGetWriteRawDataWidth@8
      B9B _DAQmxGetWriteRegenMode@8
      B95 _DAQmxGetWriteRelativeTo@8
      BB4 _DAQmxGetWriteSleepTime@8
      BAB _DAQmxGetWriteSpaceAvail@8
      BAC _DAQmxGetWriteTotalSampPerChanGenerated@8
      C9E _DAQmxGetWriteTotalSampPerChanGenerated_VB6@8
      BB1 _DAQmxGetWriteWaitMode@8
      10D _DAQmxInitExtCal@12
      CAD _DAQmxInternalCreateTaskFromString@16
      CB5 _DAQmxInternalGetChanAttributeDefaultF64@16
      CB2 _DAQmxInternalGetChanAttributeDefaultI32@16
      CB6 _DAQmxInternalGetChanAttributeDefaultString@20
      CB3 _DAQmxInternalGetChanAttributeDefaultU32@16
      CB4 _DAQmxInternalGetChanAttributeDefaultU64@16
      CC4 _DAQmxInternalGetChanAttributeRangeF64@20
      CC1 _DAQmxInternalGetChanAttributeRangeI32@20
      CC5 _DAQmxInternalGetChanAttributeRangeString@20
      CC2 _DAQmxInternalGetChanAttributeRangeU32@20
      CC3 _DAQmxInternalGetChanAttributeRangeU64@20
      CB1 _DAQmxInternalGetLastErrorDescription@16
      CB0 _DAQmxInternalGetLocalizedErrorString@16
      CBF _DAQmxInternalGetTimingAttributeDefaultF64@12
      CBC _DAQmxInternalGetTimingAttributeDefaultI32@12
      CC0 _DAQmxInternalGetTimingAttributeDefaultString@16
      CBD _DAQmxInternalGetTimingAttributeDefaultU32@12
      CBE _DAQmxInternalGetTimingAttributeDefaultU64@12
      CCE _DAQmxInternalGetTimingAttributeRangeF64@16
      CCB _DAQmxInternalGetTimingAttributeRangeI32@16
      CCF _DAQmxInternalGetTimingAttributeRangeString@16
      CCC _DAQmxInternalGetTimingAttributeRangeU32@16
      CCD _DAQmxInternalGetTimingAttributeRangeU64@16
      CBA _DAQmxInternalGetTrigAttributeDefaultF64@12
      CB7 _DAQmxInternalGetTrigAttributeDefaultI32@12
      CBB _DAQmxInternalGetTrigAttributeDefaultString@16
      CB8 _DAQmxInternalGetTrigAttributeDefaultU32@12
      CB9 _DAQmxInternalGetTrigAttributeDefaultU64@12
      CC9 _DAQmxInternalGetTrigAttributeRangeF64@16
      CC6 _DAQmxInternalGetTrigAttributeRangeI32@16
      CCA _DAQmxInternalGetTrigAttributeRangeString@16
      CC7 _DAQmxInternalGetTrigAttributeRangeU32@16
      CC8 _DAQmxInternalGetTrigAttributeRangeU64@16
      CAF _DAQmxInternalReadAnalogWaveform@48
      CAE _DAQmxInternalSaveTaskToString@20
      1C0 _DAQmxIsReadOrWriteLate@4
       1C _DAQmxIsTaskDone@8
      BF1 _DAQmxIsTaskDone_VB6@8
       15 _DAQmxLoadTask@8
      105 _DAQmxMSeriesCalAdjust@12
       FA _DAQmxPerformBridgeOffsetNullingCal@8
       FB _DAQmxPerformBridgeOffsetNullingCalEx@12
       FF _DAQmxPerformBridgeShuntCal@32
      100 _DAQmxPerformBridgeShuntCalEx@40
       FD _DAQmxPerformStrainShuntCal@24
       FE _DAQmxPerformStrainShuntCalEx@32
       FC _DAQmxPerformThrmcplLeadOffsetNullingCal@12
       91 _DAQmxReadAnalogF64@36
       92 _DAQmxReadAnalogScalarF64@20
       93 _DAQmxReadBinaryI16@36
       95 _DAQmxReadBinaryI32@36
       94 _DAQmxReadBinaryU16@36
       96 _DAQmxReadBinaryU32@36
       9C _DAQmxReadCounterF64@32
       9E _DAQmxReadCounterF64Ex@36
       A0 _DAQmxReadCounterScalarF64@20
       A1 _DAQmxReadCounterScalarU32@20
       9D _DAQmxReadCounterU32@32
       9F _DAQmxReadCounterU32Ex@36
       A2 _DAQmxReadCtrFreq@40
       A5 _DAQmxReadCtrFreqScalar@24
       A4 _DAQmxReadCtrTicks@40
       A7 _DAQmxReadCtrTicksScalar@24
       A3 _DAQmxReadCtrTime@40
       A6 _DAQmxReadCtrTimeScalar@24
       9B _DAQmxReadDigitalLines@40
       9A _DAQmxReadDigitalScalarU32@20
       98 _DAQmxReadDigitalU16@36
       99 _DAQmxReadDigitalU32@36
       97 _DAQmxReadDigitalU8@36
       A8 _DAQmxReadRaw@36
       22 _DAQmxRegisterDoneEvent@16
      BF5 _DAQmxRegisterDoneEvent_VB6@16
       21 _DAQmxRegisterEveryNSamplesEvent@24
      BF4 _DAQmxRegisterEveryNSamplesEvent_VB6@24
       23 _DAQmxRegisterSignalEvent@20
      BF6 _DAQmxRegisterSignalEvent_VB6@20
      1DE _DAQmxRemoveCDAQSyncConnection@4
      1D7 _DAQmxReserveNetworkDevice@8
      331 _DAQmxResetAIACExcitFreq@8
      334 _DAQmxResetAIACExcitSyncEnable@8
      337 _DAQmxResetAIACExcitWireMode@8
      38D _DAQmxResetAIADCCustomTimingMode@8
      38A _DAQmxResetAIADCTimingMode@8
      28D _DAQmxResetAIAccelSensitivity@8
      290 _DAQmxResetAIAccelSensitivityUnits@8
      287 _DAQmxResetAIAccelUnits@8
      28A _DAQmxResetAIAcceldBRef@8
      340 _DAQmxResetAIAtten@8
      3C4 _DAQmxResetAIAutoZeroMode@8
      383 _DAQmxResetAIAveragingWinSize@8
      30A _DAQmxResetAIBridgeBalanceCoarsePot@8
      30D _DAQmxResetAIBridgeBalanceFinePot@8
      2E6 _DAQmxResetAIBridgeCfg@8
      2B1 _DAQmxResetAIBridgeElectricalUnits@8
      2EF _DAQmxResetAIBridgeInitialRatio@8
      2EC _DAQmxResetAIBridgeInitialVoltage@8
      2E9 _DAQmxResetAIBridgeNomResistance@8
      2B4 _DAQmxResetAIBridgePhysicalUnits@8
      2CC _DAQmxResetAIBridgePolyForwardCoeff@8
      2CF _DAQmxResetAIBridgePolyReverseCoeff@8
      2B7 _DAQmxResetAIBridgeScaleType@8
      2F2 _DAQmxResetAIBridgeShuntCalEnable@8
      2FB _DAQmxResetAIBridgeShuntCalGainAdjust@8
      2F5 _DAQmxResetAIBridgeShuntCalSelect@8
      301 _DAQmxResetAIBridgeShuntCalShuntCalAActualResistance@8
      2FE _DAQmxResetAIBridgeShuntCalShuntCalAResistance@8
      2F8 _DAQmxResetAIBridgeShuntCalShuntCalASrc@8
      307 _DAQmxResetAIBridgeShuntCalShuntCalBActualResistance@8
      304 _DAQmxResetAIBridgeShuntCalShuntCalBResistance@8
      2C6 _DAQmxResetAIBridgeTableElectricalVals@8
      2C9 _DAQmxResetAIBridgeTablePhysicalVals@8
      2BA _DAQmxResetAIBridgeTwoPointLinFirstElectricalVal@8
      2BD _DAQmxResetAIBridgeTwoPointLinFirstPhysicalVal@8
      2C0 _DAQmxResetAIBridgeTwoPointLinSecondElectricalVal@8
      2C3 _DAQmxResetAIBridgeTwoPointLinSecondPhysicalVal@8
      2AE _DAQmxResetAIBridgeUnits@8
      397 _DAQmxResetAIChanCalApplyCalIfExp@8
      3AC _DAQmxResetAIChanCalDesc@8
      394 _DAQmxResetAIChanCalEnableCal@8
      3A9 _DAQmxResetAIChanCalOperatorName@8
      3A3 _DAQmxResetAIChanCalPolyForwardCoeff@8
      3A6 _DAQmxResetAIChanCalPolyReverseCoeff@8
      39A _DAQmxResetAIChanCalScaleType@8
      39D _DAQmxResetAIChanCalTablePreScaledVals@8
      3A0 _DAQmxResetAIChanCalTableScaledVals@8
      3B2 _DAQmxResetAIChanCalVerifAcqVals@8
      3AF _DAQmxResetAIChanCalVerifRefVals@8
      9C3 _DAQmxResetAIConvActiveEdge@4
      9C6 _DAQmxResetAIConvActiveEdgeEx@8
      9E1 _DAQmxResetAIConvDigFltrEnable@4
      9E4 _DAQmxResetAIConvDigFltrEnableEx@8
      9E7 _DAQmxResetAIConvDigFltrMinPulseWidth@4
      9EA _DAQmxResetAIConvDigFltrMinPulseWidthEx@8
      9F3 _DAQmxResetAIConvDigFltrTimebaseRate@4
      9F6 _DAQmxResetAIConvDigFltrTimebaseRateEx@8
      9ED _DAQmxResetAIConvDigFltrTimebaseSrc@4
      9F0 _DAQmxResetAIConvDigFltrTimebaseSrcEx@8
      9F9 _DAQmxResetAIConvDigSyncEnable@4
      9FC _DAQmxResetAIConvDigSyncEnableEx@8
      9B5 _DAQmxResetAIConvRate@4
      9B8 _DAQmxResetAIConvRateEx@8
      9BD _DAQmxResetAIConvSrc@4
      9C0 _DAQmxResetAIConvSrcEx@8
      9C9 _DAQmxResetAIConvTimebaseDiv@4
      9CC _DAQmxResetAIConvTimebaseDivEx@8
      9CF _DAQmxResetAIConvTimebaseSrc@4
      9D2 _DAQmxResetAIConvTimebaseSrcEx@8
      2D4 _DAQmxResetAICoupling@8
      23A _DAQmxResetAICurrentACRMSUnits@8
      310 _DAQmxResetAICurrentShuntLoc@8
      313 _DAQmxResetAICurrentShuntResistance@8
      237 _DAQmxResetAICurrentUnits@8
      1FE _DAQmxResetAICustomScaleName@8
      3BB _DAQmxResetAIDCOffset@8
      3CD _DAQmxResetAIDataXferCustomThreshold@8
      3C7 _DAQmxResetAIDataXferMech@8
      3CA _DAQmxResetAIDataXferReqCond@8
      36A _DAQmxResetAIDigFltrBandpassCenterFreq@8
      36D _DAQmxResetAIDigFltrBandpassWidth@8
      376 _DAQmxResetAIDigFltrCoeff@8
      358 _DAQmxResetAIDigFltrEnable@8
      367 _DAQmxResetAIDigFltrHighpassCutoffFreq@8
      364 _DAQmxResetAIDigFltrLowpassCutoffFreq@8
      370 _DAQmxResetAIDigFltrNotchCenterFreq@8
      373 _DAQmxResetAIDigFltrNotchWidth@8
      361 _DAQmxResetAIDigFltrOrder@8
      35E _DAQmxResetAIDigFltrResponse@8
      35B _DAQmxResetAIDigFltrType@8
      390 _DAQmxResetAIDitherEnable@8
      275 _DAQmxResetAIEddyCurrentProxProbeSensitivity@8
      278 _DAQmxResetAIEddyCurrentProxProbeSensitivityUnits@8
      272 _DAQmxResetAIEddyCurrentProxProbeUnits@8
      3E0 _DAQmxResetAIEnhancedAliasRejectionEnable@8
      325 _DAQmxResetAIExcitActualVal@8
      328 _DAQmxResetAIExcitDCorAC@8
      32E _DAQmxResetAIExcitIdleOutputBehavior@8
      316 _DAQmxResetAIExcitSense@8
      319 _DAQmxResetAIExcitSrc@8
      31F _DAQmxResetAIExcitUseForScaling@8
      322 _DAQmxResetAIExcitUseMultiplexed@8
      31C _DAQmxResetAIExcitVal@8
      32B _DAQmxResetAIExcitVoltageOrCurrent@8
      380 _DAQmxResetAIFilterDelayAdjustment@8
      37A _DAQmxResetAIFilterDelayUnits@8
      2A2 _DAQmxResetAIForceIEPESensorSensitivity@8
      2A5 _DAQmxResetAIForceIEPESensorSensitivityUnits@8
      234 _DAQmxResetAIForceReadFromChan@8
      29F _DAQmxResetAIForceUnits@8
      25D _DAQmxResetAIFreqHyst@8
      25A _DAQmxResetAIFreqThreshVoltage@8
      257 _DAQmxResetAIFreqUnits@8
      3BE _DAQmxResetAIGain@8
      2D7 _DAQmxResetAIImpedance@8
      2DD _DAQmxResetAIInputSrc@8
      263 _DAQmxResetAILVDTSensitivity@8
      266 _DAQmxResetAILVDTSensitivityUnits@8
      260 _DAQmxResetAILVDTUnits@8
      2E3 _DAQmxResetAILeadWireResistance@8
      3DC _DAQmxResetAILossyLSBRemovalCompressedSampSize@8
      349 _DAQmxResetAILowpassCutoffFreq@8
      346 _DAQmxResetAILowpassEnable@8
      34C _DAQmxResetAILowpassSwitchCapClkSrc@8
      352 _DAQmxResetAILowpassSwitchCapExtClkDiv@8
      34F _DAQmxResetAILowpassSwitchCapExtClkFreq@8
      355 _DAQmxResetAILowpassSwitchCapOutClkDiv@8
      1F8 _DAQmxResetAIMax@8
      3D6 _DAQmxResetAIMemMapEnable@8
      284 _DAQmxResetAIMicrophoneSensitivity@8
      1FB _DAQmxResetAIMin@8
      3E3 _DAQmxResetAIOpenChanDetectEnable@8
      33A _DAQmxResetAIOpenThrmcplDetectEnable@8
      2A8 _DAQmxResetAIPressureUnits@8
      343 _DAQmxResetAIProbeAtten@8
      21F _DAQmxResetAIRTDA@8
      222 _DAQmxResetAIRTDB@8
      225 _DAQmxResetAIRTDC@8
      21C _DAQmxResetAIRTDR0@8
      219 _DAQmxResetAIRTDType@8
      26C _DAQmxResetAIRVDTSensitivity@8
      26F _DAQmxResetAIRVDTSensitivityUnits@8
      269 _DAQmxResetAIRVDTUnits@8
      3D9 _DAQmxResetAIRawDataCompressionType@8
      37D _DAQmxResetAIRemoveFilterDelay@8
      2E0 _DAQmxResetAIResistanceCfg@8
      254 _DAQmxResetAIResistanceUnits@8
      3B5 _DAQmxResetAIRngHigh@8
      3B8 _DAQmxResetAIRngLow@8
      24D _DAQmxResetAIRosetteStrainGageOrientation@8
      251 _DAQmxResetAIRosetteStrainGageRosetteMeasType@8
      3C1 _DAQmxResetAISampAndHoldEnable@8
      27B _DAQmxResetAISoundPressureMaxSoundPressureLvl@8
      27E _DAQmxResetAISoundPressureUnits@8
      281 _DAQmxResetAISoundPressuredBRef@8
      249 _DAQmxResetAIStrainGageCfg@8
      240 _DAQmxResetAIStrainGageForceReadFromChan@8
      243 _DAQmxResetAIStrainGageGageFactor@8
      246 _DAQmxResetAIStrainGagePoissonRatio@8
      23D _DAQmxResetAIStrainUnits@8
      20B _DAQmxResetAITempUnits@8
      2DA _DAQmxResetAITermCfg@8
      215 _DAQmxResetAIThrmcplCJCVal@8
      33D _DAQmxResetAIThrmcplLeadOffsetVoltage@8
      211 _DAQmxResetAIThrmcplScaleType@8
      20E _DAQmxResetAIThrmcplType@8
      228 _DAQmxResetAIThrmstrA@8
      22B _DAQmxResetAIThrmstrB@8
      22E _DAQmxResetAIThrmstrC@8
      231 _DAQmxResetAIThrmstrR1@8
      2AB _DAQmxResetAITorqueUnits@8
      3D3 _DAQmxResetAIUsbXferReqCount@8
      3D0 _DAQmxResetAIUsbXferReqSize@8
      299 _DAQmxResetAIVelocityIEPESensorSensitivity@8
      29C _DAQmxResetAIVelocityIEPESensorSensitivityUnits@8
      296 _DAQmxResetAIVelocityIEPESensordBRef@8
      293 _DAQmxResetAIVelocityUnits@8
      208 _DAQmxResetAIVoltageACRMSUnits@8
      202 _DAQmxResetAIVoltageUnits@8
      205 _DAQmxResetAIVoltagedBRef@8
      3F6 _DAQmxResetAOCurrentUnits@8
      3EC _DAQmxResetAOCustomScaleName@8
      436 _DAQmxResetAODACOffsetExtSrc@8
      433 _DAQmxResetAODACOffsetSrc@8
      439 _DAQmxResetAODACOffsetVal@8
      427 _DAQmxResetAODACRefAllowConnToGnd@8
      424 _DAQmxResetAODACRefConnToGnd@8
      42D _DAQmxResetAODACRefExtSrc@8
      42A _DAQmxResetAODACRefSrc@8
      430 _DAQmxResetAODACRefVal@8
      41E _DAQmxResetAODACRngHigh@8
      421 _DAQmxResetAODACRngLow@8
      44E _DAQmxResetAODataXferMech@8
      451 _DAQmxResetAODataXferReqCond@8
      45E _DAQmxResetAOEnhancedImageRejectionEnable@8
      43F _DAQmxResetAOFilterDelay@8
      445 _DAQmxResetAOFilterDelayAdjustment@8
      442 _DAQmxResetAOFilterDelayUnits@8
      3FF _DAQmxResetAOFuncGenAmplitude@8
      40B _DAQmxResetAOFuncGenFMDeviation@8
      3FC _DAQmxResetAOFuncGenFreq@8
      408 _DAQmxResetAOFuncGenModulationType@8
      402 _DAQmxResetAOFuncGenOffset@8
      405 _DAQmxResetAOFuncGenSquareDutyCycle@8
      3F9 _DAQmxResetAOFuncGenType@8
      448 _DAQmxResetAOGain@8
      414 _DAQmxResetAOIdleOutputBehavior@8
      411 _DAQmxResetAOLoadImpedance@8
      3E6 _DAQmxResetAOMax@8
      45A _DAQmxResetAOMemMapEnable@8
      3E9 _DAQmxResetAOMin@8
      40E _DAQmxResetAOOutputImpedance@8
      BC6 _DAQmxResetAOPowerAmpChannelEnable@4
      43C _DAQmxResetAOReglitchEnable@8
      41A _DAQmxResetAOResolutionUnits@8
      417 _DAQmxResetAOTermCfg@8
      457 _DAQmxResetAOUsbXferReqCount@8
      454 _DAQmxResetAOUsbXferReqSize@8
      44B _DAQmxResetAOUseOnlyOnBrdMem@8
      3F3 _DAQmxResetAOVoltageCurrentLimit@8
      3F0 _DAQmxResetAOVoltageUnits@8
      AEC _DAQmxResetAdvTrigType@4
      AB5 _DAQmxResetAnlgEdgeRefTrigCoupling@4
      AB8 _DAQmxResetAnlgEdgeRefTrigDigFltrEnable@4
      ABB _DAQmxResetAnlgEdgeRefTrigDigFltrMinPulseWidth@4
      AC1 _DAQmxResetAnlgEdgeRefTrigDigFltrTimebaseRate@4
      ABE _DAQmxResetAnlgEdgeRefTrigDigFltrTimebaseSrc@4
      AC4 _DAQmxResetAnlgEdgeRefTrigDigSyncEnable@4
      AB2 _DAQmxResetAnlgEdgeRefTrigHyst@4
      AAF _DAQmxResetAnlgEdgeRefTrigLvl@4
      AAC _DAQmxResetAnlgEdgeRefTrigSlope@4
      AA9 _DAQmxResetAnlgEdgeRefTrigSrc@4
      A4B _DAQmxResetAnlgEdgeStartTrigCoupling@4
      A4E _DAQmxResetAnlgEdgeStartTrigDigFltrEnable@4
      A51 _DAQmxResetAnlgEdgeStartTrigDigFltrMinPulseWidth@4
      A57 _DAQmxResetAnlgEdgeStartTrigDigFltrTimebaseRate@4
      A54 _DAQmxResetAnlgEdgeStartTrigDigFltrTimebaseSrc@4
      A5A _DAQmxResetAnlgEdgeStartTrigDigSyncEnable@4
      A48 _DAQmxResetAnlgEdgeStartTrigHyst@4
      A45 _DAQmxResetAnlgEdgeStartTrigLvl@4
      A42 _DAQmxResetAnlgEdgeStartTrigSlope@4
      A3F _DAQmxResetAnlgEdgeStartTrigSrc@4
      B11 _DAQmxResetAnlgLvlPauseTrigCoupling@4
      B14 _DAQmxResetAnlgLvlPauseTrigDigFltrEnable@4
      B17 _DAQmxResetAnlgLvlPauseTrigDigFltrMinPulseWidth@4
      B1D _DAQmxResetAnlgLvlPauseTrigDigFltrTimebaseRate@4
      B1A _DAQmxResetAnlgLvlPauseTrigDigFltrTimebaseSrc@4
      B20 _DAQmxResetAnlgLvlPauseTrigDigSyncEnable@4
      B0E _DAQmxResetAnlgLvlPauseTrigHyst@4
      B0B _DAQmxResetAnlgLvlPauseTrigLvl@4
      B05 _DAQmxResetAnlgLvlPauseTrigSrc@4
      B08 _DAQmxResetAnlgLvlPauseTrigWhen@4
      B2C _DAQmxResetAnlgWinPauseTrigBtm@4
      B2F _DAQmxResetAnlgWinPauseTrigCoupling@4
      B32 _DAQmxResetAnlgWinPauseTrigDigFltrEnable@4
      B35 _DAQmxResetAnlgWinPauseTrigDigFltrMinPulseWidth@4
      B3B _DAQmxResetAnlgWinPauseTrigDigFltrTimebaseRate@4
      B38 _DAQmxResetAnlgWinPauseTrigDigFltrTimebaseSrc@4
      B3E _DAQmxResetAnlgWinPauseTrigDigSyncEnable@4
      B23 _DAQmxResetAnlgWinPauseTrigSrc@4
      B29 _DAQmxResetAnlgWinPauseTrigTop@4
      B26 _DAQmxResetAnlgWinPauseTrigWhen@4
      AD0 _DAQmxResetAnlgWinRefTrigBtm@4
      AD3 _DAQmxResetAnlgWinRefTrigCoupling@4
      AD6 _DAQmxResetAnlgWinRefTrigDigFltrEnable@4
      AD9 _DAQmxResetAnlgWinRefTrigDigFltrMinPulseWidth@4
      ADF _DAQmxResetAnlgWinRefTrigDigFltrTimebaseRate@4
      ADC _DAQmxResetAnlgWinRefTrigDigFltrTimebaseSrc@4
      AE2 _DAQmxResetAnlgWinRefTrigDigSyncEnable@4
      AC7 _DAQmxResetAnlgWinRefTrigSrc@4
      ACD _DAQmxResetAnlgWinRefTrigTop@4
      ACA _DAQmxResetAnlgWinRefTrigWhen@4
      A66 _DAQmxResetAnlgWinStartTrigBtm@4
      A69 _DAQmxResetAnlgWinStartTrigCoupling@4
      A6C _DAQmxResetAnlgWinStartTrigDigFltrEnable@4
      A6F _DAQmxResetAnlgWinStartTrigDigFltrMinPulseWidth@4
      A75 _DAQmxResetAnlgWinStartTrigDigFltrTimebaseRate@4
      A72 _DAQmxResetAnlgWinStartTrigDigFltrTimebaseSrc@4
      A78 _DAQmxResetAnlgWinStartTrigDigSyncEnable@4
      A5D _DAQmxResetAnlgWinStartTrigSrc@4
      A63 _DAQmxResetAnlgWinStartTrigTop@4
      A60 _DAQmxResetAnlgWinStartTrigWhen@4
      B5F _DAQmxResetArmStartTrigType@4
      1E3 _DAQmxResetBufInputBufSize@4
      1E7 _DAQmxResetBufOutputBufSize@4
      1EA _DAQmxResetBufOutputOnbrdBufSize@4
       D3 _DAQmxResetBufferAttribute@8
      5B4 _DAQmxResetCIAngEncoderInitialAngle@8
      5B1 _DAQmxResetCIAngEncoderPulsesPerRev@8
      5AE _DAQmxResetCIAngEncoderUnits@8
      557 _DAQmxResetCICountEdgesActiveEdge@8
      545 _DAQmxResetCICountEdgesCountDirDigFltrEnable@8
      548 _DAQmxResetCICountEdgesCountDirDigFltrMinPulseWidth@8
      54E _DAQmxResetCICountEdgesCountDirDigFltrTimebaseRate@8
      54B _DAQmxResetCICountEdgesCountDirDigFltrTimebaseSrc@8
      551 _DAQmxResetCICountEdgesCountDirDigSyncEnable@8
      542 _DAQmxResetCICountEdgesCountDirLogicLvlBehavior@8
      53F _DAQmxResetCICountEdgesCountDirTermCfg@8
      578 _DAQmxResetCICountEdgesCountResetActiveEdge@8
      569 _DAQmxResetCICountEdgesCountResetDigFltrEnable@8
      56C _DAQmxResetCICountEdgesCountResetDigFltrMinPulseWidth@8
      572 _DAQmxResetCICountEdgesCountResetDigFltrTimebaseRate@8
      56F _DAQmxResetCICountEdgesCountResetDigFltrTimebaseSrc@8
      575 _DAQmxResetCICountEdgesCountResetDigSyncEnable@8
      55A _DAQmxResetCICountEdgesCountResetEnable@8
      566 _DAQmxResetCICountEdgesCountResetLogicLvlBehavior@8
      55D _DAQmxResetCICountEdgesCountResetResetCount@8
      560 _DAQmxResetCICountEdgesCountResetTerm@8
      563 _DAQmxResetCICountEdgesCountResetTermCfg@8
      52A _DAQmxResetCICountEdgesDigFltrEnable@8
      52D _DAQmxResetCICountEdgesDigFltrMinPulseWidth@8
      533 _DAQmxResetCICountEdgesDigFltrTimebaseRate@8
      530 _DAQmxResetCICountEdgesDigFltrTimebaseSrc@8
      536 _DAQmxResetCICountEdgesDigSyncEnable@8
      539 _DAQmxResetCICountEdgesDir@8
      53C _DAQmxResetCICountEdgesDirTerm@8
      587 _DAQmxResetCICountEdgesGateDigFltrEnable@8
      58A _DAQmxResetCICountEdgesGateDigFltrMinPulseWidth@8
      590 _DAQmxResetCICountEdgesGateDigFltrTimebaseRate@8
      58D _DAQmxResetCICountEdgesGateDigFltrTimebaseSrc@8
      57B _DAQmxResetCICountEdgesGateEnable@8
      584 _DAQmxResetCICountEdgesGateLogicLvlBehavior@8
      57E _DAQmxResetCICountEdgesGateTerm@8
      581 _DAQmxResetCICountEdgesGateTermCfg@8
      593 _DAQmxResetCICountEdgesGateWhen@8
      554 _DAQmxResetCICountEdgesInitialCnt@8
      527 _DAQmxResetCICountEdgesLogicLvlBehavior@8
      521 _DAQmxResetCICountEdgesTerm@8
      524 _DAQmxResetCICountEdgesTermCfg@8
      731 _DAQmxResetCICtrTimebaseActiveEdge@8
      734 _DAQmxResetCICtrTimebaseDigFltrEnable@8
      737 _DAQmxResetCICtrTimebaseDigFltrMinPulseWidth@8
      73D _DAQmxResetCICtrTimebaseDigFltrTimebaseRate@8
      73A _DAQmxResetCICtrTimebaseDigFltrTimebaseSrc@8
      740 _DAQmxResetCICtrTimebaseDigSyncEnable@8
      749 _DAQmxResetCICtrTimebaseMasterTimebaseDiv@8
      72E _DAQmxResetCICtrTimebaseRate@8
      72B _DAQmxResetCICtrTimebaseSrc@8
      4C9 _DAQmxResetCICustomScaleName@8
      752 _DAQmxResetCIDataXferMech@8
      755 _DAQmxResetCIDataXferReqCond@8
      762 _DAQmxResetCIDupCountPrevent@8
      59F _DAQmxResetCIDutyCycleDigFltrEnable@8
      5A2 _DAQmxResetCIDutyCycleDigFltrMinPulseWidth@8
      5A8 _DAQmxResetCIDutyCycleDigFltrTimebaseRate@8
      5A5 _DAQmxResetCIDutyCycleDigFltrTimebaseSrc@8
      59C _DAQmxResetCIDutyCycleLogicLvlBehavior@8
      5AB _DAQmxResetCIDutyCycleStartingEdge@8
      596 _DAQmxResetCIDutyCycleTerm@8
      599 _DAQmxResetCIDutyCycleTermCfg@8
      5CC _DAQmxResetCIEncoderAInputDigFltrEnable@8
      5CF _DAQmxResetCIEncoderAInputDigFltrMinPulseWidth@8
      5D5 _DAQmxResetCIEncoderAInputDigFltrTimebaseRate@8
      5D2 _DAQmxResetCIEncoderAInputDigFltrTimebaseSrc@8
      5D8 _DAQmxResetCIEncoderAInputDigSyncEnable@8
      5C9 _DAQmxResetCIEncoderAInputLogicLvlBehavior@8
      5C3 _DAQmxResetCIEncoderAInputTerm@8
      5C6 _DAQmxResetCIEncoderAInputTermCfg@8
      5E4 _DAQmxResetCIEncoderBInputDigFltrEnable@8
      5E7 _DAQmxResetCIEncoderBInputDigFltrMinPulseWidth@8
      5ED _DAQmxResetCIEncoderBInputDigFltrTimebaseRate@8
      5EA _DAQmxResetCIEncoderBInputDigFltrTimebaseSrc@8
      5F0 _DAQmxResetCIEncoderBInputDigSyncEnable@8
      5E1 _DAQmxResetCIEncoderBInputLogicLvlBehavior@8
      5DB _DAQmxResetCIEncoderBInputTerm@8
      5DE _DAQmxResetCIEncoderBInputTermCfg@8
      5C0 _DAQmxResetCIEncoderDecodingType@8
      60B _DAQmxResetCIEncoderZIndexEnable@8
      611 _DAQmxResetCIEncoderZIndexPhase@8
      60E _DAQmxResetCIEncoderZIndexVal@8
      5FC _DAQmxResetCIEncoderZInputDigFltrEnable@8
      5FF _DAQmxResetCIEncoderZInputDigFltrMinPulseWidth@8
      605 _DAQmxResetCIEncoderZInputDigFltrTimebaseRate@8
      602 _DAQmxResetCIEncoderZInputDigFltrTimebaseSrc@8
      608 _DAQmxResetCIEncoderZInputDigSyncEnable@8
      5F9 _DAQmxResetCIEncoderZInputLogicLvlBehavior@8
      5F3 _DAQmxResetCIEncoderZInputTerm@8
      5F6 _DAQmxResetCIEncoderZInputTermCfg@8
      4D9 _DAQmxResetCIFreqDigFltrEnable@8
      4DC _DAQmxResetCIFreqDigFltrMinPulseWidth@8
      4E2 _DAQmxResetCIFreqDigFltrTimebaseRate@8
      4DF _DAQmxResetCIFreqDigFltrTimebaseSrc@8
      4E5 _DAQmxResetCIFreqDigSyncEnable@8
      4F4 _DAQmxResetCIFreqDiv@8
      4EE _DAQmxResetCIFreqEnableAveraging@8
      4D6 _DAQmxResetCIFreqLogicLvlBehavior@8
      4EB _DAQmxResetCIFreqMeasMeth@8
      4F1 _DAQmxResetCIFreqMeasTime@8
      4E8 _DAQmxResetCIFreqStartingEdge@8
      4D0 _DAQmxResetCIFreqTerm@8
      4D3 _DAQmxResetCIFreqTermCfg@8
      4CD _DAQmxResetCIFreqUnits@8
      638 _DAQmxResetCIGPSSyncMethod@8
      63B _DAQmxResetCIGPSSyncSrc@8
      5BA _DAQmxResetCILinEncoderDistPerPulse@8
      5BD _DAQmxResetCILinEncoderInitialPos@8
      5B7 _DAQmxResetCILinEncoderUnits@8
      4C3 _DAQmxResetCIMax@8
      768 _DAQmxResetCIMaxMeasPeriod@8
      75E _DAQmxResetCIMemMapEnable@8
      4C6 _DAQmxResetCIMin@8
      503 _DAQmxResetCIPeriodDigFltrEnable@8
      506 _DAQmxResetCIPeriodDigFltrMinPulseWidth@8
      50C _DAQmxResetCIPeriodDigFltrTimebaseRate@8
      509 _DAQmxResetCIPeriodDigFltrTimebaseSrc@8
      50F _DAQmxResetCIPeriodDigSyncEnable@8
      51E _DAQmxResetCIPeriodDiv@8
      518 _DAQmxResetCIPeriodEnableAveraging@8
      500 _DAQmxResetCIPeriodLogicLvlBehavior@8
      515 _DAQmxResetCIPeriodMeasMeth@8
      51B _DAQmxResetCIPeriodMeasTime@8
      512 _DAQmxResetCIPeriodStartingEdge@8
      4FA _DAQmxResetCIPeriodTerm@8
      4FD _DAQmxResetCIPeriodTermCfg@8
      4F7 _DAQmxResetCIPeriodUnits@8
      765 _DAQmxResetCIPrescaler@8
      6E0 _DAQmxResetCIPulseFreqDigFltrEnable@8
      6E3 _DAQmxResetCIPulseFreqDigFltrMinPulseWidth@8
      6E9 _DAQmxResetCIPulseFreqDigFltrTimebaseRate@8
      6E6 _DAQmxResetCIPulseFreqDigFltrTimebaseSrc@8
      6EC _DAQmxResetCIPulseFreqDigSyncEnable@8
      6DD _DAQmxResetCIPulseFreqLogicLvlBehavior@8
      6EF _DAQmxResetCIPulseFreqStartEdge@8
      6D7 _DAQmxResetCIPulseFreqTerm@8
      6DA _DAQmxResetCIPulseFreqTermCfg@8
      6D4 _DAQmxResetCIPulseFreqUnits@8
      719 _DAQmxResetCIPulseTicksDigFltrEnable@8
      71C _DAQmxResetCIPulseTicksDigFltrMinPulseWidth@8
      722 _DAQmxResetCIPulseTicksDigFltrTimebaseRate@8
      71F _DAQmxResetCIPulseTicksDigFltrTimebaseSrc@8
      725 _DAQmxResetCIPulseTicksDigSyncEnable@8
      716 _DAQmxResetCIPulseTicksLogicLvlBehavior@8
      728 _DAQmxResetCIPulseTicksStartEdge@8
      710 _DAQmxResetCIPulseTicksTerm@8
      713 _DAQmxResetCIPulseTicksTermCfg@8
      6FE _DAQmxResetCIPulseTimeDigFltrEnable@8
      701 _DAQmxResetCIPulseTimeDigFltrMinPulseWidth@8
      707 _DAQmxResetCIPulseTimeDigFltrTimebaseRate@8
      704 _DAQmxResetCIPulseTimeDigFltrTimebaseSrc@8
      70A _DAQmxResetCIPulseTimeDigSyncEnable@8
      6FB _DAQmxResetCIPulseTimeLogicLvlBehavior@8
      70D _DAQmxResetCIPulseTimeStartEdge@8
      6F5 _DAQmxResetCIPulseTimeTerm@8
      6F8 _DAQmxResetCIPulseTimeTermCfg@8
      6F2 _DAQmxResetCIPulseTimeUnits@8
      620 _DAQmxResetCIPulseWidthDigFltrEnable@8
      623 _DAQmxResetCIPulseWidthDigFltrMinPulseWidth@8
      629 _DAQmxResetCIPulseWidthDigFltrTimebaseRate@8
      626 _DAQmxResetCIPulseWidthDigFltrTimebaseSrc@8
      62C _DAQmxResetCIPulseWidthDigSyncEnable@8
      61D _DAQmxResetCIPulseWidthLogicLvlBehavior@8
      62F _DAQmxResetCIPulseWidthStartingEdge@8
      617 _DAQmxResetCIPulseWidthTerm@8
      61A _DAQmxResetCIPulseWidthTermCfg@8
      614 _DAQmxResetCIPulseWidthUnits@8
      74C _DAQmxResetCISampClkOverrunBehavior@8
      74F _DAQmxResetCISampClkOverrunSentinelVal@8
      6C2 _DAQmxResetCISemiPeriodDigFltrEnable@8
      6C5 _DAQmxResetCISemiPeriodDigFltrMinPulseWidth@8
      6CB _DAQmxResetCISemiPeriodDigFltrTimebaseRate@8
      6C8 _DAQmxResetCISemiPeriodDigFltrTimebaseSrc@8
      6CE _DAQmxResetCISemiPeriodDigSyncEnable@8
      6BF _DAQmxResetCISemiPeriodLogicLvlBehavior@8
      6D1 _DAQmxResetCISemiPeriodStartingEdge@8
      6B9 _DAQmxResetCISemiPeriodTerm@8
      6BC _DAQmxResetCISemiPeriodTermCfg@8
      6B6 _DAQmxResetCISemiPeriodUnits@8
      743 _DAQmxResetCIThreshVoltage@8
      635 _DAQmxResetCITimestampInitialSeconds@8
      632 _DAQmxResetCITimestampUnits@8
      689 _DAQmxResetCITwoEdgeSepFirstDigFltrEnable@8
      68C _DAQmxResetCITwoEdgeSepFirstDigFltrMinPulseWidth@8
      692 _DAQmxResetCITwoEdgeSepFirstDigFltrTimebaseRate@8
      68F _DAQmxResetCITwoEdgeSepFirstDigFltrTimebaseSrc@8
      695 _DAQmxResetCITwoEdgeSepFirstDigSyncEnable@8
      698 _DAQmxResetCITwoEdgeSepFirstEdge@8
      686 _DAQmxResetCITwoEdgeSepFirstLogicLvlBehavior@8
      680 _DAQmxResetCITwoEdgeSepFirstTerm@8
      683 _DAQmxResetCITwoEdgeSepFirstTermCfg@8
      6A4 _DAQmxResetCITwoEdgeSepSecondDigFltrEnable@8
      6A7 _DAQmxResetCITwoEdgeSepSecondDigFltrMinPulseWidth@8
      6AD _DAQmxResetCITwoEdgeSepSecondDigFltrTimebaseRate@8
      6AA _DAQmxResetCITwoEdgeSepSecondDigFltrTimebaseSrc@8
      6B0 _DAQmxResetCITwoEdgeSepSecondDigSyncEnable@8
      6B3 _DAQmxResetCITwoEdgeSepSecondEdge@8
      6A1 _DAQmxResetCITwoEdgeSepSecondLogicLvlBehavior@8
      69B _DAQmxResetCITwoEdgeSepSecondTerm@8
      69E _DAQmxResetCITwoEdgeSepSecondTermCfg@8
      67D _DAQmxResetCITwoEdgeSepUnits@8
      75B _DAQmxResetCIUsbXferReqCount@8
      758 _DAQmxResetCIUsbXferReqSize@8
      641 _DAQmxResetCIVelocityAngEncoderPulsesPerRev@8
      63E _DAQmxResetCIVelocityAngEncoderUnits@8
      67A _DAQmxResetCIVelocityDiv@8
      656 _DAQmxResetCIVelocityEncoderAInputDigFltrEnable@8
      659 _DAQmxResetCIVelocityEncoderAInputDigFltrMinPulseWidth@8
      65F _DAQmxResetCIVelocityEncoderAInputDigFltrTimebaseRate@8
      65C _DAQmxResetCIVelocityEncoderAInputDigFltrTimebaseSrc@8
      653 _DAQmxResetCIVelocityEncoderAInputLogicLvlBehavior@8
      64D _DAQmxResetCIVelocityEncoderAInputTerm@8
      650 _DAQmxResetCIVelocityEncoderAInputTermCfg@8
      66B _DAQmxResetCIVelocityEncoderBInputDigFltrEnable@8
      66E _DAQmxResetCIVelocityEncoderBInputDigFltrMinPulseWidth@8
      674 _DAQmxResetCIVelocityEncoderBInputDigFltrTimebaseRate@8
      671 _DAQmxResetCIVelocityEncoderBInputDigFltrTimebaseSrc@8
      668 _DAQmxResetCIVelocityEncoderBInputLogicLvlBehavior@8
      662 _DAQmxResetCIVelocityEncoderBInputTerm@8
      665 _DAQmxResetCIVelocityEncoderBInputTermCfg@8
      64A _DAQmxResetCIVelocityEncoderDecodingType@8
      647 _DAQmxResetCIVelocityLinEncoderDistPerPulse@8
      644 _DAQmxResetCIVelocityLinEncoderUnits@8
      677 _DAQmxResetCIVelocityMeasTime@8
      7AD _DAQmxResetCOAutoIncrCnt@8
      7B7 _DAQmxResetCOConstrainedGenMode@8
      799 _DAQmxResetCOCtrTimebaseActiveEdge@8
      79C _DAQmxResetCOCtrTimebaseDigFltrEnable@8
      79F _DAQmxResetCOCtrTimebaseDigFltrMinPulseWidth@8
      7A5 _DAQmxResetCOCtrTimebaseDigFltrTimebaseRate@8
      7A2 _DAQmxResetCOCtrTimebaseDigFltrTimebaseSrc@8
      7A8 _DAQmxResetCOCtrTimebaseDigSyncEnable@8
      7B0 _DAQmxResetCOCtrTimebaseMasterTimebaseDiv@8
      796 _DAQmxResetCOCtrTimebaseRate@8
      793 _DAQmxResetCOCtrTimebaseSrc@8
      7BD _DAQmxResetCODataXferMech@8
      7C0 _DAQmxResetCODataXferReqCond@8
      7B4 _DAQmxResetCOEnableInitialDelayOnRetrigger@8
      7C9 _DAQmxResetCOMemMapEnable@8
      7CC _DAQmxResetCOPrescaler@8
      77E _DAQmxResetCOPulseDutyCyc@8
      784 _DAQmxResetCOPulseFreq@8
      787 _DAQmxResetCOPulseFreqInitialDelay@8
      781 _DAQmxResetCOPulseFreqUnits@8
      78A _DAQmxResetCOPulseHighTicks@8
      775 _DAQmxResetCOPulseHighTime@8
      76C _DAQmxResetCOPulseIdleState@8
      78D _DAQmxResetCOPulseLowTicks@8
      778 _DAQmxResetCOPulseLowTime@8
      76F _DAQmxResetCOPulseTerm@8
      790 _DAQmxResetCOPulseTicksInitialDelay@8
      77B _DAQmxResetCOPulseTimeInitialDelay@8
      772 _DAQmxResetCOPulseTimeUnits@8
      7C6 _DAQmxResetCOUsbXferReqCount@8
      7C3 _DAQmxResetCOUsbXferReqSize@8
      7BA _DAQmxResetCOUseOnlyOnBrdMem@8
       73 _DAQmxResetChanAttribute@12
      7D3 _DAQmxResetChanDescr@8
      9A9 _DAQmxResetChangeDetectDIFallingEdgePhysicalChans@4
      9A6 _DAQmxResetChangeDetectDIRisingEdgePhysicalChans@4
      9AC _DAQmxResetChangeDetectDITristate@4
      48C _DAQmxResetDIAcquireOn@8
      47D _DAQmxResetDIDataXferMech@8
      480 _DAQmxResetDIDataXferReqCond@8
      465 _DAQmxResetDIDigFltrEnable@8
      46B _DAQmxResetDIDigFltrEnableBusMode@8
      468 _DAQmxResetDIDigFltrMinPulseWidth@8
      471 _DAQmxResetDIDigFltrTimebaseRate@8
      46E _DAQmxResetDIDigFltrTimebaseSrc@8
      474 _DAQmxResetDIDigSyncEnable@8
      461 _DAQmxResetDIInvertLines@8
      47A _DAQmxResetDILogicFamily@8
      489 _DAQmxResetDIMemMapEnable@8
      477 _DAQmxResetDITristate@8
      486 _DAQmxResetDIUsbXferReqCount@8
      483 _DAQmxResetDIUsbXferReqSize@8
      4B1 _DAQmxResetDODataXferMech@8
      4B4 _DAQmxResetDODataXferReqCond@8
      4C0 _DAQmxResetDOGenerateOn@8
      492 _DAQmxResetDOInvertLines@8
      49F _DAQmxResetDOLineStatesDoneState@8
      49C _DAQmxResetDOLineStatesPausedState@8
      499 _DAQmxResetDOLineStatesStartState@8
      4A2 _DAQmxResetDOLogicFamily@8
      4BD _DAQmxResetDOMemMapEnable@8
      48F _DAQmxResetDOOutputDriveType@8
      4A8 _DAQmxResetDOOvercurrentAutoReenable@8
      4A5 _DAQmxResetDOOvercurrentLimit@8
      4AB _DAQmxResetDOOvercurrentReenablePeriod@8
      496 _DAQmxResetDOTristate@8
      4BA _DAQmxResetDOUsbXferReqCount@8
      4B7 _DAQmxResetDOUsbXferReqSize@8
      4AE _DAQmxResetDOUseOnlyOnBrdMem@8
      9DB _DAQmxResetDelayFromSampClkDelay@4
      9DE _DAQmxResetDelayFromSampClkDelayEx@8
      9D5 _DAQmxResetDelayFromSampClkDelayUnits@4
      9D8 _DAQmxResetDelayFromSampClkDelayUnitsEx@8
       ED _DAQmxResetDevice@4
      AF5 _DAQmxResetDigEdgeAdvTrigDigFltrEnable@4
      AF2 _DAQmxResetDigEdgeAdvTrigEdge@4
      AEF _DAQmxResetDigEdgeAdvTrigSrc@4
      B69 _DAQmxResetDigEdgeArmStartTrigDigFltrEnable@4
      B6C _DAQmxResetDigEdgeArmStartTrigDigFltrMinPulseWidth@4
      B72 _DAQmxResetDigEdgeArmStartTrigDigFltrTimebaseRate@4
      B6F _DAQmxResetDigEdgeArmStartTrigDigFltrTimebaseSrc@4
      B75 _DAQmxResetDigEdgeArmStartTrigDigSyncEnable@4
      B66 _DAQmxResetDigEdgeArmStartTrigEdge@4
      B63 _DAQmxResetDigEdgeArmStartTrigSrc@4
      A91 _DAQmxResetDigEdgeRefTrigDigFltrEnable@4
      A94 _DAQmxResetDigEdgeRefTrigDigFltrMinPulseWidth@4
      A9A _DAQmxResetDigEdgeRefTrigDigFltrTimebaseRate@4
      A97 _DAQmxResetDigEdgeRefTrigDigFltrTimebaseSrc@4
      A9D _DAQmxResetDigEdgeRefTrigDigSyncEnable@4
      A8E _DAQmxResetDigEdgeRefTrigEdge@4
      A8B _DAQmxResetDigEdgeRefTrigSrc@4
      A27 _DAQmxResetDigEdgeStartTrigDigFltrEnable@4
      A2A _DAQmxResetDigEdgeStartTrigDigFltrMinPulseWidth@4
      A30 _DAQmxResetDigEdgeStartTrigDigFltrTimebaseRate@4
      A2D _DAQmxResetDigEdgeStartTrigDigFltrTimebaseSrc@4
      A33 _DAQmxResetDigEdgeStartTrigDigSyncEnable@4
      A24 _DAQmxResetDigEdgeStartTrigEdge@4
      A21 _DAQmxResetDigEdgeStartTrigSrc@4
      B87 _DAQmxResetDigEdgeWatchdogExpirTrigEdge@4
      B84 _DAQmxResetDigEdgeWatchdogExpirTrigSrc@4
      B47 _DAQmxResetDigLvlPauseTrigDigFltrEnable@4
      B4A _DAQmxResetDigLvlPauseTrigDigFltrMinPulseWidth@4
      B50 _DAQmxResetDigLvlPauseTrigDigFltrTimebaseRate@4
      B4D _DAQmxResetDigLvlPauseTrigDigFltrTimebaseSrc@4
      B53 _DAQmxResetDigLvlPauseTrigDigSyncEnable@4
      B41 _DAQmxResetDigLvlPauseTrigSrc@4
      B44 _DAQmxResetDigLvlPauseTrigWhen@4
      B59 _DAQmxResetDigPatternPauseTrigPattern@4
      B56 _DAQmxResetDigPatternPauseTrigSrc@4
      B5C _DAQmxResetDigPatternPauseTrigWhen@4
      AA3 _DAQmxResetDigPatternRefTrigPattern@4
      AA0 _DAQmxResetDigPatternRefTrigSrc@4
      AA6 _DAQmxResetDigPatternRefTrigWhen@4
      A39 _DAQmxResetDigPatternStartTrigPattern@4
      A36 _DAQmxResetDigPatternStartTrigSrc@4
      A3C _DAQmxResetDigPatternStartTrigWhen@4
      7DB _DAQmxResetExported10MHzRefClkOutputTerm@4
      7DE _DAQmxResetExported20MHzTimebaseOutputTerm@4
      7D7 _DAQmxResetExportedAIConvClkOutputTerm@4
      81B _DAQmxResetExportedAIHoldCmpltEventOutputTerm@4
      81E _DAQmxResetExportedAIHoldCmpltEventPulsePolarity@4
      812 _DAQmxResetExportedAdvCmpltEventDelay@4
      80F _DAQmxResetExportedAdvCmpltEventOutputTerm@4
      815 _DAQmxResetExportedAdvCmpltEventPulsePolarity@4
      818 _DAQmxResetExportedAdvCmpltEventPulseWidth@4
      7F3 _DAQmxResetExportedAdvTrigOutputTerm@4
      7FA _DAQmxResetExportedAdvTrigPulseWidth@4
      7F7 _DAQmxResetExportedAdvTrigPulseWidthUnits@4
      821 _DAQmxResetExportedChangeDetectEventOutputTerm@4
      824 _DAQmxResetExportedChangeDetectEventPulsePolarity@4
      82A _DAQmxResetExportedCtrOutEventOutputBehavior@4
      827 _DAQmxResetExportedCtrOutEventOutputTerm@4
      82D _DAQmxResetExportedCtrOutEventPulsePolarity@4
      830 _DAQmxResetExportedCtrOutEventToggleIdleState@4
      85A _DAQmxResetExportedDataActiveEventLvlActiveLvl@4
      857 _DAQmxResetExportedDataActiveEventOutputTerm@4
      7F0 _DAQmxResetExportedDividedSampClkTimebaseOutputTerm@4
      839 _DAQmxResetExportedHshkEventDelay@4
      83F _DAQmxResetExportedHshkEventInterlockedAssertOnStart@4
      83C _DAQmxResetExportedHshkEventInterlockedAssertedLvl@4
      842 _DAQmxResetExportedHshkEventInterlockedDeassertDelay@4
      836 _DAQmxResetExportedHshkEventOutputBehavior@4
      833 _DAQmxResetExportedHshkEventOutputTerm@4
      845 _DAQmxResetExportedHshkEventPulsePolarity@4
      848 _DAQmxResetExportedHshkEventPulseWidth@4
      800 _DAQmxResetExportedPauseTrigLvlActiveLvl@4
      7FD _DAQmxResetExportedPauseTrigOutputTerm@4
      860 _DAQmxResetExportedRdyForStartEventLvlActiveLvl@4
      85D _DAQmxResetExportedRdyForStartEventOutputTerm@4
      851 _DAQmxResetExportedRdyForXferEventDeassertCond@4
      854 _DAQmxResetExportedRdyForXferEventDeassertCondCustomThreshold@4
      84E _DAQmxResetExportedRdyForXferEventLvlActiveLvl@4
      84B _DAQmxResetExportedRdyForXferEventOutputTerm@4
      803 _DAQmxResetExportedRefTrigOutputTerm@4
      806 _DAQmxResetExportedRefTrigPulsePolarity@4
      7E7 _DAQmxResetExportedSampClkDelayOffset@4
      7E1 _DAQmxResetExportedSampClkOutputBehavior@4
      7E4 _DAQmxResetExportedSampClkOutputTerm@4
      7EA _DAQmxResetExportedSampClkPulsePolarity@4
      7ED _DAQmxResetExportedSampClkTimebaseOutputTerm@4
       C7 _DAQmxResetExportedSignalAttribute@8
      809 _DAQmxResetExportedStartTrigOutputTerm@4
      80C _DAQmxResetExportedStartTrigPulsePolarity@4
      863 _DAQmxResetExportedSyncPulseEventOutputTerm@4
      866 _DAQmxResetExportedWatchdogExpiredEventOutputTerm@4
      99D _DAQmxResetHshkDelayAfterXfer@4
      9A3 _DAQmxResetHshkSampleInputDataWhen@4
      9A0 _DAQmxResetHshkStartCond@4
      AF8 _DAQmxResetHshkTrigType@4
      9B2 _DAQmxResetImplicitUnderflowBehavior@4
      AFE _DAQmxResetInterlockedHshkTrigAssertedLvl@4
      AFB _DAQmxResetInterlockedHshkTrigSrc@4
      8CB _DAQmxResetLoggingFilePath@4
      8E0 _DAQmxResetLoggingFilePreallocationSize@4
      8DD _DAQmxResetLoggingFileWriteSize@4
      8CE _DAQmxResetLoggingMode@4
      8D7 _DAQmxResetLoggingPause@4
      8DA _DAQmxResetLoggingSampsPerFile@4
      8D1 _DAQmxResetLoggingTDMSGroupName@4
      8D4 _DAQmxResetLoggingTDMSOperation@4
